
Drivers.axf:     file format elf32-littlearm


Disassembly of section .isr_vector:

08000000 <g_pfnVectors>:
 8000000:	20002800 	andcs	r2, r0, r0, lsl #16
 8000004:	080009b9 	stmdaeq	r0, {r0, r3, r4, r5, r7, r8, fp}
 8000008:	08000a09 	stmdaeq	r0, {r0, r3, r9, fp}
 800000c:	08000a09 	stmdaeq	r0, {r0, r3, r9, fp}
 8000010:	08000a09 	stmdaeq	r0, {r0, r3, r9, fp}
 8000014:	08000a09 	stmdaeq	r0, {r0, r3, r9, fp}
 8000018:	08000a09 	stmdaeq	r0, {r0, r3, r9, fp}
	...
 800002c:	08000a09 	stmdaeq	r0, {r0, r3, r9, fp}
 8000030:	08000a09 	stmdaeq	r0, {r0, r3, r9, fp}
 8000034:	00000000 	andeq	r0, r0, r0
 8000038:	08000a09 	stmdaeq	r0, {r0, r3, r9, fp}
 800003c:	08000a09 	stmdaeq	r0, {r0, r3, r9, fp}
 8000040:	08000a09 	stmdaeq	r0, {r0, r3, r9, fp}
 8000044:	08000a09 	stmdaeq	r0, {r0, r3, r9, fp}
 8000048:	08000a09 	stmdaeq	r0, {r0, r3, r9, fp}
 800004c:	08000a09 	stmdaeq	r0, {r0, r3, r9, fp}
 8000050:	08000a09 	stmdaeq	r0, {r0, r3, r9, fp}
 8000054:	08000a09 	stmdaeq	r0, {r0, r3, r9, fp}
 8000058:	080004f1 	stmdaeq	r0, {r0, r4, r5, r6, r7, sl}
 800005c:	0800051d 	stmdaeq	r0, {r0, r2, r3, r4, r8, sl}
 8000060:	08000549 	stmdaeq	r0, {r0, r3, r6, r8, sl}
 8000064:	08000575 	stmdaeq	r0, {r0, r2, r4, r5, r6, r8, sl}
 8000068:	080005a1 	stmdaeq	r0, {r0, r5, r7, r8, sl}
 800006c:	08000a09 	stmdaeq	r0, {r0, r3, r9, fp}
 8000070:	08000a09 	stmdaeq	r0, {r0, r3, r9, fp}
 8000074:	08000a09 	stmdaeq	r0, {r0, r3, r9, fp}
 8000078:	08000a09 	stmdaeq	r0, {r0, r3, r9, fp}
 800007c:	08000a09 	stmdaeq	r0, {r0, r3, r9, fp}
 8000080:	08000a09 	stmdaeq	r0, {r0, r3, r9, fp}
 8000084:	08000a09 	stmdaeq	r0, {r0, r3, r9, fp}
 8000088:	08000a09 	stmdaeq	r0, {r0, r3, r9, fp}
 800008c:	08000a09 	stmdaeq	r0, {r0, r3, r9, fp}
 8000090:	08000a09 	stmdaeq	r0, {r0, r3, r9, fp}
 8000094:	08000a09 	stmdaeq	r0, {r0, r3, r9, fp}
 8000098:	08000a09 	stmdaeq	r0, {r0, r3, r9, fp}
 800009c:	080005cd 	stmdaeq	r0, {r0, r2, r3, r6, r7, r8, sl}
 80000a0:	08000a09 	stmdaeq	r0, {r0, r3, r9, fp}
 80000a4:	08000a09 	stmdaeq	r0, {r0, r3, r9, fp}
 80000a8:	08000a09 	stmdaeq	r0, {r0, r3, r9, fp}
 80000ac:	08000a09 	stmdaeq	r0, {r0, r3, r9, fp}
 80000b0:	08000a09 	stmdaeq	r0, {r0, r3, r9, fp}
 80000b4:	08000a09 	stmdaeq	r0, {r0, r3, r9, fp}
 80000b8:	08000a09 	stmdaeq	r0, {r0, r3, r9, fp}
 80000bc:	08000a09 	stmdaeq	r0, {r0, r3, r9, fp}
 80000c0:	08000a09 	stmdaeq	r0, {r0, r3, r9, fp}
 80000c4:	08000a09 	stmdaeq	r0, {r0, r3, r9, fp}
 80000c8:	08000a09 	stmdaeq	r0, {r0, r3, r9, fp}
 80000cc:	08000a09 	stmdaeq	r0, {r0, r3, r9, fp}
 80000d0:	08000a09 	stmdaeq	r0, {r0, r3, r9, fp}
 80000d4:	080008b1 	stmdaeq	r0, {r0, r4, r5, r7, fp}
 80000d8:	080008c5 	stmdaeq	r0, {r0, r2, r6, r7, fp}
 80000dc:	080008d9 	stmdaeq	r0, {r0, r3, r4, r6, r7, fp}
 80000e0:	0800069d 	stmdaeq	r0, {r0, r2, r3, r4, r7, r9, sl}
 80000e4:	08000a09 	stmdaeq	r0, {r0, r3, r9, fp}
 80000e8:	00000000 	andeq	r0, r0, r0
 80000ec:	08000a09 	stmdaeq	r0, {r0, r3, r9, fp}
 80000f0:	08000a09 	stmdaeq	r0, {r0, r3, r9, fp}
 80000f4:	08000a09 	stmdaeq	r0, {r0, r3, r9, fp}
 80000f8:	08000a09 	stmdaeq	r0, {r0, r3, r9, fp}
 80000fc:	08000a09 	stmdaeq	r0, {r0, r3, r9, fp}
 8000100:	08000a09 	stmdaeq	r0, {r0, r3, r9, fp}
 8000104:	08000a09 	stmdaeq	r0, {r0, r3, r9, fp}
 8000108:	08000a09 	stmdaeq	r0, {r0, r3, r9, fp}
 800010c:	08000a09 	stmdaeq	r0, {r0, r3, r9, fp}
 8000110:	08000a09 	stmdaeq	r0, {r0, r3, r9, fp}
 8000114:	08000a09 	stmdaeq	r0, {r0, r3, r9, fp}
 8000118:	08000a09 	stmdaeq	r0, {r0, r3, r9, fp}
 800011c:	08000a09 	stmdaeq	r0, {r0, r3, r9, fp}
 8000120:	08000a09 	stmdaeq	r0, {r0, r3, r9, fp}
 8000124:	08000a09 	stmdaeq	r0, {r0, r3, r9, fp}
 8000128:	08000a09 	stmdaeq	r0, {r0, r3, r9, fp}
 800012c:	08000a09 	stmdaeq	r0, {r0, r3, r9, fp}

Disassembly of section .text:

08000130 <__do_global_dtors_aux>:
 8000130:	b510      	push	{r4, lr}
 8000132:	4c05      	ldr	r4, [pc, #20]	; (8000148 <__do_global_dtors_aux+0x18>)
 8000134:	7823      	ldrb	r3, [r4, #0]
 8000136:	b933      	cbnz	r3, 8000146 <__do_global_dtors_aux+0x16>
 8000138:	4b04      	ldr	r3, [pc, #16]	; (800014c <__do_global_dtors_aux+0x1c>)
 800013a:	b113      	cbz	r3, 8000142 <__do_global_dtors_aux+0x12>
 800013c:	4804      	ldr	r0, [pc, #16]	; (8000150 <__do_global_dtors_aux+0x20>)
 800013e:	f3af 8000 	nop.w
 8000142:	2301      	movs	r3, #1
 8000144:	7023      	strb	r3, [r4, #0]
 8000146:	bd10      	pop	{r4, pc}
 8000148:	20000000 	andcs	r0, r0, r0
 800014c:	00000000 	andeq	r0, r0, r0
 8000150:	08000a54 	stmdaeq	r0, {r2, r4, r6, r9, fp}

08000154 <frame_dummy>:
 8000154:	b508      	push	{r3, lr}
 8000156:	4b03      	ldr	r3, [pc, #12]	; (8000164 <frame_dummy+0x10>)
 8000158:	b11b      	cbz	r3, 8000162 <frame_dummy+0xe>
 800015a:	4903      	ldr	r1, [pc, #12]	; (8000168 <frame_dummy+0x14>)
 800015c:	4803      	ldr	r0, [pc, #12]	; (800016c <frame_dummy+0x18>)
 800015e:	f3af 8000 	nop.w
 8000162:	bd08      	pop	{r3, pc}
 8000164:	00000000 	andeq	r0, r0, r0
 8000168:	20000004 	andcs	r0, r0, r4
 800016c:	08000a54 	stmdaeq	r0, {r2, r4, r6, r9, fp}

08000170 <NVIC_ENABLE>:
 8000170:	b480      	push	{r7}
 8000172:	b083      	sub	sp, #12
 8000174:	af00      	add	r7, sp, #0
 8000176:	4603      	mov	r3, r0
 8000178:	71fb      	strb	r3, [r7, #7]
 800017a:	79fb      	ldrb	r3, [r7, #7]
 800017c:	2b0f      	cmp	r3, #15
 800017e:	d854      	bhi.n	800022a <NVIC_ENABLE+0xba>
 8000180:	a201      	add	r2, pc, #4	; (adr r2, 8000188 <NVIC_ENABLE+0x18>)
 8000182:	f852 f023 	ldr.w	pc, [r2, r3, lsl #2]
 8000186:	bf00      	nop
 8000188:	080001c9 	stmdaeq	r0, {r0, r3, r6, r7, r8}
 800018c:	080001d7 	stmdaeq	r0, {r0, r1, r2, r4, r6, r7, r8}
 8000190:	080001e5 	stmdaeq	r0, {r0, r2, r5, r6, r7, r8}
 8000194:	080001f3 	stmdaeq	r0, {r0, r1, r4, r5, r6, r7, r8}
 8000198:	08000201 	stmdaeq	r0, {r0, r9}
 800019c:	0800020f 	stmdaeq	r0, {r0, r1, r2, r3, r9}
 80001a0:	0800020f 	stmdaeq	r0, {r0, r1, r2, r3, r9}
 80001a4:	0800020f 	stmdaeq	r0, {r0, r1, r2, r3, r9}
 80001a8:	0800020f 	stmdaeq	r0, {r0, r1, r2, r3, r9}
 80001ac:	0800020f 	stmdaeq	r0, {r0, r1, r2, r3, r9}
 80001b0:	0800021d 	stmdaeq	r0, {r0, r2, r3, r4, r9}
 80001b4:	0800021d 	stmdaeq	r0, {r0, r2, r3, r4, r9}
 80001b8:	0800021d 	stmdaeq	r0, {r0, r2, r3, r4, r9}
 80001bc:	0800021d 	stmdaeq	r0, {r0, r2, r3, r4, r9}
 80001c0:	0800021d 	stmdaeq	r0, {r0, r2, r3, r4, r9}
 80001c4:	0800021d 	stmdaeq	r0, {r0, r2, r3, r4, r9}
 80001c8:	4b1a      	ldr	r3, [pc, #104]	; (8000234 <NVIC_ENABLE+0xc4>)
 80001ca:	681b      	ldr	r3, [r3, #0]
 80001cc:	4a19      	ldr	r2, [pc, #100]	; (8000234 <NVIC_ENABLE+0xc4>)
 80001ce:	f043 0340 	orr.w	r3, r3, #64	; 0x40
 80001d2:	6013      	str	r3, [r2, #0]
 80001d4:	e029      	b.n	800022a <NVIC_ENABLE+0xba>
 80001d6:	4b17      	ldr	r3, [pc, #92]	; (8000234 <NVIC_ENABLE+0xc4>)
 80001d8:	681b      	ldr	r3, [r3, #0]
 80001da:	4a16      	ldr	r2, [pc, #88]	; (8000234 <NVIC_ENABLE+0xc4>)
 80001dc:	f043 0380 	orr.w	r3, r3, #128	; 0x80
 80001e0:	6013      	str	r3, [r2, #0]
 80001e2:	e022      	b.n	800022a <NVIC_ENABLE+0xba>
 80001e4:	4b13      	ldr	r3, [pc, #76]	; (8000234 <NVIC_ENABLE+0xc4>)
 80001e6:	681b      	ldr	r3, [r3, #0]
 80001e8:	4a12      	ldr	r2, [pc, #72]	; (8000234 <NVIC_ENABLE+0xc4>)
 80001ea:	f443 7380 	orr.w	r3, r3, #256	; 0x100
 80001ee:	6013      	str	r3, [r2, #0]
 80001f0:	e01b      	b.n	800022a <NVIC_ENABLE+0xba>
 80001f2:	4b10      	ldr	r3, [pc, #64]	; (8000234 <NVIC_ENABLE+0xc4>)
 80001f4:	681b      	ldr	r3, [r3, #0]
 80001f6:	4a0f      	ldr	r2, [pc, #60]	; (8000234 <NVIC_ENABLE+0xc4>)
 80001f8:	f443 7300 	orr.w	r3, r3, #512	; 0x200
 80001fc:	6013      	str	r3, [r2, #0]
 80001fe:	e014      	b.n	800022a <NVIC_ENABLE+0xba>
 8000200:	4b0c      	ldr	r3, [pc, #48]	; (8000234 <NVIC_ENABLE+0xc4>)
 8000202:	681b      	ldr	r3, [r3, #0]
 8000204:	4a0b      	ldr	r2, [pc, #44]	; (8000234 <NVIC_ENABLE+0xc4>)
 8000206:	f443 6380 	orr.w	r3, r3, #1024	; 0x400
 800020a:	6013      	str	r3, [r2, #0]
 800020c:	e00d      	b.n	800022a <NVIC_ENABLE+0xba>
 800020e:	4b09      	ldr	r3, [pc, #36]	; (8000234 <NVIC_ENABLE+0xc4>)
 8000210:	681b      	ldr	r3, [r3, #0]
 8000212:	4a08      	ldr	r2, [pc, #32]	; (8000234 <NVIC_ENABLE+0xc4>)
 8000214:	f443 0300 	orr.w	r3, r3, #8388608	; 0x800000
 8000218:	6013      	str	r3, [r2, #0]
 800021a:	e006      	b.n	800022a <NVIC_ENABLE+0xba>
 800021c:	4b06      	ldr	r3, [pc, #24]	; (8000238 <NVIC_ENABLE+0xc8>)
 800021e:	681b      	ldr	r3, [r3, #0]
 8000220:	4a05      	ldr	r2, [pc, #20]	; (8000238 <NVIC_ENABLE+0xc8>)
 8000222:	f443 7380 	orr.w	r3, r3, #256	; 0x100
 8000226:	6013      	str	r3, [r2, #0]
 8000228:	bf00      	nop
 800022a:	bf00      	nop
 800022c:	370c      	adds	r7, #12
 800022e:	46bd      	mov	sp, r7
 8000230:	bc80      	pop	{r7}
 8000232:	4770      	bx	lr
 8000234:	e000e100 	and	lr, r0, r0, lsl #2
 8000238:	e000e104 	and	lr, r0, r4, lsl #2

0800023c <NVIC_DISABLE>:
 800023c:	b480      	push	{r7}
 800023e:	b083      	sub	sp, #12
 8000240:	af00      	add	r7, sp, #0
 8000242:	4603      	mov	r3, r0
 8000244:	71fb      	strb	r3, [r7, #7]
 8000246:	79fb      	ldrb	r3, [r7, #7]
 8000248:	2b0f      	cmp	r3, #15
 800024a:	d854      	bhi.n	80002f6 <NVIC_DISABLE+0xba>
 800024c:	a201      	add	r2, pc, #4	; (adr r2, 8000254 <NVIC_DISABLE+0x18>)
 800024e:	f852 f023 	ldr.w	pc, [r2, r3, lsl #2]
 8000252:	bf00      	nop
 8000254:	08000295 	stmdaeq	r0, {r0, r2, r4, r7, r9}
 8000258:	080002a3 	stmdaeq	r0, {r0, r1, r5, r7, r9}
 800025c:	080002b1 	stmdaeq	r0, {r0, r4, r5, r7, r9}
 8000260:	080002bf 	stmdaeq	r0, {r0, r1, r2, r3, r4, r5, r7, r9}
 8000264:	080002cd 	stmdaeq	r0, {r0, r2, r3, r6, r7, r9}
 8000268:	080002db 	stmdaeq	r0, {r0, r1, r3, r4, r6, r7, r9}
 800026c:	080002db 	stmdaeq	r0, {r0, r1, r3, r4, r6, r7, r9}
 8000270:	080002db 	stmdaeq	r0, {r0, r1, r3, r4, r6, r7, r9}
 8000274:	080002db 	stmdaeq	r0, {r0, r1, r3, r4, r6, r7, r9}
 8000278:	080002db 	stmdaeq	r0, {r0, r1, r3, r4, r6, r7, r9}
 800027c:	080002e9 	stmdaeq	r0, {r0, r3, r5, r6, r7, r9}
 8000280:	080002e9 	stmdaeq	r0, {r0, r3, r5, r6, r7, r9}
 8000284:	080002e9 	stmdaeq	r0, {r0, r3, r5, r6, r7, r9}
 8000288:	080002e9 	stmdaeq	r0, {r0, r3, r5, r6, r7, r9}
 800028c:	080002e9 	stmdaeq	r0, {r0, r3, r5, r6, r7, r9}
 8000290:	080002e9 	stmdaeq	r0, {r0, r3, r5, r6, r7, r9}
 8000294:	4b1a      	ldr	r3, [pc, #104]	; (8000300 <NVIC_DISABLE+0xc4>)
 8000296:	681b      	ldr	r3, [r3, #0]
 8000298:	4a19      	ldr	r2, [pc, #100]	; (8000300 <NVIC_DISABLE+0xc4>)
 800029a:	f043 0340 	orr.w	r3, r3, #64	; 0x40
 800029e:	6013      	str	r3, [r2, #0]
 80002a0:	e029      	b.n	80002f6 <NVIC_DISABLE+0xba>
 80002a2:	4b17      	ldr	r3, [pc, #92]	; (8000300 <NVIC_DISABLE+0xc4>)
 80002a4:	681b      	ldr	r3, [r3, #0]
 80002a6:	4a16      	ldr	r2, [pc, #88]	; (8000300 <NVIC_DISABLE+0xc4>)
 80002a8:	f043 0380 	orr.w	r3, r3, #128	; 0x80
 80002ac:	6013      	str	r3, [r2, #0]
 80002ae:	e022      	b.n	80002f6 <NVIC_DISABLE+0xba>
 80002b0:	4b13      	ldr	r3, [pc, #76]	; (8000300 <NVIC_DISABLE+0xc4>)
 80002b2:	681b      	ldr	r3, [r3, #0]
 80002b4:	4a12      	ldr	r2, [pc, #72]	; (8000300 <NVIC_DISABLE+0xc4>)
 80002b6:	f443 7380 	orr.w	r3, r3, #256	; 0x100
 80002ba:	6013      	str	r3, [r2, #0]
 80002bc:	e01b      	b.n	80002f6 <NVIC_DISABLE+0xba>
 80002be:	4b10      	ldr	r3, [pc, #64]	; (8000300 <NVIC_DISABLE+0xc4>)
 80002c0:	681b      	ldr	r3, [r3, #0]
 80002c2:	4a0f      	ldr	r2, [pc, #60]	; (8000300 <NVIC_DISABLE+0xc4>)
 80002c4:	f443 7300 	orr.w	r3, r3, #512	; 0x200
 80002c8:	6013      	str	r3, [r2, #0]
 80002ca:	e014      	b.n	80002f6 <NVIC_DISABLE+0xba>
 80002cc:	4b0c      	ldr	r3, [pc, #48]	; (8000300 <NVIC_DISABLE+0xc4>)
 80002ce:	681b      	ldr	r3, [r3, #0]
 80002d0:	4a0b      	ldr	r2, [pc, #44]	; (8000300 <NVIC_DISABLE+0xc4>)
 80002d2:	f443 6380 	orr.w	r3, r3, #1024	; 0x400
 80002d6:	6013      	str	r3, [r2, #0]
 80002d8:	e00d      	b.n	80002f6 <NVIC_DISABLE+0xba>
 80002da:	4b09      	ldr	r3, [pc, #36]	; (8000300 <NVIC_DISABLE+0xc4>)
 80002dc:	681b      	ldr	r3, [r3, #0]
 80002de:	4a08      	ldr	r2, [pc, #32]	; (8000300 <NVIC_DISABLE+0xc4>)
 80002e0:	f443 0300 	orr.w	r3, r3, #8388608	; 0x800000
 80002e4:	6013      	str	r3, [r2, #0]
 80002e6:	e006      	b.n	80002f6 <NVIC_DISABLE+0xba>
 80002e8:	4b06      	ldr	r3, [pc, #24]	; (8000304 <NVIC_DISABLE+0xc8>)
 80002ea:	681b      	ldr	r3, [r3, #0]
 80002ec:	4a05      	ldr	r2, [pc, #20]	; (8000304 <NVIC_DISABLE+0xc8>)
 80002ee:	f443 7380 	orr.w	r3, r3, #256	; 0x100
 80002f2:	6013      	str	r3, [r2, #0]
 80002f4:	bf00      	nop
 80002f6:	bf00      	nop
 80002f8:	370c      	adds	r7, #12
 80002fa:	46bd      	mov	sp, r7
 80002fc:	bc80      	pop	{r7}
 80002fe:	4770      	bx	lr
 8000300:	e000e180 	and	lr, r0, r0, lsl #3
 8000304:	e000e184 	and	lr, r0, r4, lsl #3

08000308 <Update_EXTI>:
 8000308:	b580      	push	{r7, lr}
 800030a:	b084      	sub	sp, #16
 800030c:	af00      	add	r7, sp, #0
 800030e:	6078      	str	r0, [r7, #4]
 8000310:	687b      	ldr	r3, [r7, #4]
 8000312:	6858      	ldr	r0, [r3, #4]
 8000314:	687b      	ldr	r3, [r7, #4]
 8000316:	7a1b      	ldrb	r3, [r3, #8]
 8000318:	2204      	movs	r2, #4
 800031a:	4619      	mov	r1, r3
 800031c:	f000 fa8a 	bl	8000834 <MCAL_GPIO_SetPinMode>
 8000320:	687b      	ldr	r3, [r7, #4]
 8000322:	781b      	ldrb	r3, [r3, #0]
 8000324:	089b      	lsrs	r3, r3, #2
 8000326:	73fb      	strb	r3, [r7, #15]
 8000328:	687b      	ldr	r3, [r7, #4]
 800032a:	781b      	ldrb	r3, [r3, #0]
 800032c:	f003 0303 	and.w	r3, r3, #3
 8000330:	b2db      	uxtb	r3, r3
 8000332:	009b      	lsls	r3, r3, #2
 8000334:	73bb      	strb	r3, [r7, #14]
 8000336:	4a61      	ldr	r2, [pc, #388]	; (80004bc <Update_EXTI+0x1b4>)
 8000338:	7bfb      	ldrb	r3, [r7, #15]
 800033a:	3302      	adds	r3, #2
 800033c:	f852 2023 	ldr.w	r2, [r2, r3, lsl #2]
 8000340:	7bbb      	ldrb	r3, [r7, #14]
 8000342:	210f      	movs	r1, #15
 8000344:	fa01 f303 	lsl.w	r3, r1, r3
 8000348:	43db      	mvns	r3, r3
 800034a:	4618      	mov	r0, r3
 800034c:	495b      	ldr	r1, [pc, #364]	; (80004bc <Update_EXTI+0x1b4>)
 800034e:	7bfb      	ldrb	r3, [r7, #15]
 8000350:	4002      	ands	r2, r0
 8000352:	3302      	adds	r3, #2
 8000354:	f841 2023 	str.w	r2, [r1, r3, lsl #2]
 8000358:	4a58      	ldr	r2, [pc, #352]	; (80004bc <Update_EXTI+0x1b4>)
 800035a:	7bfb      	ldrb	r3, [r7, #15]
 800035c:	3302      	adds	r3, #2
 800035e:	f852 2023 	ldr.w	r2, [r2, r3, lsl #2]
 8000362:	687b      	ldr	r3, [r7, #4]
 8000364:	685b      	ldr	r3, [r3, #4]
 8000366:	4956      	ldr	r1, [pc, #344]	; (80004c0 <Update_EXTI+0x1b8>)
 8000368:	428b      	cmp	r3, r1
 800036a:	d016      	beq.n	800039a <Update_EXTI+0x92>
 800036c:	687b      	ldr	r3, [r7, #4]
 800036e:	685b      	ldr	r3, [r3, #4]
 8000370:	4954      	ldr	r1, [pc, #336]	; (80004c4 <Update_EXTI+0x1bc>)
 8000372:	428b      	cmp	r3, r1
 8000374:	d00f      	beq.n	8000396 <Update_EXTI+0x8e>
 8000376:	687b      	ldr	r3, [r7, #4]
 8000378:	685b      	ldr	r3, [r3, #4]
 800037a:	4953      	ldr	r1, [pc, #332]	; (80004c8 <Update_EXTI+0x1c0>)
 800037c:	428b      	cmp	r3, r1
 800037e:	d008      	beq.n	8000392 <Update_EXTI+0x8a>
 8000380:	687b      	ldr	r3, [r7, #4]
 8000382:	685b      	ldr	r3, [r3, #4]
 8000384:	4951      	ldr	r1, [pc, #324]	; (80004cc <Update_EXTI+0x1c4>)
 8000386:	428b      	cmp	r3, r1
 8000388:	d101      	bne.n	800038e <Update_EXTI+0x86>
 800038a:	2303      	movs	r3, #3
 800038c:	e006      	b.n	800039c <Update_EXTI+0x94>
 800038e:	2300      	movs	r3, #0
 8000390:	e004      	b.n	800039c <Update_EXTI+0x94>
 8000392:	2302      	movs	r3, #2
 8000394:	e002      	b.n	800039c <Update_EXTI+0x94>
 8000396:	2301      	movs	r3, #1
 8000398:	e000      	b.n	800039c <Update_EXTI+0x94>
 800039a:	2300      	movs	r3, #0
 800039c:	7bb9      	ldrb	r1, [r7, #14]
 800039e:	408b      	lsls	r3, r1
 80003a0:	4618      	mov	r0, r3
 80003a2:	4946      	ldr	r1, [pc, #280]	; (80004bc <Update_EXTI+0x1b4>)
 80003a4:	7bfb      	ldrb	r3, [r7, #15]
 80003a6:	4302      	orrs	r2, r0
 80003a8:	3302      	adds	r3, #2
 80003aa:	f841 2023 	str.w	r2, [r1, r3, lsl #2]
 80003ae:	4b48      	ldr	r3, [pc, #288]	; (80004d0 <Update_EXTI+0x1c8>)
 80003b0:	689b      	ldr	r3, [r3, #8]
 80003b2:	687a      	ldr	r2, [r7, #4]
 80003b4:	7812      	ldrb	r2, [r2, #0]
 80003b6:	4611      	mov	r1, r2
 80003b8:	2201      	movs	r2, #1
 80003ba:	408a      	lsls	r2, r1
 80003bc:	43d2      	mvns	r2, r2
 80003be:	4611      	mov	r1, r2
 80003c0:	4a43      	ldr	r2, [pc, #268]	; (80004d0 <Update_EXTI+0x1c8>)
 80003c2:	400b      	ands	r3, r1
 80003c4:	6093      	str	r3, [r2, #8]
 80003c6:	4b42      	ldr	r3, [pc, #264]	; (80004d0 <Update_EXTI+0x1c8>)
 80003c8:	68db      	ldr	r3, [r3, #12]
 80003ca:	687a      	ldr	r2, [r7, #4]
 80003cc:	7812      	ldrb	r2, [r2, #0]
 80003ce:	4611      	mov	r1, r2
 80003d0:	2201      	movs	r2, #1
 80003d2:	408a      	lsls	r2, r1
 80003d4:	43d2      	mvns	r2, r2
 80003d6:	4611      	mov	r1, r2
 80003d8:	4a3d      	ldr	r2, [pc, #244]	; (80004d0 <Update_EXTI+0x1c8>)
 80003da:	400b      	ands	r3, r1
 80003dc:	60d3      	str	r3, [r2, #12]
 80003de:	687b      	ldr	r3, [r7, #4]
 80003e0:	7b1b      	ldrb	r3, [r3, #12]
 80003e2:	2b02      	cmp	r3, #2
 80003e4:	d01e      	beq.n	8000424 <Update_EXTI+0x11c>
 80003e6:	2b02      	cmp	r3, #2
 80003e8:	dc33      	bgt.n	8000452 <Update_EXTI+0x14a>
 80003ea:	2b00      	cmp	r3, #0
 80003ec:	d002      	beq.n	80003f4 <Update_EXTI+0xec>
 80003ee:	2b01      	cmp	r3, #1
 80003f0:	d00c      	beq.n	800040c <Update_EXTI+0x104>
 80003f2:	e02e      	b.n	8000452 <Update_EXTI+0x14a>
 80003f4:	4b36      	ldr	r3, [pc, #216]	; (80004d0 <Update_EXTI+0x1c8>)
 80003f6:	689b      	ldr	r3, [r3, #8]
 80003f8:	687a      	ldr	r2, [r7, #4]
 80003fa:	7812      	ldrb	r2, [r2, #0]
 80003fc:	4611      	mov	r1, r2
 80003fe:	2201      	movs	r2, #1
 8000400:	408a      	lsls	r2, r1
 8000402:	4611      	mov	r1, r2
 8000404:	4a32      	ldr	r2, [pc, #200]	; (80004d0 <Update_EXTI+0x1c8>)
 8000406:	430b      	orrs	r3, r1
 8000408:	6093      	str	r3, [r2, #8]
 800040a:	e022      	b.n	8000452 <Update_EXTI+0x14a>
 800040c:	4b30      	ldr	r3, [pc, #192]	; (80004d0 <Update_EXTI+0x1c8>)
 800040e:	68db      	ldr	r3, [r3, #12]
 8000410:	687a      	ldr	r2, [r7, #4]
 8000412:	7812      	ldrb	r2, [r2, #0]
 8000414:	4611      	mov	r1, r2
 8000416:	2201      	movs	r2, #1
 8000418:	408a      	lsls	r2, r1
 800041a:	4611      	mov	r1, r2
 800041c:	4a2c      	ldr	r2, [pc, #176]	; (80004d0 <Update_EXTI+0x1c8>)
 800041e:	430b      	orrs	r3, r1
 8000420:	60d3      	str	r3, [r2, #12]
 8000422:	e016      	b.n	8000452 <Update_EXTI+0x14a>
 8000424:	4b2a      	ldr	r3, [pc, #168]	; (80004d0 <Update_EXTI+0x1c8>)
 8000426:	689b      	ldr	r3, [r3, #8]
 8000428:	687a      	ldr	r2, [r7, #4]
 800042a:	7812      	ldrb	r2, [r2, #0]
 800042c:	4611      	mov	r1, r2
 800042e:	2201      	movs	r2, #1
 8000430:	408a      	lsls	r2, r1
 8000432:	4611      	mov	r1, r2
 8000434:	4a26      	ldr	r2, [pc, #152]	; (80004d0 <Update_EXTI+0x1c8>)
 8000436:	430b      	orrs	r3, r1
 8000438:	6093      	str	r3, [r2, #8]
 800043a:	4b25      	ldr	r3, [pc, #148]	; (80004d0 <Update_EXTI+0x1c8>)
 800043c:	68db      	ldr	r3, [r3, #12]
 800043e:	687a      	ldr	r2, [r7, #4]
 8000440:	7812      	ldrb	r2, [r2, #0]
 8000442:	4611      	mov	r1, r2
 8000444:	2201      	movs	r2, #1
 8000446:	408a      	lsls	r2, r1
 8000448:	4611      	mov	r1, r2
 800044a:	4a21      	ldr	r2, [pc, #132]	; (80004d0 <Update_EXTI+0x1c8>)
 800044c:	430b      	orrs	r3, r1
 800044e:	60d3      	str	r3, [r2, #12]
 8000450:	bf00      	nop
 8000452:	687b      	ldr	r3, [r7, #4]
 8000454:	781b      	ldrb	r3, [r3, #0]
 8000456:	4619      	mov	r1, r3
 8000458:	687b      	ldr	r3, [r7, #4]
 800045a:	691b      	ldr	r3, [r3, #16]
 800045c:	4a1d      	ldr	r2, [pc, #116]	; (80004d4 <Update_EXTI+0x1cc>)
 800045e:	f842 3021 	str.w	r3, [r2, r1, lsl #2]
 8000462:	687b      	ldr	r3, [r7, #4]
 8000464:	7b5b      	ldrb	r3, [r3, #13]
 8000466:	2b00      	cmp	r3, #0
 8000468:	d012      	beq.n	8000490 <Update_EXTI+0x188>
 800046a:	2b01      	cmp	r3, #1
 800046c:	d122      	bne.n	80004b4 <Update_EXTI+0x1ac>
 800046e:	4b18      	ldr	r3, [pc, #96]	; (80004d0 <Update_EXTI+0x1c8>)
 8000470:	681b      	ldr	r3, [r3, #0]
 8000472:	687a      	ldr	r2, [r7, #4]
 8000474:	7812      	ldrb	r2, [r2, #0]
 8000476:	4611      	mov	r1, r2
 8000478:	2201      	movs	r2, #1
 800047a:	408a      	lsls	r2, r1
 800047c:	4611      	mov	r1, r2
 800047e:	4a14      	ldr	r2, [pc, #80]	; (80004d0 <Update_EXTI+0x1c8>)
 8000480:	430b      	orrs	r3, r1
 8000482:	6013      	str	r3, [r2, #0]
 8000484:	687b      	ldr	r3, [r7, #4]
 8000486:	781b      	ldrb	r3, [r3, #0]
 8000488:	4618      	mov	r0, r3
 800048a:	f7ff fe71 	bl	8000170 <NVIC_ENABLE>
 800048e:	e011      	b.n	80004b4 <Update_EXTI+0x1ac>
 8000490:	4b0f      	ldr	r3, [pc, #60]	; (80004d0 <Update_EXTI+0x1c8>)
 8000492:	681b      	ldr	r3, [r3, #0]
 8000494:	687a      	ldr	r2, [r7, #4]
 8000496:	7812      	ldrb	r2, [r2, #0]
 8000498:	4611      	mov	r1, r2
 800049a:	2201      	movs	r2, #1
 800049c:	408a      	lsls	r2, r1
 800049e:	43d2      	mvns	r2, r2
 80004a0:	4611      	mov	r1, r2
 80004a2:	4a0b      	ldr	r2, [pc, #44]	; (80004d0 <Update_EXTI+0x1c8>)
 80004a4:	400b      	ands	r3, r1
 80004a6:	6013      	str	r3, [r2, #0]
 80004a8:	687b      	ldr	r3, [r7, #4]
 80004aa:	781b      	ldrb	r3, [r3, #0]
 80004ac:	4618      	mov	r0, r3
 80004ae:	f7ff fec5 	bl	800023c <NVIC_DISABLE>
 80004b2:	bf00      	nop
 80004b4:	bf00      	nop
 80004b6:	3710      	adds	r7, #16
 80004b8:	46bd      	mov	sp, r7
 80004ba:	bd80      	pop	{r7, pc}
 80004bc:	40010000 	andmi	r0, r1, r0
 80004c0:	40010800 	andmi	r0, r1, r0, lsl #16
 80004c4:	40010c00 	andmi	r0, r1, r0, lsl #24
 80004c8:	40011000 	andmi	r1, r1, r0
 80004cc:	40011400 	andmi	r1, r1, r0, lsl #8
 80004d0:	40010400 	andmi	r0, r1, r0, lsl #8
 80004d4:	2000001c 	andcs	r0, r0, ip, lsl r0

080004d8 <MCAL_EXTI_GPIO_Init>:
 80004d8:	b580      	push	{r7, lr}
 80004da:	b082      	sub	sp, #8
 80004dc:	af00      	add	r7, sp, #0
 80004de:	6078      	str	r0, [r7, #4]
 80004e0:	6878      	ldr	r0, [r7, #4]
 80004e2:	f7ff ff11 	bl	8000308 <Update_EXTI>
 80004e6:	bf00      	nop
 80004e8:	3708      	adds	r7, #8
 80004ea:	46bd      	mov	sp, r7
 80004ec:	bd80      	pop	{r7, pc}
	...

080004f0 <EXTI0_IRQHandler>:
 80004f0:	b580      	push	{r7, lr}
 80004f2:	af00      	add	r7, sp, #0
 80004f4:	4b07      	ldr	r3, [pc, #28]	; (8000514 <EXTI0_IRQHandler+0x24>)
 80004f6:	695b      	ldr	r3, [r3, #20]
 80004f8:	4a06      	ldr	r2, [pc, #24]	; (8000514 <EXTI0_IRQHandler+0x24>)
 80004fa:	f043 0301 	orr.w	r3, r3, #1
 80004fe:	6153      	str	r3, [r2, #20]
 8000500:	4b05      	ldr	r3, [pc, #20]	; (8000518 <EXTI0_IRQHandler+0x28>)
 8000502:	681b      	ldr	r3, [r3, #0]
 8000504:	2b00      	cmp	r3, #0
 8000506:	d002      	beq.n	800050e <EXTI0_IRQHandler+0x1e>
 8000508:	4b03      	ldr	r3, [pc, #12]	; (8000518 <EXTI0_IRQHandler+0x28>)
 800050a:	681b      	ldr	r3, [r3, #0]
 800050c:	4798      	blx	r3
 800050e:	bf00      	nop
 8000510:	bd80      	pop	{r7, pc}
 8000512:	bf00      	nop
 8000514:	40010400 	andmi	r0, r1, r0, lsl #8
 8000518:	2000001c 	andcs	r0, r0, ip, lsl r0

0800051c <EXTI1_IRQHandler>:
 800051c:	b580      	push	{r7, lr}
 800051e:	af00      	add	r7, sp, #0
 8000520:	4b07      	ldr	r3, [pc, #28]	; (8000540 <EXTI1_IRQHandler+0x24>)
 8000522:	695b      	ldr	r3, [r3, #20]
 8000524:	4a06      	ldr	r2, [pc, #24]	; (8000540 <EXTI1_IRQHandler+0x24>)
 8000526:	f043 0302 	orr.w	r3, r3, #2
 800052a:	6153      	str	r3, [r2, #20]
 800052c:	4b05      	ldr	r3, [pc, #20]	; (8000544 <EXTI1_IRQHandler+0x28>)
 800052e:	685b      	ldr	r3, [r3, #4]
 8000530:	2b00      	cmp	r3, #0
 8000532:	d002      	beq.n	800053a <EXTI1_IRQHandler+0x1e>
 8000534:	4b03      	ldr	r3, [pc, #12]	; (8000544 <EXTI1_IRQHandler+0x28>)
 8000536:	685b      	ldr	r3, [r3, #4]
 8000538:	4798      	blx	r3
 800053a:	bf00      	nop
 800053c:	bd80      	pop	{r7, pc}
 800053e:	bf00      	nop
 8000540:	40010400 	andmi	r0, r1, r0, lsl #8
 8000544:	2000001c 	andcs	r0, r0, ip, lsl r0

08000548 <EXTI2_IRQHandler>:
 8000548:	b580      	push	{r7, lr}
 800054a:	af00      	add	r7, sp, #0
 800054c:	4b07      	ldr	r3, [pc, #28]	; (800056c <EXTI2_IRQHandler+0x24>)
 800054e:	695b      	ldr	r3, [r3, #20]
 8000550:	4a06      	ldr	r2, [pc, #24]	; (800056c <EXTI2_IRQHandler+0x24>)
 8000552:	f043 0304 	orr.w	r3, r3, #4
 8000556:	6153      	str	r3, [r2, #20]
 8000558:	4b05      	ldr	r3, [pc, #20]	; (8000570 <EXTI2_IRQHandler+0x28>)
 800055a:	689b      	ldr	r3, [r3, #8]
 800055c:	2b00      	cmp	r3, #0
 800055e:	d002      	beq.n	8000566 <EXTI2_IRQHandler+0x1e>
 8000560:	4b03      	ldr	r3, [pc, #12]	; (8000570 <EXTI2_IRQHandler+0x28>)
 8000562:	689b      	ldr	r3, [r3, #8]
 8000564:	4798      	blx	r3
 8000566:	bf00      	nop
 8000568:	bd80      	pop	{r7, pc}
 800056a:	bf00      	nop
 800056c:	40010400 	andmi	r0, r1, r0, lsl #8
 8000570:	2000001c 	andcs	r0, r0, ip, lsl r0

08000574 <EXTI3_IRQHandler>:
 8000574:	b580      	push	{r7, lr}
 8000576:	af00      	add	r7, sp, #0
 8000578:	4b07      	ldr	r3, [pc, #28]	; (8000598 <EXTI3_IRQHandler+0x24>)
 800057a:	695b      	ldr	r3, [r3, #20]
 800057c:	4a06      	ldr	r2, [pc, #24]	; (8000598 <EXTI3_IRQHandler+0x24>)
 800057e:	f043 0308 	orr.w	r3, r3, #8
 8000582:	6153      	str	r3, [r2, #20]
 8000584:	4b05      	ldr	r3, [pc, #20]	; (800059c <EXTI3_IRQHandler+0x28>)
 8000586:	68db      	ldr	r3, [r3, #12]
 8000588:	2b00      	cmp	r3, #0
 800058a:	d002      	beq.n	8000592 <EXTI3_IRQHandler+0x1e>
 800058c:	4b03      	ldr	r3, [pc, #12]	; (800059c <EXTI3_IRQHandler+0x28>)
 800058e:	68db      	ldr	r3, [r3, #12]
 8000590:	4798      	blx	r3
 8000592:	bf00      	nop
 8000594:	bd80      	pop	{r7, pc}
 8000596:	bf00      	nop
 8000598:	40010400 	andmi	r0, r1, r0, lsl #8
 800059c:	2000001c 	andcs	r0, r0, ip, lsl r0

080005a0 <EXTI4_IRQHandler>:
 80005a0:	b580      	push	{r7, lr}
 80005a2:	af00      	add	r7, sp, #0
 80005a4:	4b07      	ldr	r3, [pc, #28]	; (80005c4 <EXTI4_IRQHandler+0x24>)
 80005a6:	695b      	ldr	r3, [r3, #20]
 80005a8:	4a06      	ldr	r2, [pc, #24]	; (80005c4 <EXTI4_IRQHandler+0x24>)
 80005aa:	f043 0310 	orr.w	r3, r3, #16
 80005ae:	6153      	str	r3, [r2, #20]
 80005b0:	4b05      	ldr	r3, [pc, #20]	; (80005c8 <EXTI4_IRQHandler+0x28>)
 80005b2:	691b      	ldr	r3, [r3, #16]
 80005b4:	2b00      	cmp	r3, #0
 80005b6:	d002      	beq.n	80005be <EXTI4_IRQHandler+0x1e>
 80005b8:	4b03      	ldr	r3, [pc, #12]	; (80005c8 <EXTI4_IRQHandler+0x28>)
 80005ba:	691b      	ldr	r3, [r3, #16]
 80005bc:	4798      	blx	r3
 80005be:	bf00      	nop
 80005c0:	bd80      	pop	{r7, pc}
 80005c2:	bf00      	nop
 80005c4:	40010400 	andmi	r0, r1, r0, lsl #8
 80005c8:	2000001c 	andcs	r0, r0, ip, lsl r0

080005cc <EXTI9_5_IRQHandler>:
 80005cc:	b580      	push	{r7, lr}
 80005ce:	af00      	add	r7, sp, #0
 80005d0:	4b30      	ldr	r3, [pc, #192]	; (8000694 <EXTI9_5_IRQHandler+0xc8>)
 80005d2:	695b      	ldr	r3, [r3, #20]
 80005d4:	f003 0320 	and.w	r3, r3, #32
 80005d8:	2b00      	cmp	r3, #0
 80005da:	d00c      	beq.n	80005f6 <EXTI9_5_IRQHandler+0x2a>
 80005dc:	4b2d      	ldr	r3, [pc, #180]	; (8000694 <EXTI9_5_IRQHandler+0xc8>)
 80005de:	695b      	ldr	r3, [r3, #20]
 80005e0:	4a2c      	ldr	r2, [pc, #176]	; (8000694 <EXTI9_5_IRQHandler+0xc8>)
 80005e2:	f043 0320 	orr.w	r3, r3, #32
 80005e6:	6153      	str	r3, [r2, #20]
 80005e8:	4b2b      	ldr	r3, [pc, #172]	; (8000698 <EXTI9_5_IRQHandler+0xcc>)
 80005ea:	695b      	ldr	r3, [r3, #20]
 80005ec:	2b00      	cmp	r3, #0
 80005ee:	d002      	beq.n	80005f6 <EXTI9_5_IRQHandler+0x2a>
 80005f0:	4b29      	ldr	r3, [pc, #164]	; (8000698 <EXTI9_5_IRQHandler+0xcc>)
 80005f2:	695b      	ldr	r3, [r3, #20]
 80005f4:	4798      	blx	r3
 80005f6:	4b27      	ldr	r3, [pc, #156]	; (8000694 <EXTI9_5_IRQHandler+0xc8>)
 80005f8:	695b      	ldr	r3, [r3, #20]
 80005fa:	f003 0340 	and.w	r3, r3, #64	; 0x40
 80005fe:	2b00      	cmp	r3, #0
 8000600:	d00c      	beq.n	800061c <EXTI9_5_IRQHandler+0x50>
 8000602:	4b24      	ldr	r3, [pc, #144]	; (8000694 <EXTI9_5_IRQHandler+0xc8>)
 8000604:	695b      	ldr	r3, [r3, #20]
 8000606:	4a23      	ldr	r2, [pc, #140]	; (8000694 <EXTI9_5_IRQHandler+0xc8>)
 8000608:	f043 0340 	orr.w	r3, r3, #64	; 0x40
 800060c:	6153      	str	r3, [r2, #20]
 800060e:	4b22      	ldr	r3, [pc, #136]	; (8000698 <EXTI9_5_IRQHandler+0xcc>)
 8000610:	699b      	ldr	r3, [r3, #24]
 8000612:	2b00      	cmp	r3, #0
 8000614:	d002      	beq.n	800061c <EXTI9_5_IRQHandler+0x50>
 8000616:	4b20      	ldr	r3, [pc, #128]	; (8000698 <EXTI9_5_IRQHandler+0xcc>)
 8000618:	699b      	ldr	r3, [r3, #24]
 800061a:	4798      	blx	r3
 800061c:	4b1d      	ldr	r3, [pc, #116]	; (8000694 <EXTI9_5_IRQHandler+0xc8>)
 800061e:	695b      	ldr	r3, [r3, #20]
 8000620:	f003 0380 	and.w	r3, r3, #128	; 0x80
 8000624:	2b00      	cmp	r3, #0
 8000626:	d00c      	beq.n	8000642 <EXTI9_5_IRQHandler+0x76>
 8000628:	4b1a      	ldr	r3, [pc, #104]	; (8000694 <EXTI9_5_IRQHandler+0xc8>)
 800062a:	695b      	ldr	r3, [r3, #20]
 800062c:	4a19      	ldr	r2, [pc, #100]	; (8000694 <EXTI9_5_IRQHandler+0xc8>)
 800062e:	f043 0380 	orr.w	r3, r3, #128	; 0x80
 8000632:	6153      	str	r3, [r2, #20]
 8000634:	4b18      	ldr	r3, [pc, #96]	; (8000698 <EXTI9_5_IRQHandler+0xcc>)
 8000636:	69db      	ldr	r3, [r3, #28]
 8000638:	2b00      	cmp	r3, #0
 800063a:	d002      	beq.n	8000642 <EXTI9_5_IRQHandler+0x76>
 800063c:	4b16      	ldr	r3, [pc, #88]	; (8000698 <EXTI9_5_IRQHandler+0xcc>)
 800063e:	69db      	ldr	r3, [r3, #28]
 8000640:	4798      	blx	r3
 8000642:	4b14      	ldr	r3, [pc, #80]	; (8000694 <EXTI9_5_IRQHandler+0xc8>)
 8000644:	695b      	ldr	r3, [r3, #20]
 8000646:	f403 7380 	and.w	r3, r3, #256	; 0x100
 800064a:	2b00      	cmp	r3, #0
 800064c:	d00c      	beq.n	8000668 <EXTI9_5_IRQHandler+0x9c>
 800064e:	4b11      	ldr	r3, [pc, #68]	; (8000694 <EXTI9_5_IRQHandler+0xc8>)
 8000650:	695b      	ldr	r3, [r3, #20]
 8000652:	4a10      	ldr	r2, [pc, #64]	; (8000694 <EXTI9_5_IRQHandler+0xc8>)
 8000654:	f443 7380 	orr.w	r3, r3, #256	; 0x100
 8000658:	6153      	str	r3, [r2, #20]
 800065a:	4b0f      	ldr	r3, [pc, #60]	; (8000698 <EXTI9_5_IRQHandler+0xcc>)
 800065c:	6a1b      	ldr	r3, [r3, #32]
 800065e:	2b00      	cmp	r3, #0
 8000660:	d002      	beq.n	8000668 <EXTI9_5_IRQHandler+0x9c>
 8000662:	4b0d      	ldr	r3, [pc, #52]	; (8000698 <EXTI9_5_IRQHandler+0xcc>)
 8000664:	6a1b      	ldr	r3, [r3, #32]
 8000666:	4798      	blx	r3
 8000668:	4b0a      	ldr	r3, [pc, #40]	; (8000694 <EXTI9_5_IRQHandler+0xc8>)
 800066a:	695b      	ldr	r3, [r3, #20]
 800066c:	f403 7300 	and.w	r3, r3, #512	; 0x200
 8000670:	2b00      	cmp	r3, #0
 8000672:	d00c      	beq.n	800068e <EXTI9_5_IRQHandler+0xc2>
 8000674:	4b07      	ldr	r3, [pc, #28]	; (8000694 <EXTI9_5_IRQHandler+0xc8>)
 8000676:	695b      	ldr	r3, [r3, #20]
 8000678:	4a06      	ldr	r2, [pc, #24]	; (8000694 <EXTI9_5_IRQHandler+0xc8>)
 800067a:	f443 7300 	orr.w	r3, r3, #512	; 0x200
 800067e:	6153      	str	r3, [r2, #20]
 8000680:	4b05      	ldr	r3, [pc, #20]	; (8000698 <EXTI9_5_IRQHandler+0xcc>)
 8000682:	6a5b      	ldr	r3, [r3, #36]	; 0x24
 8000684:	2b00      	cmp	r3, #0
 8000686:	d002      	beq.n	800068e <EXTI9_5_IRQHandler+0xc2>
 8000688:	4b03      	ldr	r3, [pc, #12]	; (8000698 <EXTI9_5_IRQHandler+0xcc>)
 800068a:	6a5b      	ldr	r3, [r3, #36]	; 0x24
 800068c:	4798      	blx	r3
 800068e:	bf00      	nop
 8000690:	bd80      	pop	{r7, pc}
 8000692:	bf00      	nop
 8000694:	40010400 	andmi	r0, r1, r0, lsl #8
 8000698:	2000001c 	andcs	r0, r0, ip, lsl r0

0800069c <EXTI15_10_IRQHandler>:
 800069c:	b580      	push	{r7, lr}
 800069e:	af00      	add	r7, sp, #0
 80006a0:	4b39      	ldr	r3, [pc, #228]	; (8000788 <EXTI15_10_IRQHandler+0xec>)
 80006a2:	695b      	ldr	r3, [r3, #20]
 80006a4:	f403 6380 	and.w	r3, r3, #1024	; 0x400
 80006a8:	2b00      	cmp	r3, #0
 80006aa:	d00c      	beq.n	80006c6 <EXTI15_10_IRQHandler+0x2a>
 80006ac:	4b36      	ldr	r3, [pc, #216]	; (8000788 <EXTI15_10_IRQHandler+0xec>)
 80006ae:	695b      	ldr	r3, [r3, #20]
 80006b0:	4a35      	ldr	r2, [pc, #212]	; (8000788 <EXTI15_10_IRQHandler+0xec>)
 80006b2:	f443 6380 	orr.w	r3, r3, #1024	; 0x400
 80006b6:	6153      	str	r3, [r2, #20]
 80006b8:	4b34      	ldr	r3, [pc, #208]	; (800078c <EXTI15_10_IRQHandler+0xf0>)
 80006ba:	6a9b      	ldr	r3, [r3, #40]	; 0x28
 80006bc:	2b00      	cmp	r3, #0
 80006be:	d002      	beq.n	80006c6 <EXTI15_10_IRQHandler+0x2a>
 80006c0:	4b32      	ldr	r3, [pc, #200]	; (800078c <EXTI15_10_IRQHandler+0xf0>)
 80006c2:	6a9b      	ldr	r3, [r3, #40]	; 0x28
 80006c4:	4798      	blx	r3
 80006c6:	4b30      	ldr	r3, [pc, #192]	; (8000788 <EXTI15_10_IRQHandler+0xec>)
 80006c8:	695b      	ldr	r3, [r3, #20]
 80006ca:	f403 6300 	and.w	r3, r3, #2048	; 0x800
 80006ce:	2b00      	cmp	r3, #0
 80006d0:	d00c      	beq.n	80006ec <EXTI15_10_IRQHandler+0x50>
 80006d2:	4b2d      	ldr	r3, [pc, #180]	; (8000788 <EXTI15_10_IRQHandler+0xec>)
 80006d4:	695b      	ldr	r3, [r3, #20]
 80006d6:	4a2c      	ldr	r2, [pc, #176]	; (8000788 <EXTI15_10_IRQHandler+0xec>)
 80006d8:	f443 6300 	orr.w	r3, r3, #2048	; 0x800
 80006dc:	6153      	str	r3, [r2, #20]
 80006de:	4b2b      	ldr	r3, [pc, #172]	; (800078c <EXTI15_10_IRQHandler+0xf0>)
 80006e0:	6adb      	ldr	r3, [r3, #44]	; 0x2c
 80006e2:	2b00      	cmp	r3, #0
 80006e4:	d002      	beq.n	80006ec <EXTI15_10_IRQHandler+0x50>
 80006e6:	4b29      	ldr	r3, [pc, #164]	; (800078c <EXTI15_10_IRQHandler+0xf0>)
 80006e8:	6adb      	ldr	r3, [r3, #44]	; 0x2c
 80006ea:	4798      	blx	r3
 80006ec:	4b26      	ldr	r3, [pc, #152]	; (8000788 <EXTI15_10_IRQHandler+0xec>)
 80006ee:	695b      	ldr	r3, [r3, #20]
 80006f0:	f403 5380 	and.w	r3, r3, #4096	; 0x1000
 80006f4:	2b00      	cmp	r3, #0
 80006f6:	d00c      	beq.n	8000712 <EXTI15_10_IRQHandler+0x76>
 80006f8:	4b23      	ldr	r3, [pc, #140]	; (8000788 <EXTI15_10_IRQHandler+0xec>)
 80006fa:	695b      	ldr	r3, [r3, #20]
 80006fc:	4a22      	ldr	r2, [pc, #136]	; (8000788 <EXTI15_10_IRQHandler+0xec>)
 80006fe:	f443 5380 	orr.w	r3, r3, #4096	; 0x1000
 8000702:	6153      	str	r3, [r2, #20]
 8000704:	4b21      	ldr	r3, [pc, #132]	; (800078c <EXTI15_10_IRQHandler+0xf0>)
 8000706:	6b1b      	ldr	r3, [r3, #48]	; 0x30
 8000708:	2b00      	cmp	r3, #0
 800070a:	d002      	beq.n	8000712 <EXTI15_10_IRQHandler+0x76>
 800070c:	4b1f      	ldr	r3, [pc, #124]	; (800078c <EXTI15_10_IRQHandler+0xf0>)
 800070e:	6b1b      	ldr	r3, [r3, #48]	; 0x30
 8000710:	4798      	blx	r3
 8000712:	4b1d      	ldr	r3, [pc, #116]	; (8000788 <EXTI15_10_IRQHandler+0xec>)
 8000714:	695b      	ldr	r3, [r3, #20]
 8000716:	f403 5300 	and.w	r3, r3, #8192	; 0x2000
 800071a:	2b00      	cmp	r3, #0
 800071c:	d00c      	beq.n	8000738 <EXTI15_10_IRQHandler+0x9c>
 800071e:	4b1a      	ldr	r3, [pc, #104]	; (8000788 <EXTI15_10_IRQHandler+0xec>)
 8000720:	695b      	ldr	r3, [r3, #20]
 8000722:	4a19      	ldr	r2, [pc, #100]	; (8000788 <EXTI15_10_IRQHandler+0xec>)
 8000724:	f443 5300 	orr.w	r3, r3, #8192	; 0x2000
 8000728:	6153      	str	r3, [r2, #20]
 800072a:	4b18      	ldr	r3, [pc, #96]	; (800078c <EXTI15_10_IRQHandler+0xf0>)
 800072c:	6b5b      	ldr	r3, [r3, #52]	; 0x34
 800072e:	2b00      	cmp	r3, #0
 8000730:	d002      	beq.n	8000738 <EXTI15_10_IRQHandler+0x9c>
 8000732:	4b16      	ldr	r3, [pc, #88]	; (800078c <EXTI15_10_IRQHandler+0xf0>)
 8000734:	6b5b      	ldr	r3, [r3, #52]	; 0x34
 8000736:	4798      	blx	r3
 8000738:	4b13      	ldr	r3, [pc, #76]	; (8000788 <EXTI15_10_IRQHandler+0xec>)
 800073a:	695b      	ldr	r3, [r3, #20]
 800073c:	f403 4380 	and.w	r3, r3, #16384	; 0x4000
 8000740:	2b00      	cmp	r3, #0
 8000742:	d00c      	beq.n	800075e <EXTI15_10_IRQHandler+0xc2>
 8000744:	4b10      	ldr	r3, [pc, #64]	; (8000788 <EXTI15_10_IRQHandler+0xec>)
 8000746:	695b      	ldr	r3, [r3, #20]
 8000748:	4a0f      	ldr	r2, [pc, #60]	; (8000788 <EXTI15_10_IRQHandler+0xec>)
 800074a:	f443 4380 	orr.w	r3, r3, #16384	; 0x4000
 800074e:	6153      	str	r3, [r2, #20]
 8000750:	4b0e      	ldr	r3, [pc, #56]	; (800078c <EXTI15_10_IRQHandler+0xf0>)
 8000752:	6b9b      	ldr	r3, [r3, #56]	; 0x38
 8000754:	2b00      	cmp	r3, #0
 8000756:	d002      	beq.n	800075e <EXTI15_10_IRQHandler+0xc2>
 8000758:	4b0c      	ldr	r3, [pc, #48]	; (800078c <EXTI15_10_IRQHandler+0xf0>)
 800075a:	6b9b      	ldr	r3, [r3, #56]	; 0x38
 800075c:	4798      	blx	r3
 800075e:	4b0a      	ldr	r3, [pc, #40]	; (8000788 <EXTI15_10_IRQHandler+0xec>)
 8000760:	695b      	ldr	r3, [r3, #20]
 8000762:	f403 4300 	and.w	r3, r3, #32768	; 0x8000
 8000766:	2b00      	cmp	r3, #0
 8000768:	d00c      	beq.n	8000784 <EXTI15_10_IRQHandler+0xe8>
 800076a:	4b07      	ldr	r3, [pc, #28]	; (8000788 <EXTI15_10_IRQHandler+0xec>)
 800076c:	695b      	ldr	r3, [r3, #20]
 800076e:	4a06      	ldr	r2, [pc, #24]	; (8000788 <EXTI15_10_IRQHandler+0xec>)
 8000770:	f443 4300 	orr.w	r3, r3, #32768	; 0x8000
 8000774:	6153      	str	r3, [r2, #20]
 8000776:	4b05      	ldr	r3, [pc, #20]	; (800078c <EXTI15_10_IRQHandler+0xf0>)
 8000778:	6bdb      	ldr	r3, [r3, #60]	; 0x3c
 800077a:	2b00      	cmp	r3, #0
 800077c:	d002      	beq.n	8000784 <EXTI15_10_IRQHandler+0xe8>
 800077e:	4b03      	ldr	r3, [pc, #12]	; (800078c <EXTI15_10_IRQHandler+0xf0>)
 8000780:	6bdb      	ldr	r3, [r3, #60]	; 0x3c
 8000782:	4798      	blx	r3
 8000784:	bf00      	nop
 8000786:	bd80      	pop	{r7, pc}
 8000788:	40010400 	andmi	r0, r1, r0, lsl #8
 800078c:	2000001c 	andcs	r0, r0, ip, lsl r0

08000790 <GetConfigBit>:
 8000790:	b480      	push	{r7}
 8000792:	b083      	sub	sp, #12
 8000794:	af00      	add	r7, sp, #0
 8000796:	4603      	mov	r3, r0
 8000798:	71fb      	strb	r3, [r7, #7]
 800079a:	79fb      	ldrb	r3, [r7, #7]
 800079c:	2b0f      	cmp	r3, #15
 800079e:	d843      	bhi.n	8000828 <GetConfigBit+0x98>
 80007a0:	a201      	add	r2, pc, #4	; (adr r2, 80007a8 <GetConfigBit+0x18>)
 80007a2:	f852 f023 	ldr.w	pc, [r2, r3, lsl #2]
 80007a6:	bf00      	nop
 80007a8:	080007e9 	stmdaeq	r0, {r0, r3, r5, r6, r7, r8, r9, sl}
 80007ac:	080007ed 	stmdaeq	r0, {r0, r2, r3, r5, r6, r7, r8, r9, sl}
 80007b0:	080007f1 	stmdaeq	r0, {r0, r4, r5, r6, r7, r8, r9, sl}
 80007b4:	080007f5 	stmdaeq	r0, {r0, r2, r4, r5, r6, r7, r8, r9, sl}
 80007b8:	080007f9 	stmdaeq	r0, {r0, r3, r4, r5, r6, r7, r8, r9, sl}
 80007bc:	080007fd 	stmdaeq	r0, {r0, r2, r3, r4, r5, r6, r7, r8, r9, sl}
 80007c0:	08000801 	stmdaeq	r0, {r0, fp}
 80007c4:	08000805 	stmdaeq	r0, {r0, r2, fp}
 80007c8:	08000809 	stmdaeq	r0, {r0, r3, fp}
 80007cc:	0800080d 	stmdaeq	r0, {r0, r2, r3, fp}
 80007d0:	08000811 	stmdaeq	r0, {r0, r4, fp}
 80007d4:	08000815 	stmdaeq	r0, {r0, r2, r4, fp}
 80007d8:	08000819 	stmdaeq	r0, {r0, r3, r4, fp}
 80007dc:	0800081d 	stmdaeq	r0, {r0, r2, r3, r4, fp}
 80007e0:	08000821 	stmdaeq	r0, {r0, r5, fp}
 80007e4:	08000825 	stmdaeq	r0, {r0, r2, r5, fp}
 80007e8:	2300      	movs	r3, #0
 80007ea:	e01e      	b.n	800082a <GetConfigBit+0x9a>
 80007ec:	2304      	movs	r3, #4
 80007ee:	e01c      	b.n	800082a <GetConfigBit+0x9a>
 80007f0:	2308      	movs	r3, #8
 80007f2:	e01a      	b.n	800082a <GetConfigBit+0x9a>
 80007f4:	230c      	movs	r3, #12
 80007f6:	e018      	b.n	800082a <GetConfigBit+0x9a>
 80007f8:	2310      	movs	r3, #16
 80007fa:	e016      	b.n	800082a <GetConfigBit+0x9a>
 80007fc:	2314      	movs	r3, #20
 80007fe:	e014      	b.n	800082a <GetConfigBit+0x9a>
 8000800:	2318      	movs	r3, #24
 8000802:	e012      	b.n	800082a <GetConfigBit+0x9a>
 8000804:	231c      	movs	r3, #28
 8000806:	e010      	b.n	800082a <GetConfigBit+0x9a>
 8000808:	2300      	movs	r3, #0
 800080a:	e00e      	b.n	800082a <GetConfigBit+0x9a>
 800080c:	2304      	movs	r3, #4
 800080e:	e00c      	b.n	800082a <GetConfigBit+0x9a>
 8000810:	2308      	movs	r3, #8
 8000812:	e00a      	b.n	800082a <GetConfigBit+0x9a>
 8000814:	230c      	movs	r3, #12
 8000816:	e008      	b.n	800082a <GetConfigBit+0x9a>
 8000818:	2310      	movs	r3, #16
 800081a:	e006      	b.n	800082a <GetConfigBit+0x9a>
 800081c:	2314      	movs	r3, #20
 800081e:	e004      	b.n	800082a <GetConfigBit+0x9a>
 8000820:	2318      	movs	r3, #24
 8000822:	e002      	b.n	800082a <GetConfigBit+0x9a>
 8000824:	231c      	movs	r3, #28
 8000826:	e000      	b.n	800082a <GetConfigBit+0x9a>
 8000828:	2300      	movs	r3, #0
 800082a:	4618      	mov	r0, r3
 800082c:	370c      	adds	r7, #12
 800082e:	46bd      	mov	sp, r7
 8000830:	bc80      	pop	{r7}
 8000832:	4770      	bx	lr

08000834 <MCAL_GPIO_SetPinMode>:
 8000834:	b590      	push	{r4, r7, lr}
 8000836:	b085      	sub	sp, #20
 8000838:	af00      	add	r7, sp, #0
 800083a:	6078      	str	r0, [r7, #4]
 800083c:	460b      	mov	r3, r1
 800083e:	70fb      	strb	r3, [r7, #3]
 8000840:	4613      	mov	r3, r2
 8000842:	70bb      	strb	r3, [r7, #2]
 8000844:	2300      	movs	r3, #0
 8000846:	60fb      	str	r3, [r7, #12]
 8000848:	78fb      	ldrb	r3, [r7, #3]
 800084a:	2b07      	cmp	r3, #7
 800084c:	d801      	bhi.n	8000852 <MCAL_GPIO_SetPinMode+0x1e>
 800084e:	687b      	ldr	r3, [r7, #4]
 8000850:	e001      	b.n	8000856 <MCAL_GPIO_SetPinMode+0x22>
 8000852:	687b      	ldr	r3, [r7, #4]
 8000854:	3304      	adds	r3, #4
 8000856:	60fb      	str	r3, [r7, #12]
 8000858:	78fb      	ldrb	r3, [r7, #3]
 800085a:	4618      	mov	r0, r3
 800085c:	f7ff ff98 	bl	8000790 <GetConfigBit>
 8000860:	4603      	mov	r3, r0
 8000862:	461a      	mov	r2, r3
 8000864:	230f      	movs	r3, #15
 8000866:	4093      	lsls	r3, r2
 8000868:	43da      	mvns	r2, r3
 800086a:	68fb      	ldr	r3, [r7, #12]
 800086c:	681b      	ldr	r3, [r3, #0]
 800086e:	401a      	ands	r2, r3
 8000870:	68fb      	ldr	r3, [r7, #12]
 8000872:	601a      	str	r2, [r3, #0]
 8000874:	78bc      	ldrb	r4, [r7, #2]
 8000876:	78fb      	ldrb	r3, [r7, #3]
 8000878:	4618      	mov	r0, r3
 800087a:	f7ff ff89 	bl	8000790 <GetConfigBit>
 800087e:	4603      	mov	r3, r0
 8000880:	fa04 f203 	lsl.w	r2, r4, r3
 8000884:	68fb      	ldr	r3, [r7, #12]
 8000886:	681b      	ldr	r3, [r3, #0]
 8000888:	431a      	orrs	r2, r3
 800088a:	68fb      	ldr	r3, [r7, #12]
 800088c:	601a      	str	r2, [r3, #0]
 800088e:	78bb      	ldrb	r3, [r7, #2]
 8000890:	2b08      	cmp	r3, #8
 8000892:	d108      	bne.n	80008a6 <MCAL_GPIO_SetPinMode+0x72>
 8000894:	687b      	ldr	r3, [r7, #4]
 8000896:	68db      	ldr	r3, [r3, #12]
 8000898:	78fa      	ldrb	r2, [r7, #3]
 800089a:	2101      	movs	r1, #1
 800089c:	fa01 f202 	lsl.w	r2, r1, r2
 80008a0:	431a      	orrs	r2, r3
 80008a2:	687b      	ldr	r3, [r7, #4]
 80008a4:	60da      	str	r2, [r3, #12]
 80008a6:	bf00      	nop
 80008a8:	3714      	adds	r7, #20
 80008aa:	46bd      	mov	sp, r7
 80008ac:	bd90      	pop	{r4, r7, pc}
	...

080008b0 <USART1_IRQHandler>:
 80008b0:	b580      	push	{r7, lr}
 80008b2:	af00      	add	r7, sp, #0
 80008b4:	4b02      	ldr	r3, [pc, #8]	; (80008c0 <USART1_IRQHandler+0x10>)
 80008b6:	681b      	ldr	r3, [r3, #0]
 80008b8:	691b      	ldr	r3, [r3, #16]
 80008ba:	4798      	blx	r3
 80008bc:	bf00      	nop
 80008be:	bd80      	pop	{r7, pc}
 80008c0:	2000005c 	andcs	r0, r0, ip, asr r0

080008c4 <USART2_IRQHandler>:
 80008c4:	b580      	push	{r7, lr}
 80008c6:	af00      	add	r7, sp, #0
 80008c8:	4b02      	ldr	r3, [pc, #8]	; (80008d4 <USART2_IRQHandler+0x10>)
 80008ca:	685b      	ldr	r3, [r3, #4]
 80008cc:	691b      	ldr	r3, [r3, #16]
 80008ce:	4798      	blx	r3
 80008d0:	bf00      	nop
 80008d2:	bd80      	pop	{r7, pc}
 80008d4:	2000005c 	andcs	r0, r0, ip, asr r0

080008d8 <USART3_IRQHandler>:
 80008d8:	b580      	push	{r7, lr}
 80008da:	af00      	add	r7, sp, #0
 80008dc:	4b02      	ldr	r3, [pc, #8]	; (80008e8 <USART3_IRQHandler+0x10>)
 80008de:	689b      	ldr	r3, [r3, #8]
 80008e0:	691b      	ldr	r3, [r3, #16]
 80008e2:	4798      	blx	r3
 80008e4:	bf00      	nop
 80008e6:	bd80      	pop	{r7, pc}
 80008e8:	2000005c 	andcs	r0, r0, ip, asr r0

080008ec <clock_init>:
 80008ec:	b480      	push	{r7}
 80008ee:	af00      	add	r7, sp, #0
 80008f0:	4b0a      	ldr	r3, [pc, #40]	; (800091c <clock_init+0x30>)
 80008f2:	699b      	ldr	r3, [r3, #24]
 80008f4:	4a09      	ldr	r2, [pc, #36]	; (800091c <clock_init+0x30>)
 80008f6:	f043 0304 	orr.w	r3, r3, #4
 80008fa:	6193      	str	r3, [r2, #24]
 80008fc:	4b07      	ldr	r3, [pc, #28]	; (800091c <clock_init+0x30>)
 80008fe:	699b      	ldr	r3, [r3, #24]
 8000900:	4a06      	ldr	r2, [pc, #24]	; (800091c <clock_init+0x30>)
 8000902:	f043 0308 	orr.w	r3, r3, #8
 8000906:	6193      	str	r3, [r2, #24]
 8000908:	4b04      	ldr	r3, [pc, #16]	; (800091c <clock_init+0x30>)
 800090a:	699b      	ldr	r3, [r3, #24]
 800090c:	4a03      	ldr	r2, [pc, #12]	; (800091c <clock_init+0x30>)
 800090e:	f043 0301 	orr.w	r3, r3, #1
 8000912:	6193      	str	r3, [r2, #24]
 8000914:	bf00      	nop
 8000916:	46bd      	mov	sp, r7
 8000918:	bc80      	pop	{r7}
 800091a:	4770      	bx	lr
 800091c:	40021000 	andmi	r1, r2, r0

08000920 <EXTIB9_CallBack>:
 8000920:	b480      	push	{r7}
 8000922:	af00      	add	r7, sp, #0
 8000924:	4b08      	ldr	r3, [pc, #32]	; (8000948 <EXTIB9_CallBack+0x28>)
 8000926:	2201      	movs	r2, #1
 8000928:	701a      	strb	r2, [r3, #0]
 800092a:	bf00      	nop
 800092c:	bf00      	nop
 800092e:	bf00      	nop
 8000930:	f3ef 8305 	mrs	r3, IPSR
 8000934:	4a05      	ldr	r2, [pc, #20]	; (800094c <EXTIB9_CallBack+0x2c>)
 8000936:	7013      	strb	r3, [r2, #0]
 8000938:	bf00      	nop
 800093a:	bf00      	nop
 800093c:	bf00      	nop
 800093e:	bf00      	nop
 8000940:	46bd      	mov	sp, r7
 8000942:	bc80      	pop	{r7}
 8000944:	4770      	bx	lr
 8000946:	bf00      	nop
 8000948:	20000068 	andcs	r0, r0, r8, rrx
 800094c:	2000006a 	andcs	r0, r0, sl, rrx

08000950 <main>:
 8000950:	b580      	push	{r7, lr}
 8000952:	b088      	sub	sp, #32
 8000954:	af00      	add	r7, sp, #0
 8000956:	f7ff ffc9 	bl	80008ec <clock_init>
 800095a:	4a13      	ldr	r2, [pc, #76]	; (80009a8 <main+0x58>)
 800095c:	f107 030c 	add.w	r3, r7, #12
 8000960:	ca07      	ldmia	r2, {r0, r1, r2}
 8000962:	e883 0007 	stmia.w	r3, {r0, r1, r2}
 8000966:	2300      	movs	r3, #0
 8000968:	763b      	strb	r3, [r7, #24]
 800096a:	4b10      	ldr	r3, [pc, #64]	; (80009ac <main+0x5c>)
 800096c:	61fb      	str	r3, [r7, #28]
 800096e:	2301      	movs	r3, #1
 8000970:	767b      	strb	r3, [r7, #25]
 8000972:	f107 030c 	add.w	r3, r7, #12
 8000976:	4618      	mov	r0, r3
 8000978:	f7ff fdae 	bl	80004d8 <MCAL_EXTI_GPIO_Init>
 800097c:	4b0c      	ldr	r3, [pc, #48]	; (80009b0 <main+0x60>)
 800097e:	2201      	movs	r2, #1
 8000980:	701a      	strb	r2, [r3, #0]
 8000982:	bf00      	nop
 8000984:	bf00      	nop
 8000986:	bf00      	nop
 8000988:	f3ef 8314 	mrs	r3, CONTROL
 800098c:	4a09      	ldr	r2, [pc, #36]	; (80009b4 <main+0x64>)
 800098e:	7013      	strb	r3, [r2, #0]
 8000990:	bf00      	nop
 8000992:	bf00      	nop
 8000994:	bf00      	nop
 8000996:	4b06      	ldr	r3, [pc, #24]	; (80009b0 <main+0x60>)
 8000998:	781b      	ldrb	r3, [r3, #0]
 800099a:	2b00      	cmp	r3, #0
 800099c:	d0fb      	beq.n	8000996 <main+0x46>
 800099e:	4b04      	ldr	r3, [pc, #16]	; (80009b0 <main+0x60>)
 80009a0:	2200      	movs	r2, #0
 80009a2:	701a      	strb	r2, [r3, #0]
 80009a4:	e7f7      	b.n	8000996 <main+0x46>
 80009a6:	bf00      	nop
 80009a8:	08000a6c 	stmdaeq	r0, {r2, r3, r5, r6, r9, fp}
 80009ac:	08000921 	stmdaeq	r0, {r0, r5, r8, fp}
 80009b0:	20000068 	andcs	r0, r0, r8, rrx
 80009b4:	20000069 	andcs	r0, r0, r9, rrx

080009b8 <Reset_Handler>:
 80009b8:	480d      	ldr	r0, [pc, #52]	; (80009f0 <LoopForever+0x2>)
 80009ba:	4685      	mov	sp, r0
 80009bc:	f3af 8000 	nop.w
 80009c0:	480c      	ldr	r0, [pc, #48]	; (80009f4 <LoopForever+0x6>)
 80009c2:	490d      	ldr	r1, [pc, #52]	; (80009f8 <LoopForever+0xa>)
 80009c4:	4a0d      	ldr	r2, [pc, #52]	; (80009fc <LoopForever+0xe>)
 80009c6:	2300      	movs	r3, #0
 80009c8:	e002      	b.n	80009d0 <LoopCopyDataInit>

080009ca <CopyDataInit>:
 80009ca:	58d4      	ldr	r4, [r2, r3]
 80009cc:	50c4      	str	r4, [r0, r3]
 80009ce:	3304      	adds	r3, #4

080009d0 <LoopCopyDataInit>:
 80009d0:	18c4      	adds	r4, r0, r3
 80009d2:	428c      	cmp	r4, r1
 80009d4:	d3f9      	bcc.n	80009ca <CopyDataInit>
 80009d6:	4a0a      	ldr	r2, [pc, #40]	; (8000a00 <LoopForever+0x12>)
 80009d8:	4c0a      	ldr	r4, [pc, #40]	; (8000a04 <LoopForever+0x16>)
 80009da:	2300      	movs	r3, #0
 80009dc:	e001      	b.n	80009e2 <LoopFillZerobss>

080009de <FillZerobss>:
 80009de:	6013      	str	r3, [r2, #0]
 80009e0:	3204      	adds	r2, #4

080009e2 <LoopFillZerobss>:
 80009e2:	42a2      	cmp	r2, r4
 80009e4:	d3fb      	bcc.n	80009de <FillZerobss>
 80009e6:	f000 f811 	bl	8000a0c <__libc_init_array>
 80009ea:	f7ff ffb1 	bl	8000950 <main>

080009ee <LoopForever>:
 80009ee:	e7fe      	b.n	80009ee <LoopForever>
 80009f0:	20002800 	andcs	r2, r0, r0, lsl #16
 80009f4:	20000000 	andcs	r0, r0, r0
 80009f8:	20000000 	andcs	r0, r0, r0
 80009fc:	08000a80 	stmdaeq	r0, {r7, r9, fp}
 8000a00:	20000000 	andcs	r0, r0, r0
 8000a04:	2000006c 	andcs	r0, r0, ip, rrx

08000a08 <ADC1_2_IRQHandler>:
 8000a08:	e7fe      	b.n	8000a08 <ADC1_2_IRQHandler>
	...

08000a0c <__libc_init_array>:
 8000a0c:	b570      	push	{r4, r5, r6, lr}
 8000a0e:	2600      	movs	r6, #0
 8000a10:	4d0c      	ldr	r5, [pc, #48]	; (8000a44 <__libc_init_array+0x38>)
 8000a12:	4c0d      	ldr	r4, [pc, #52]	; (8000a48 <__libc_init_array+0x3c>)
 8000a14:	1b64      	subs	r4, r4, r5
 8000a16:	10a4      	asrs	r4, r4, #2
 8000a18:	42a6      	cmp	r6, r4
 8000a1a:	d109      	bne.n	8000a30 <__libc_init_array+0x24>
 8000a1c:	f000 f81a 	bl	8000a54 <_init>
 8000a20:	2600      	movs	r6, #0
 8000a22:	4d0a      	ldr	r5, [pc, #40]	; (8000a4c <__libc_init_array+0x40>)
 8000a24:	4c0a      	ldr	r4, [pc, #40]	; (8000a50 <__libc_init_array+0x44>)
 8000a26:	1b64      	subs	r4, r4, r5
 8000a28:	10a4      	asrs	r4, r4, #2
 8000a2a:	42a6      	cmp	r6, r4
 8000a2c:	d105      	bne.n	8000a3a <__libc_init_array+0x2e>
 8000a2e:	bd70      	pop	{r4, r5, r6, pc}
 8000a30:	f855 3b04 	ldr.w	r3, [r5], #4
 8000a34:	4798      	blx	r3
 8000a36:	3601      	adds	r6, #1
 8000a38:	e7ee      	b.n	8000a18 <__libc_init_array+0xc>
 8000a3a:	f855 3b04 	ldr.w	r3, [r5], #4
 8000a3e:	4798      	blx	r3
 8000a40:	3601      	adds	r6, #1
 8000a42:	e7f2      	b.n	8000a2a <__libc_init_array+0x1e>
 8000a44:	08000a78 	stmdaeq	r0, {r3, r4, r5, r6, r9, fp}
 8000a48:	08000a78 	stmdaeq	r0, {r3, r4, r5, r6, r9, fp}
 8000a4c:	08000a78 	stmdaeq	r0, {r3, r4, r5, r6, r9, fp}
 8000a50:	08000a7c 	stmdaeq	r0, {r2, r3, r4, r5, r6, r9, fp}

08000a54 <_init>:
 8000a54:	b5f8      	push	{r3, r4, r5, r6, r7, lr}
 8000a56:	bf00      	nop
 8000a58:	bcf8      	pop	{r3, r4, r5, r6, r7}
 8000a5a:	bc08      	pop	{r3}
 8000a5c:	469e      	mov	lr, r3
 8000a5e:	4770      	bx	lr

08000a60 <_fini>:
 8000a60:	b5f8      	push	{r3, r4, r5, r6, r7, lr}
 8000a62:	bf00      	nop
 8000a64:	bcf8      	pop	{r3, r4, r5, r6, r7}
 8000a66:	bc08      	pop	{r3}
 8000a68:	469e      	mov	lr, r3
 8000a6a:	4770      	bx	lr

Disassembly of section .rodata:

08000a6c <.rodata>:
 8000a6c:	00000009 	andeq	r0, r0, r9
 8000a70:	40010c00 	andmi	r0, r1, r0, lsl #24
 8000a74:	00000009 	andeq	r0, r0, r9

Disassembly of section .init_array:

08000a78 <__frame_dummy_init_array_entry>:
 8000a78:	08000155 	stmdaeq	r0, {r0, r2, r4, r6, r8}

Disassembly of section .fini_array:

08000a7c <__do_global_dtors_aux_fini_array_entry>:
 8000a7c:	08000131 	stmdaeq	r0, {r0, r4, r5, r8}

Disassembly of section .bss:

20000000 <__bss_start__>:
20000000:	00000000 	andeq	r0, r0, r0

20000004 <object.0>:
	...

2000001c <GP_IRQ_CallBackFunc>:
	...

2000005c <Global_USART_Configuration>:
	...

20000068 <IRQ_Flag>:
	...

20000069 <Control_Reg>:
	...

2000006a <IPSR_Reg>:
	...

Disassembly of section ._user_heap_stack:

2000006c <_end-0x4>:
2000006c:	00000000 	andeq	r0, r0, r0

20000070 <_end>:
	...

Disassembly of section .ARM.attributes:

00000000 <.ARM.attributes>:
   0:	00002841 	andeq	r2, r0, r1, asr #16
   4:	61656100 	cmnvs	r5, r0, lsl #2
   8:	01006962 	tsteq	r0, r2, ror #18
   c:	0000001e 	andeq	r0, r0, lr, lsl r0
  10:	4d2d3705 	stcmi	7, cr3, [sp, #-20]!	; 0xffffffec
  14:	070a0600 	streq	r0, [sl, -r0, lsl #12]
  18:	1202094d 	andne	r0, r2, #1261568	; 0x134000
  1c:	15011404 	strne	r1, [r1, #-1028]	; 0xfffffbfc
  20:	18031701 	stmdane	r3, {r0, r8, r9, sl, ip}
  24:	22011a01 	andcs	r1, r1, #4096	; 0x1000
  28:	Address 0x0000000000000028 is out of bounds.


Disassembly of section .comment:

00000000 <.comment>:
   0:	3a434347 	bcc	10d0d24 <_Min_Stack_Size+0x10d0924>
   4:	4e472820 	cdpmi	8, 4, cr2, cr7, cr0, {1}
   8:	6f542055 	svcvs	0x00542055
   c:	20736c6f 	rsbscs	r6, r3, pc, ror #24
  10:	20726f66 	rsbscs	r6, r2, r6, ror #30
  14:	334d5453 	movtcc	r5, #54355	; 0xd453
  18:	31312032 	teqcc	r1, r2, lsr r0
  1c:	722e332e 	eorvc	r3, lr, #-1207959552	; 0xb8000000
  20:	2e316c65 	cdpcs	12, 3, cr6, cr1, cr5, {3}
  24:	33323032 	teqcc	r2, #50	; 0x32
  28:	32313930 	eorscc	r3, r1, #48, 18	; 0xc0000
  2c:	3036312d 	eorscc	r3, r6, sp, lsr #2
  30:	31202930 			; <UNDEFINED> instruction: 0x31202930
  34:	2e332e31 	mrccs	14, 1, r2, cr3, cr1, {1}
  38:	30322031 	eorscc	r2, r2, r1, lsr r0
  3c:	37303232 			; <UNDEFINED> instruction: 0x37303232
  40:	Address 0x0000000000000040 is out of bounds.


Disassembly of section .debug_info:

00000000 <.debug_info>:
       0:	0000048b 	andeq	r0, r0, fp, lsl #9
       4:	00000002 	andeq	r0, r0, r2
       8:	01040000 	mrseq	r0, (UNDEF: 4)
       c:	00000edd 	ldrdeq	r0, [r0], -sp
      10:	0029aa0c 	eoreq	sl, r9, ip, lsl #20
      14:	00271700 	eoreq	r1, r7, r0, lsl #14
	...
      2c:	02010200 	andeq	r0, r1, #0, 4
      30:	000017d8 	ldrdeq	r1, [r0], -r8
      34:	af080102 	svcge	0x00080102
      38:	02000037 	andeq	r0, r0, #55	; 0x37
      3c:	42620702 	rsbmi	r0, r2, #524288	; 0x80000
      40:	08030000 	stmdaeq	r3, {}	; <UNPREDICTABLE>
      44:	02000001 	andeq	r0, r0, #1
      48:	00552208 	subseq	r2, r5, r8, lsl #4
      4c:	04020000 	streq	r0, [r2], #-0
      50:	003c9d07 	eorseq	r9, ip, r7, lsl #26
      54:	004e0400 	subeq	r0, lr, r0, lsl #8
      58:	04020000 	streq	r0, [r2], #-0
      5c:	0011e707 	andseq	lr, r1, r7, lsl #14
      60:	06010200 	streq	r0, [r1], -r0, lsl #4
      64:	000005c5 	andeq	r0, r0, r5, asr #11
      68:	ce050202 	cdpgt	2, 0, cr0, cr5, cr2, {0}
      6c:	05000006 	streq	r0, [r0, #-6]
      70:	6e690504 	cdpvs	5, 6, cr0, cr9, cr4, {0}
      74:	04020074 	streq	r0, [r2], #-116	; 0xffffff8c
      78:	00445605 	subeq	r5, r4, r5, lsl #12
      7c:	13950300 	orrsne	r0, r5, #0, 6
      80:	11020000 	mrsne	r0, (UNDEF: 2)
      84:	00003422 	andeq	r3, r0, r2, lsr #8
      88:	04040200 	streq	r0, [r4], #-512	; 0xfffffe00
      8c:	00008718 	andeq	r8, r0, r8, lsl r7
      90:	47040802 	strmi	r0, [r4, -r2, lsl #16]
      94:	06000076 			; <UNDEFINED> instruction: 0x06000076
      98:	0950031c 	ldmdbeq	r0, {r2, r3, r4, r8, r9}^
      9c:	0000010a 	andeq	r0, r0, sl, lsl #2
      a0:	4c524307 	mrrcmi	3, 0, r4, r2, cr7
      a4:	0c520300 	mrrceq	3, 0, r0, r2, cr0
      a8:	00000042 	andeq	r0, r0, r2, asr #32
      ac:	07002302 	streq	r2, [r0, -r2, lsl #6]
      b0:	00485243 	subeq	r5, r8, r3, asr #4
      b4:	420c5303 	andmi	r5, ip, #201326592	; 0xc000000
      b8:	02000000 	andeq	r0, r0, #0
      bc:	49070423 	stmdbmi	r7, {r0, r1, r5, sl}
      c0:	03005244 	movweq	r5, #580	; 0x244
      c4:	00420c54 	subeq	r0, r2, r4, asr ip
      c8:	23020000 	movwcs	r0, #8192	; 0x2000
      cc:	444f0708 	strbmi	r0, [pc], #-1800	; d4 <_Min_Heap_Size-0x12c>
      d0:	55030052 	strpl	r0, [r3, #-82]	; 0xffffffae
      d4:	0000420c 	andeq	r4, r0, ip, lsl #4
      d8:	0c230200 	sfmeq	f0, 4, [r3], #-0
      dc:	004de908 	subeq	lr, sp, r8, lsl #18
      e0:	0c560300 	mrrceq	3, 0, r0, r6, cr0
      e4:	00000042 	andeq	r0, r0, r2, asr #32
      e8:	07102302 	ldreq	r2, [r0, -r2, lsl #6]
      ec:	00525242 	subseq	r5, r2, r2, asr #4
      f0:	420c5703 	andmi	r5, ip, #786432	; 0xc0000
      f4:	02000000 	andeq	r0, r0, #0
      f8:	29081423 	stmdbcs	r8, {r0, r1, r5, sl, ip}
      fc:	0300002b 	movweq	r0, #43	; 0x2b
     100:	00420c58 	subeq	r0, r2, r8, asr ip
     104:	23020000 	movwcs	r0, #8192	; 0x2000
     108:	d3030018 	movwle	r0, #12312	; 0x3018
     10c:	03000007 	movweq	r0, #7
     110:	00970259 	addseq	r0, r7, r9, asr r2
     114:	20060000 	andcs	r0, r6, r0
     118:	6b095c03 	blvs	25712c <_Min_Stack_Size+0x256d2c>
     11c:	08000001 	stmdaeq	r0, {r0}
     120:	00002d23 	andeq	r2, r0, r3, lsr #26
     124:	420c5e03 	andmi	r5, ip, #3, 28	; 0x30
     128:	02000000 	andeq	r0, r0, #0
     12c:	f9080023 			; <UNDEFINED> instruction: 0xf9080023
     130:	03000042 	movweq	r0, #66	; 0x42
     134:	00420c5f 	subeq	r0, r2, pc, asr ip
     138:	23020000 	movwcs	r0, #8192	; 0x2000
     13c:	01470804 	cmpeq	r7, r4, lsl #16
     140:	60030000 	andvs	r0, r3, r0
     144:	00017b0c 	andeq	r7, r1, ip, lsl #22
     148:	08230200 	stmdaeq	r3!, {r9}
     14c:	00152b08 	andseq	r2, r5, r8, lsl #22
     150:	0c610300 	stcleq	3, cr0, [r1], #-0
     154:	00000042 	andeq	r0, r0, r2, asr #32
     158:	08182302 	ldmdaeq	r8, {r1, r8, r9, sp}
     15c:	00001c9d 	muleq	r0, sp, ip
     160:	420c6203 	andmi	r6, ip, #805306368	; 0x30000000
     164:	02000000 	andeq	r0, r0, #0
     168:	09001c23 	stmdbeq	r0, {r0, r1, r5, sl, fp, ip}
     16c:	00000042 	andeq	r0, r0, r2, asr #32
     170:	0000017b 	andeq	r0, r0, fp, ror r1
     174:	00004e0a 	andeq	r4, r0, sl, lsl #28
     178:	04000300 	streq	r0, [r0], #-768	; 0xfffffd00
     17c:	0000016b 	andeq	r0, r0, fp, ror #2
     180:	001ad203 	andseq	sp, sl, r3, lsl #4
     184:	02630300 	rsbeq	r0, r3, #0, 6
     188:	00000116 	andeq	r0, r0, r6, lsl r1
     18c:	66031806 	strvs	r1, [r3], -r6, lsl #16
     190:	0001ef09 	andeq	lr, r1, r9, lsl #30
     194:	4d490700 	stclmi	7, cr0, [r9, #-0]
     198:	68030052 	stmdavs	r3, {r1, r4, r6}
     19c:	0000420c 	andeq	r4, r0, ip, lsl #4
     1a0:	00230200 	eoreq	r0, r3, r0, lsl #4
     1a4:	524d4507 	subpl	r4, sp, #29360128	; 0x1c00000
     1a8:	0c690300 	stcleq	3, cr0, [r9], #-0
     1ac:	00000042 	andeq	r0, r0, r2, asr #32
     1b0:	08042302 	stmdaeq	r4, {r1, r8, r9, sp}
     1b4:	00001187 	andeq	r1, r0, r7, lsl #3
     1b8:	420c6a03 	andmi	r6, ip, #12288	; 0x3000
     1bc:	02000000 	andeq	r0, r0, #0
     1c0:	0c080823 	stceq	8, cr0, [r8], {35}	; 0x23
     1c4:	03000008 	movweq	r0, #8
     1c8:	00420c6b 	subeq	r0, r2, fp, ror #24
     1cc:	23020000 	movwcs	r0, #8192	; 0x2000
     1d0:	31c9080c 	biccc	r0, r9, ip, lsl #16
     1d4:	6c030000 	stcvs	0, cr0, [r3], {-0}
     1d8:	0000420c 	andeq	r4, r0, ip, lsl #4
     1dc:	10230200 	eorne	r0, r3, r0, lsl #4
     1e0:	00525007 	subseq	r5, r2, r7
     1e4:	420c6d03 	andmi	r6, ip, #3, 26	; 0xc0
     1e8:	02000000 	andeq	r0, r0, #0
     1ec:	03001423 	movweq	r1, #1059	; 0x423
     1f0:	000056d2 	ldrdeq	r5, [r0], -r2
     1f4:	8c026e03 	stchi	14, cr6, [r2], {3}
     1f8:	06000001 	streq	r0, [r0], -r1
     1fc:	098c030c 	stmibeq	ip, {r2, r3, r8, r9}
     200:	00000232 	andeq	r0, r0, r2, lsr r2
     204:	001e3d08 	andseq	r3, lr, r8, lsl #26
     208:	0c8e0300 	stceq	3, cr0, [lr], {0}
     20c:	0000007d 	andeq	r0, r0, sp, ror r0
     210:	08002302 	stmdaeq	r0, {r1, r8, r9, sp}
     214:	000021be 			; <UNDEFINED> instruction: 0x000021be
     218:	320c8f03 	andcc	r8, ip, #3, 30
     21c:	02000002 	andeq	r0, r0, #2
     220:	26080423 	strcs	r0, [r8], -r3, lsr #8
     224:	03000043 	movweq	r0, #67	; 0x43
     228:	007d0c90 			; <UNDEFINED> instruction: 0x007d0c90
     22c:	23020000 	movwcs	r0, #8192	; 0x2000
     230:	040b0008 	streq	r0, [fp], #-8
     234:	0000010a 	andeq	r0, r0, sl, lsl #2
     238:	00406d03 	subeq	r6, r0, r3, lsl #26
     23c:	02910300 	addseq	r0, r1, #0, 6
     240:	000001fb 	strdeq	r0, [r0], -fp
     244:	0a041406 	beq	105264 <_Min_Stack_Size+0x104e64>
     248:	00028a09 	andeq	r8, r2, r9, lsl #20
     24c:	2d280800 	stccs	8, cr0, [r8, #-0]
     250:	0e040000 	cdpeq	0, 0, cr0, cr4, cr0, {0}
     254:	00023810 	andeq	r3, r2, r0, lsl r8
     258:	00230200 	eoreq	r0, r3, r0, lsl #4
     25c:	0020b608 	eoreq	fp, r0, r8, lsl #12
     260:	0d120400 	cfldrseq	mvf0, [r2, #-0]
     264:	0000007d 	andeq	r0, r0, sp, ror r0
     268:	080c2302 	stmdaeq	ip, {r1, r8, r9, sp}
     26c:	00004287 	andeq	r4, r0, r7, lsl #5
     270:	7d0d1604 	stcvc	6, cr1, [sp, #-16]
     274:	02000000 	andeq	r0, r0, #0
     278:	8a080d23 	bhi	20370c <_Min_Stack_Size+0x20330c>
     27c:	04000007 	streq	r0, [r0], #-7
     280:	028c0c19 	addeq	r0, ip, #6400	; 0x1900
     284:	23020000 	movwcs	r0, #8192	; 0x2000
     288:	010c0010 	tsteq	ip, r0, lsl r0
     28c:	028a040b 	addeq	r0, sl, #184549376	; 0xb000000
     290:	b1030000 	mrslt	r0, (UNDEF: 3)
     294:	0400001b 	streq	r0, [r0], #-27	; 0xffffffe5
     298:	0244021b 	subeq	r0, r4, #-1342177279	; 0xb0000001
     29c:	8c090000 	stchi	0, cr0, [r9], {-0}
     2a0:	ae000002 	cdpge	0, 0, cr0, cr0, cr2, {0}
     2a4:	0a000002 	beq	2b4 <_Min_Heap_Size+0xb4>
     2a8:	0000004e 	andeq	r0, r0, lr, asr #32
     2ac:	da0d000f 	ble	3402f0 <_Min_Stack_Size+0x33fef0>
     2b0:	01000003 	tsteq	r0, r3
     2b4:	029e0805 	addseq	r0, lr, #327680	; 0x50000
     2b8:	05010000 	streq	r0, [r1, #-0]
     2bc:	00001c03 	andeq	r1, r0, r3, lsl #24
     2c0:	91010e20 	tstls	r1, r0, lsr #28
     2c4:	05000018 	streq	r0, [r0, #-24]	; 0xffffffe8
     2c8:	0101061c 	tsteq	r1, ip, lsl r6
     2cc:	000002e0 	andeq	r0, r0, r0, ror #5
     2d0:	0002320f 	andeq	r3, r2, pc, lsl #4
     2d4:	007d0f00 	rsbseq	r0, sp, r0, lsl #30
     2d8:	7d0f0000 	stcvc	0, cr0, [pc, #-0]	; 2e0 <_Min_Heap_Size+0xe0>
     2dc:	00000000 	andeq	r0, r0, r0
     2e0:	51b60110 			; <UNDEFINED> instruction: 0x51b60110
     2e4:	56010000 	strpl	r0, [r1], -r0
     2e8:	9c010601 	stcls	6, cr0, [r1], {1}
     2ec:	90080006 	andls	r0, r8, r6
     2f0:	00080007 	andeq	r0, r8, r7
     2f4:	01000000 	mrseq	r0, (UNDEF: 0)
     2f8:	46350110 			; <UNDEFINED> instruction: 0x46350110
     2fc:	0b010000 	bleq	40304 <_Min_Stack_Size+0x3ff04>
     300:	cc010601 	stcgt	6, cr0, [r1], {1}
     304:	9c080005 	stcls	0, cr0, [r8], {5}
     308:	2c080006 	stccs	0, cr0, [r8], {6}
     30c:	01000000 	mrseq	r0, (UNDEF: 0)
     310:	18de0111 	ldmne	lr, {r0, r4, r8}^
     314:	fc010000 	stc2	0, cr0, [r1], {-0}
     318:	05a00106 	streq	r0, [r0, #262]!	; 0x106
     31c:	05cc0800 	strbeq	r0, [ip, #2048]	; 0x800
     320:	00580800 	subseq	r0, r8, r0, lsl #16
     324:	11010000 	mrsne	r0, (UNDEF: 1)
     328:	004c5301 	subeq	r5, ip, r1, lsl #6
     32c:	06ed0100 	strbteq	r0, [sp], r0, lsl #2
     330:	00057401 	andeq	r7, r5, r1, lsl #8
     334:	0005a008 	andeq	sl, r5, r8
     338:	00008408 	andeq	r8, r0, r8, lsl #8
     33c:	01110100 	tsteq	r1, r0, lsl #2
     340:	00003490 	muleq	r0, r0, r4
     344:	0106de01 	tsteq	r6, r1, lsl #28
     348:	08000548 	stmdaeq	r0, {r3, r6, r8, sl}
     34c:	08000574 	stmdaeq	r0, {r2, r4, r5, r6, r8, sl}
     350:	000000b0 	strheq	r0, [r0], -r0	; <UNPREDICTABLE>
     354:	7b011101 	blvc	44760 <_Min_Stack_Size+0x44360>
     358:	01000058 	qaddeq	r0, r8, r0
     35c:	1c0106cf 	stcne	6, cr0, [r1], {207}	; 0xcf
     360:	48080005 	stmdami	r8, {r0, r2}
     364:	dc080005 	stcle	0, cr0, [r8], {5}
     368:	01000000 	mrseq	r0, (UNDEF: 0)
     36c:	4eb30111 	mrcmi	1, 5, r0, cr3, cr1, {0}
     370:	be010000 	cdplt	0, 0, cr0, cr1, cr0, {0}
     374:	04f00106 	ldrbteq	r0, [r0], #262	; 0x106
     378:	051c0800 	ldreq	r0, [ip, #-2048]	; 0xfffff800
     37c:	01080800 	tsteq	r8, r0, lsl #16
     380:	12010000 	andne	r0, r1, #0
     384:	0008e101 	andeq	lr, r8, r1, lsl #2
     388:	06b60100 	ldrteq	r0, [r6], r0, lsl #2
     38c:	00000001 	andeq	r0, r0, r1
     390:	00000000 	andeq	r0, r0, r0
     394:	00013400 	andeq	r3, r1, r0, lsl #8
     398:	03ae0100 			; <UNDEFINED> instruction: 0x03ae0100
     39c:	33130000 	tstcc	r3, #0
     3a0:	01000019 	tsteq	r0, r9, lsl r0
     3a4:	03ae2eb6 			; <UNDEFINED> instruction: 0x03ae2eb6
     3a8:	91020000 	mrsls	r0, (UNDEF: 2)
     3ac:	040b0074 	streq	r0, [fp], #-116	; 0xffffff8c
     3b0:	00000292 	muleq	r0, r2, r2
     3b4:	1ecf0114 	mcrne	1, 6, r0, cr15, cr4, {0}
     3b8:	99010000 	stmdbls	r1, {}	; <UNPREDICTABLE>
     3bc:	00000106 	andeq	r0, r0, r6, lsl #2
     3c0:	00000000 	andeq	r0, r0, r0
     3c4:	01840000 	orreq	r0, r4, r0
     3c8:	12010000 	andne	r0, r1, #0
     3cc:	002d6601 	eoreq	r6, sp, r1, lsl #12
     3d0:	068e0100 	streq	r0, [lr], r0, lsl #2
     3d4:	0004d801 	andeq	sp, r4, r1, lsl #16
     3d8:	0004ee08 	andeq	lr, r4, r8, lsl #28
     3dc:	0001c808 	andeq	ip, r1, r8, lsl #16
     3e0:	03f60100 	mvnseq	r0, #0, 2
     3e4:	33130000 	tstcc	r3, #0
     3e8:	01000019 	tsteq	r0, r9, lsl r0
     3ec:	03ae2c8e 			; <UNDEFINED> instruction: 0x03ae2c8e
     3f0:	91020000 	mrsls	r0, (UNDEF: 2)
     3f4:	94150074 	ldrls	r0, [r5], #-116	; 0xffffff8c
     3f8:	0100000f 	tsteq	r0, pc
     3fc:	08010d50 	stmdaeq	r1, {r4, r6, r8, sl, fp}
     400:	d8080003 	stmdale	r8, {r0, r1}
     404:	18080004 	stmdane	r8, {r2}
     408:	01000002 	tsteq	r0, r2
     40c:	0000043e 	andeq	r0, r0, lr, lsr r4
     410:	00193313 	andseq	r3, r9, r3, lsl r3
     414:	2b500100 	blcs	140081c <_Min_Stack_Size+0x140041c>
     418:	000003ae 	andeq	r0, r0, lr, lsr #7
     41c:	166c9102 	strbtne	r9, [ip], -r2, lsl #2
     420:	00004b54 	andeq	r4, r0, r4, asr fp
     424:	7d0a5601 	stcvc	6, cr5, [sl, #-4]
     428:	02000000 	andeq	r0, r0, #0
     42c:	6c167791 	ldcvs	7, cr7, [r6], {145}	; 0x91
     430:	0100005a 	qaddeq	r0, sl, r0
     434:	007d0a57 	rsbseq	r0, sp, r7, asr sl
     438:	91020000 	mrsls	r0, (UNDEF: 2)
     43c:	d0170076 	andsle	r0, r7, r6, ror r0
     440:	0100003c 	tsteq	r0, ip, lsr r0
     444:	3c010d34 	stccc	13, cr0, [r1], {52}	; 0x34
     448:	08080002 	stmdaeq	r8, {r1}
     44c:	68080003 	stmdavs	r8, {r0, r1}
     450:	01000002 	tsteq	r0, r2
     454:	00000468 	andeq	r0, r0, r8, ror #8
     458:	001e3d13 	andseq	r3, lr, r3, lsl sp
     45c:	22340100 	eorscs	r0, r4, #0, 2
     460:	0000007d 	andeq	r0, r0, sp, ror r0
     464:	00779102 	rsbseq	r9, r7, r2, lsl #2
     468:	00162018 	andseq	r2, r6, r8, lsl r0
     46c:	0d180100 	ldfeqs	f0, [r8, #-0]
     470:	00017001 	andeq	r7, r1, r1
     474:	00023c08 	andeq	r3, r2, r8, lsl #24
     478:	0002c408 	andeq	ip, r2, r8, lsl #8
     47c:	3d130100 	ldfccs	f0, [r3, #-0]
     480:	0100001e 	tsteq	r0, lr, lsl r0
     484:	007d2118 	rsbseq	r2, sp, r8, lsl r1
     488:	91020000 	mrsls	r0, (UNDEF: 2)
     48c:	b3000077 	movwlt	r0, #119	; 0x77
     490:	02000003 	andeq	r0, r0, #3
     494:	00019f00 	andeq	r9, r1, r0, lsl #30
     498:	dd010400 	cfstrsle	mvf0, [r1, #-0]
     49c:	0c00000e 	stceq	0, cr0, [r0], {14}
     4a0:	00005aeb 	andeq	r5, r0, fp, ror #21
     4a4:	00002717 	andeq	r2, r0, r7, lsl r7
     4a8:	00000070 	andeq	r0, r0, r0, ror r0
	...
     4b4:	000004de 	ldrdeq	r0, [r0], -lr
     4b8:	00000058 	andeq	r0, r0, r8, asr r0
     4bc:	d8020102 	stmdale	r2, {r1, r8}
     4c0:	02000017 	andeq	r0, r0, #23
     4c4:	37af0801 	strcc	r0, [pc, r1, lsl #16]!
     4c8:	02020000 	andeq	r0, r2, #0
     4cc:	00426207 	subeq	r6, r2, r7, lsl #4
     4d0:	01080300 	mrseq	r0, (UNDEF: 56)
     4d4:	08020000 	stmdaeq	r2, {}	; <UNPREDICTABLE>
     4d8:	00005522 	andeq	r5, r0, r2, lsr #10
     4dc:	07040200 	streq	r0, [r4, -r0, lsl #4]
     4e0:	00003c9d 	muleq	r0, sp, ip
     4e4:	00004e04 	andeq	r4, r0, r4, lsl #28
     4e8:	07040200 	streq	r0, [r4, -r0, lsl #4]
     4ec:	000011e7 	andeq	r1, r0, r7, ror #3
     4f0:	c5060102 	strgt	r0, [r6, #-258]	; 0xfffffefe
     4f4:	02000005 	andeq	r0, r0, #5
     4f8:	06ce0502 	strbeq	r0, [lr], r2, lsl #10
     4fc:	04050000 	streq	r0, [r5], #-0
     500:	746e6905 	strbtvc	r6, [lr], #-2309	; 0xfffff6fb
     504:	05040200 	streq	r0, [r4, #-512]	; 0xfffffe00
     508:	00004456 	andeq	r4, r0, r6, asr r4
     50c:	00139503 	andseq	r9, r3, r3, lsl #10
     510:	22110200 	andscs	r0, r1, #0, 4
     514:	00000034 	andeq	r0, r0, r4, lsr r0
     518:	005b9a03 	subseq	r9, fp, r3, lsl #20
     51c:	26120200 	ldrcs	r0, [r2], -r0, lsl #4
     520:	0000003b 	andeq	r0, r0, fp, lsr r0
     524:	00010903 	andeq	r0, r1, r3, lsl #18
     528:	21130200 	tstcs	r3, r0, lsl #4
     52c:	0000004e 	andeq	r0, r0, lr, asr #32
     530:	18040402 	stmdane	r4, {r1, sl}
     534:	02000087 	andeq	r0, r0, #135	; 0x87
     538:	76470408 	strbvc	r0, [r7], -r8, lsl #8
     53c:	1c060000 	stcne	0, cr0, [r6], {-0}
     540:	22095003 	andcs	r5, r9, #3
     544:	07000001 	streq	r0, [r0, -r1]
     548:	004c5243 	subeq	r5, ip, r3, asr #4
     54c:	420c5203 	andmi	r5, ip, #805306368	; 0x30000000
     550:	02000000 	andeq	r0, r0, #0
     554:	43070023 	movwmi	r0, #28707	; 0x7023
     558:	03004852 	movweq	r4, #2130	; 0x852
     55c:	00420c53 	subeq	r0, r2, r3, asr ip
     560:	23020000 	movwcs	r0, #8192	; 0x2000
     564:	44490704 	strbmi	r0, [r9], #-1796	; 0xfffff8fc
     568:	54030052 	strpl	r0, [r3], #-82	; 0xffffffae
     56c:	0000420c 	andeq	r4, r0, ip, lsl #4
     570:	08230200 	stmdaeq	r3!, {r9}
     574:	52444f07 	subpl	r4, r4, #7, 30
     578:	0c550300 	mrrceq	3, 0, r0, r5, cr0
     57c:	00000042 	andeq	r0, r0, r2, asr #32
     580:	080c2302 	stmdaeq	ip, {r1, r8, r9, sp}
     584:	00004de9 	andeq	r4, r0, r9, ror #27
     588:	420c5603 	andmi	r5, ip, #3145728	; 0x300000
     58c:	02000000 	andeq	r0, r0, #0
     590:	42071023 	andmi	r1, r7, #35	; 0x23
     594:	03005252 	movweq	r5, #594	; 0x252
     598:	00420c57 	subeq	r0, r2, r7, asr ip
     59c:	23020000 	movwcs	r0, #8192	; 0x2000
     5a0:	2b290814 	blcs	a425f8 <_Min_Stack_Size+0xa421f8>
     5a4:	58030000 	stmdapl	r3, {}	; <UNPREDICTABLE>
     5a8:	0000420c 	andeq	r4, r0, ip, lsl #4
     5ac:	18230200 	stmdane	r3!, {r9}
     5b0:	07d30300 	ldrbeq	r0, [r3, r0, lsl #6]
     5b4:	59030000 	stmdbpl	r3, {}	; <UNPREDICTABLE>
     5b8:	0000af02 	andeq	sl, r0, r2, lsl #30
     5bc:	22040900 	andcs	r0, r4, #0, 18
     5c0:	0a000001 	beq	5cc <_Min_Stack_Size+0x1cc>
     5c4:	005b6c01 	subseq	r6, fp, r1, lsl #24
     5c8:	09b30100 	ldmibeq	r3!, {r8}
     5cc:	00007d01 	andeq	r7, r0, r1, lsl #26
	...
     5d8:	00032000 	andeq	r2, r3, r0
     5dc:	01810100 	orreq	r0, r1, r0, lsl #2
     5e0:	940b0000 	strls	r0, [fp], #-0
     5e4:	0100005b 	qaddeq	r0, fp, r0
     5e8:	012e23b3 			; <UNDEFINED> instruction: 0x012e23b3
     5ec:	91020000 	mrsls	r0, (UNDEF: 2)
     5f0:	5b340b6c 	blpl	d033a8 <_Min_Stack_Size+0xd02fa8>
     5f4:	b3010000 	movwlt	r0, #4096	; 0x1000
     5f8:	00007d31 	andeq	r7, r0, r1, lsr sp
     5fc:	6b910200 	blvs	fe440e04 <_estack+0xde43e604>
     600:	005b200c 	subseq	r2, fp, ip
     604:	0ab50100 	beq	fed40a0c <_estack+0xded3e20c>
     608:	0000007d 	andeq	r0, r0, sp, ror r0
     60c:	00779102 	rsbseq	r9, r7, r2, lsl #2
     610:	5be3010a 	blpl	ff8c0a40 <_estack+0xdf8be240>
     614:	a5010000 	strge	r0, [r1, #-0]
     618:	0089010a 	addeq	r0, r9, sl, lsl #2
	...
     624:	037c0000 	cmneq	ip, #0
     628:	bf010000 	svclt	0x00010000
     62c:	0b000001 	bleq	638 <_Min_Stack_Size+0x238>
     630:	00005b94 	muleq	r0, r4, fp
     634:	2e25a501 	cfsh64cs	mvdx10, mvdx5, #1
     638:	02000001 	andeq	r0, r0, #1
     63c:	2a0c6c91 	bcs	31b888 <_Min_Stack_Size+0x31b488>
     640:	0100005b 	qaddeq	r0, fp, r0
     644:	00890ba7 	addeq	r0, r9, r7, lsr #23
     648:	91020000 	mrsls	r0, (UNDEF: 2)
     64c:	010a0076 	tsteq	sl, r6, ror r0
     650:	00005b5a 	andeq	r5, r0, sl, asr fp
     654:	01099801 	tsteq	r9, r1, lsl #16
     658:	0000007d 	andeq	r0, r0, sp, ror r0
	...
     664:	000003d8 	ldrdeq	r0, [r0], -r8
     668:	00020c01 	andeq	r0, r2, r1, lsl #24
     66c:	5b940b00 	blpl	fe503274 <_estack+0xde500a74>
     670:	98010000 	stmdals	r1, {}	; <UNPREDICTABLE>
     674:	00012e23 	andeq	r2, r1, r3, lsr #28
     678:	6c910200 	lfmvs	f0, 4, [r1], {0}
     67c:	005b340b 	subseq	r3, fp, fp, lsl #8
     680:	31980100 	orrscc	r0, r8, r0, lsl #2
     684:	0000007d 	andeq	r0, r0, sp, ror r0
     688:	0c6b9102 	stfeqp	f1, [fp], #-8
     68c:	00005b3e 	andeq	r5, r0, lr, lsr fp
     690:	7d0a9a01 	vstrvc	s18, [sl, #-4]
     694:	02000000 	andeq	r0, r0, #0
     698:	0d007791 	stceq	7, cr7, [r0, #-580]	; 0xfffffdbc
     69c:	005bce01 	subseq	ip, fp, r1, lsl #28
     6a0:	068c0100 	streq	r0, [ip], r0, lsl #2
     6a4:	00000001 	andeq	r0, r0, r1
     6a8:	00000000 	andeq	r0, r0, r0
     6ac:	00043400 	andeq	r3, r4, r0, lsl #8
     6b0:	02370100 	eorseq	r0, r7, #0, 2
     6b4:	940b0000 	strls	r0, [fp], #-0
     6b8:	0100005b 	qaddeq	r0, fp, r0
     6bc:	012e238c 	smlawbeq	lr, ip, r3, r2
     6c0:	91020000 	mrsls	r0, (UNDEF: 2)
     6c4:	010d0074 	tsteq	sp, r4, ror r0
     6c8:	00005bba 			; <UNDEFINED> instruction: 0x00005bba
     6cc:	01068001 	tsteq	r6, r1
	...
     6d8:	00000490 	muleq	r0, r0, r4
     6dc:	00027101 	andeq	r7, r2, r1, lsl #2
     6e0:	5b940b00 	blpl	fe5032e8 <_estack+0xde500ae8>
     6e4:	80010000 	andhi	r0, r1, r0
     6e8:	00012e22 	andeq	r2, r1, r2, lsr #28
     6ec:	74910200 	ldrvc	r0, [r1], #512	; 0x200
     6f0:	005b340b 	subseq	r3, fp, fp, lsl #8
     6f4:	30800100 	addcc	r0, r0, r0, lsl #2
     6f8:	0000007d 	andeq	r0, r0, sp, ror r0
     6fc:	00739102 	rsbseq	r9, r3, r2, lsl #2
     700:	5bf6010d 	blpl	ffd80b3c <_estack+0xdfd7e33c>
     704:	74010000 	strvc	r0, [r1], #-0
     708:	00000106 	andeq	r0, r0, r6, lsl #2
     70c:	00000000 	andeq	r0, r0, r0
     710:	04ec0000 	strbteq	r0, [ip], #0
     714:	ab010000 	blge	4071c <_Min_Stack_Size+0x4031c>
     718:	0b000002 	bleq	728 <_Min_Stack_Size+0x328>
     71c:	00005b94 	muleq	r0, r4, fp
     720:	2e227401 	cdpcs	4, 2, cr7, cr2, cr1, {0}
     724:	02000001 	andeq	r0, r0, #1
     728:	a30b7491 	movwge	r7, #46225	; 0xb491
     72c:	0100005b 	qaddeq	r0, fp, r0
     730:	00893174 	addeq	r3, r9, r4, ror r1
     734:	91020000 	mrsls	r0, (UNDEF: 2)
     738:	010d0072 	tsteq	sp, r2, ror r0
     73c:	00005b47 	andeq	r5, r0, r7, asr #22
     740:	01066101 	tsteq	r6, r1, lsl #2
	...
     74c:	00000548 	andeq	r0, r0, r8, asr #10
     750:	0002f401 	andeq	pc, r2, r1, lsl #8
     754:	5b940b00 	blpl	fe50335c <_estack+0xde500b5c>
     758:	61010000 	mrsvs	r0, (UNDEF: 1)
     75c:	00012e21 	andeq	r2, r1, r1, lsr #28
     760:	74910200 	ldrvc	r0, [r1], #512	; 0x200
     764:	005b340b 	subseq	r3, fp, fp, lsl #8
     768:	2f610100 	svccs	0x00610100
     76c:	0000007d 	andeq	r0, r0, sp, ror r0
     770:	0b739102 	bleq	1ce4b80 <_Min_Stack_Size+0x1ce4780>
     774:	00005ae2 	andeq	r5, r0, r2, ror #21
     778:	7d426101 	stfvce	f6, [r2, #-4]
     77c:	02000000 	andeq	r0, r0, #0
     780:	0d007291 	sfmeq	f7, 4, [r0, #-580]	; 0xfffffdbc
     784:	005b7e01 	subseq	r7, fp, r1, lsl #28
     788:	064c0100 	strbeq	r0, [ip], -r0, lsl #2
     78c:	00000001 	andeq	r0, r0, r1
     790:	00000000 	andeq	r0, r0, r0
     794:	0005a400 	andeq	sl, r5, r0, lsl #8
     798:	032e0100 			; <UNDEFINED> instruction: 0x032e0100
     79c:	940b0000 	strls	r0, [fp], #-0
     7a0:	0100005b 	qaddeq	r0, fp, r0
     7a4:	012e244c 			; <UNDEFINED> instruction: 0x012e244c
     7a8:	91020000 	mrsls	r0, (UNDEF: 2)
     7ac:	5b8b0b74 	blpl	fe2c3584 <_estack+0xde2c0d84>
     7b0:	4c010000 	stcmi	0, cr0, [r1], {-0}
     7b4:	00009533 	andeq	r9, r0, r3, lsr r5
     7b8:	70910200 	addsvc	r0, r1, r0, lsl #4
     7bc:	91010e00 	tstls	r1, r0, lsl #28
     7c0:	01000018 	tsteq	r0, r8, lsl r0
     7c4:	34010630 	strcc	r0, [r1], #-1584	; 0xfffff9d0
     7c8:	ae080008 	cdpge	0, 0, cr0, cr8, cr8, {0}
     7cc:	00080008 	andeq	r0, r8, r8
     7d0:	01000006 	tsteq	r0, r6
     7d4:	00000386 	andeq	r0, r0, r6, lsl #7
     7d8:	005b940b 	subseq	r9, fp, fp, lsl #8
     7dc:	23300100 	teqcs	r0, #0, 2
     7e0:	0000012e 	andeq	r0, r0, lr, lsr #2
     7e4:	0b649102 	bleq	1924bf4 <_Min_Stack_Size+0x19247f4>
     7e8:	00005b34 	andeq	r5, r0, r4, lsr fp
     7ec:	7d313001 	ldcvc	0, cr3, [r1, #-4]!
     7f0:	02000000 	andeq	r0, r0, #0
     7f4:	9e0b6391 	mcrls	3, 0, r6, cr11, cr1, {4}
     7f8:	01000018 	tsteq	r0, r8, lsl r0
     7fc:	007d4330 	rsbseq	r4, sp, r0, lsr r3
     800:	91020000 	mrsls	r0, (UNDEF: 2)
     804:	5b120c62 	blpl	483994 <_Min_Stack_Size+0x483594>
     808:	32010000 	andcc	r0, r1, #0
     80c:	0003860d 	andeq	r8, r3, sp, lsl #12
     810:	6c910200 	lfmvs	f0, 4, [r1], {0}
     814:	42040900 	andmi	r0, r4, #0, 18
     818:	0f000000 	svceq	0x00000000
     81c:	00005bad 	andeq	r5, r0, sp, lsr #23
     820:	01101101 	tsteq	r0, r1, lsl #2
     824:	0000007d 	andeq	r0, r0, sp, ror r0
     828:	08000790 	stmdaeq	r0, {r4, r7, r8, r9, sl}
     82c:	08000834 	stmdaeq	r0, {r2, r4, r5, fp}
     830:	00000650 	andeq	r0, r0, r0, asr r6
     834:	5b340b01 	blpl	d03440 <_Min_Stack_Size+0xd03040>
     838:	11010000 	mrsne	r0, (UNDEF: 1)
     83c:	00007d25 	andeq	r7, r0, r5, lsr #26
     840:	77910200 	ldrvc	r0, [r1, r0, lsl #4]
     844:	053b0000 	ldreq	r0, [fp, #-0]!
     848:	00020000 	andeq	r0, r2, r0
     84c:	000002b0 			; <UNDEFINED> instruction: 0x000002b0
     850:	0edd0104 	cdpeq	1, 13, cr0, cr13, cr4, {0}
     854:	e40c0000 	str	r0, [ip], #-0
     858:	17000060 	strne	r0, [r0, -r0, rrx]
     85c:	c8000027 	stmdagt	r0, {r0, r1, r2, r5}
	...
     868:	2e000000 	cdpcs	0, 0, cr0, cr0, cr0, {0}
     86c:	9c000007 	stcls	0, cr0, [r0], {7}
     870:	02000000 	andeq	r0, r0, #0
     874:	17d80201 	ldrbne	r0, [r8, r1, lsl #4]
     878:	01020000 	mrseq	r0, (UNDEF: 2)
     87c:	0037af08 	eorseq	sl, r7, r8, lsl #30
     880:	07020200 	streq	r0, [r2, -r0, lsl #4]
     884:	00004262 	andeq	r4, r0, r2, ror #4
     888:	00010803 	andeq	r0, r1, r3, lsl #16
     88c:	22080200 	andcs	r0, r8, #0, 4
     890:	00000055 	andeq	r0, r0, r5, asr r0
     894:	9d070402 	cfstrsls	mvf0, [r7, #-8]
     898:	0400003c 	streq	r0, [r0], #-60	; 0xffffffc4
     89c:	0000004e 	andeq	r0, r0, lr, asr #32
     8a0:	e7070402 	str	r0, [r7, -r2, lsl #8]
     8a4:	02000011 	andeq	r0, r0, #17
     8a8:	05c50601 	strbeq	r0, [r5, #1537]	; 0x601
     8ac:	02020000 	andeq	r0, r2, #0
     8b0:	0006ce05 	andeq	ip, r6, r5, lsl #28
     8b4:	05040500 	streq	r0, [r4, #-1280]	; 0xfffffb00
     8b8:	00746e69 	rsbseq	r6, r4, r9, ror #28
     8bc:	56050402 	strpl	r0, [r5], -r2, lsl #8
     8c0:	03000044 	movweq	r0, #68	; 0x44
     8c4:	00001395 	muleq	r0, r5, r3
     8c8:	34221102 	strtcc	r1, [r2], #-258	; 0xfffffefe
     8cc:	03000000 	movweq	r0, #0
     8d0:	00005b9a 	muleq	r0, sl, fp
     8d4:	3b261202 	blcc	9850e4 <_Min_Stack_Size+0x984ce4>
     8d8:	03000000 	movweq	r0, #0
     8dc:	00000109 	andeq	r0, r0, r9, lsl #2
     8e0:	4e211302 	cdpmi	3, 2, cr1, cr1, cr2, {0}
     8e4:	02000000 	andeq	r0, r0, #0
     8e8:	87180404 	ldrhi	r0, [r8, -r4, lsl #8]
     8ec:	08020000 	stmdaeq	r2, {}	; <UNPREDICTABLE>
     8f0:	00764704 	rsbseq	r4, r6, r4, lsl #14
     8f4:	03280600 			; <UNDEFINED> instruction: 0x03280600
     8f8:	014e0941 	cmpeq	lr, r1, asr #18
     8fc:	43070000 	movwmi	r0, #28672	; 0x7000
     900:	43030052 	movwmi	r0, #12370	; 0x3052
     904:	0000420c 	andeq	r4, r0, ip, lsl #4
     908:	00230200 	eoreq	r0, r3, r0, lsl #4
     90c:	005e1b08 	subseq	r1, lr, r8, lsl #22
     910:	0c440300 	mcrreq	3, 0, r0, r4, cr0
     914:	00000042 	andeq	r0, r0, r2, asr #32
     918:	07042302 	streq	r2, [r4, -r2, lsl #6]
     91c:	00524943 	subseq	r4, r2, r3, asr #18
     920:	420c4503 	andmi	r4, ip, #12582912	; 0xc00000
     924:	02000000 	andeq	r0, r0, #0
     928:	20080823 	andcs	r0, r8, r3, lsr #16
     92c:	0300005f 	movweq	r0, #95	; 0x5f
     930:	00420c46 	subeq	r0, r2, r6, asr #24
     934:	23020000 	movwcs	r0, #8192	; 0x2000
     938:	5fbb080c 	svcpl	0x00bb080c
     93c:	47030000 	strmi	r0, [r3, -r0]
     940:	0000420c 	andeq	r4, r0, ip, lsl #4
     944:	10230200 	eorne	r0, r3, r0, lsl #4
     948:	00610d08 	rsbeq	r0, r1, r8, lsl #26
     94c:	0c480300 	mcrreq	3, 0, r0, r8, cr0
     950:	00000042 	andeq	r0, r0, r2, asr #32
     954:	08142302 	ldmdaeq	r4, {r1, r8, r9, sp}
     958:	00005f53 	andeq	r5, r0, r3, asr pc
     95c:	420c4903 	andmi	r4, ip, #49152	; 0xc000
     960:	02000000 	andeq	r0, r0, #0
     964:	c4081823 	strgt	r1, [r8], #-2083	; 0xfffff7dd
     968:	0300005f 	movweq	r0, #95	; 0x5f
     96c:	00420c4a 	subeq	r0, r2, sl, asr #24
     970:	23020000 	movwcs	r0, #8192	; 0x2000
     974:	5de1081c 	stclpl	8, cr0, [r1, #112]!	; 0x70
     978:	4b030000 	blmi	c0980 <_Min_Stack_Size+0xc0580>
     97c:	0000420c 	andeq	r4, r0, ip, lsl #4
     980:	20230200 	eorcs	r0, r3, r0, lsl #4
     984:	52534307 	subspl	r4, r3, #469762048	; 0x1c000000
     988:	0c4c0300 	mcrreq	3, 0, r0, ip, cr0
     98c:	00000042 	andeq	r0, r0, r2, asr #32
     990:	00242302 	eoreq	r2, r4, r2, lsl #6
     994:	005d5b03 	subseq	r5, sp, r3, lsl #22
     998:	024d0300 	subeq	r0, sp, #0, 6
     99c:	000000af 	andeq	r0, r0, pc, lsr #1
     9a0:	50031c06 	andpl	r1, r3, r6, lsl #24
     9a4:	0001cd09 	andeq	ip, r1, r9, lsl #26
     9a8:	52430700 	subpl	r0, r3, #0, 14
     9ac:	5203004c 	andpl	r0, r3, #76	; 0x4c
     9b0:	0000420c 	andeq	r4, r0, ip, lsl #4
     9b4:	00230200 	eoreq	r0, r3, r0, lsl #4
     9b8:	48524307 	ldmdami	r2, {r0, r1, r2, r8, r9, lr}^
     9bc:	0c530300 	mrrceq	3, 0, r0, r3, cr0
     9c0:	00000042 	andeq	r0, r0, r2, asr #32
     9c4:	07042302 	streq	r2, [r4, -r2, lsl #6]
     9c8:	00524449 	subseq	r4, r2, r9, asr #8
     9cc:	420c5403 	andmi	r5, ip, #50331648	; 0x3000000
     9d0:	02000000 	andeq	r0, r0, #0
     9d4:	4f070823 	svcmi	0x00070823
     9d8:	03005244 	movweq	r5, #580	; 0x244
     9dc:	00420c55 	subeq	r0, r2, r5, asr ip
     9e0:	23020000 	movwcs	r0, #8192	; 0x2000
     9e4:	4de9080c 	stclmi	8, cr0, [r9, #48]!	; 0x30
     9e8:	56030000 	strpl	r0, [r3], -r0
     9ec:	0000420c 	andeq	r4, r0, ip, lsl #4
     9f0:	10230200 	eorne	r0, r3, r0, lsl #4
     9f4:	52524207 	subspl	r4, r2, #1879048192	; 0x70000000
     9f8:	0c570300 	mrrceq	3, 0, r0, r7, cr0
     9fc:	00000042 	andeq	r0, r0, r2, asr #32
     a00:	08142302 	ldmdaeq	r4, {r1, r8, r9, sp}
     a04:	00002b29 	andeq	r2, r0, r9, lsr #22
     a08:	420c5803 	andmi	r5, ip, #196608	; 0x30000
     a0c:	02000000 	andeq	r0, r0, #0
     a10:	03001823 	movweq	r1, #2083	; 0x823
     a14:	000007d3 	ldrdeq	r0, [r0], -r3
     a18:	5a025903 	bpl	96e2c <_Min_Stack_Size+0x96a2c>
     a1c:	06000001 	streq	r0, [r0], -r1
     a20:	0971031c 	ldmdbeq	r1!, {r2, r3, r4, r8, r9}^
     a24:	0000024a 	andeq	r0, r0, sl, asr #4
     a28:	00525307 	subseq	r5, r2, r7, lsl #6
     a2c:	420c7303 	andmi	r7, ip, #201326592	; 0xc000000
     a30:	02000000 	andeq	r0, r0, #0
     a34:	44070023 	strmi	r0, [r7], #-35	; 0xffffffdd
     a38:	74030052 	strvc	r0, [r3], #-82	; 0xffffffae
     a3c:	0000420c 	andeq	r4, r0, ip, lsl #4
     a40:	04230200 	strteq	r0, [r3], #-512	; 0xfffffe00
     a44:	52524207 	subspl	r4, r2, #1879048192	; 0x70000000
     a48:	0c750300 	ldcleq	3, cr0, [r5], #-0
     a4c:	00000042 	andeq	r0, r0, r2, asr #32
     a50:	07082302 	streq	r2, [r8, -r2, lsl #6]
     a54:	00315243 	eorseq	r5, r1, r3, asr #4
     a58:	420c7603 	andmi	r7, ip, #3145728	; 0x300000
     a5c:	02000000 	andeq	r0, r0, #0
     a60:	43070c23 	movwmi	r0, #31779	; 0x7c23
     a64:	03003252 	movweq	r3, #594	; 0x252
     a68:	00420c77 	subeq	r0, r2, r7, ror ip
     a6c:	23020000 	movwcs	r0, #8192	; 0x2000
     a70:	52430710 	subpl	r0, r3, #16, 14	; 0x400000
     a74:	78030033 	stmdavc	r3, {r0, r1, r4, r5}
     a78:	0000420c 	andeq	r4, r0, ip, lsl #4
     a7c:	14230200 	strtne	r0, [r3], #-512	; 0xfffffe00
     a80:	005f1b08 	subseq	r1, pc, r8, lsl #22
     a84:	0c790300 	ldcleq	3, cr0, [r9], #-0
     a88:	00000042 	andeq	r0, r0, r2, asr #32
     a8c:	00182302 	andseq	r2, r8, r2, lsl #6
     a90:	005f7503 	subseq	r7, pc, r3, lsl #10
     a94:	027a0300 	rsbseq	r0, sl, #0, 6
     a98:	000001d9 	ldrdeq	r0, [r0], -r9
     a9c:	01cd0409 	biceq	r0, sp, r9, lsl #8
     aa0:	14060000 	strne	r0, [r6], #-0
     aa4:	de091304 	cdple	3, 0, cr1, cr9, cr4, {0}
     aa8:	08000002 	stmdaeq	r0, {r1}
     aac:	0000612e 	andeq	r6, r0, lr, lsr #2
     ab0:	7d0a1704 	stcvc	7, cr1, [sl, #-16]
     ab4:	02000000 	andeq	r0, r0, #0
     ab8:	52080023 	andpl	r0, r8, #35	; 0x23
     abc:	0400005d 	streq	r0, [r0], #-93	; 0xffffffa3
     ac0:	00950b1b 	addseq	r0, r5, fp, lsl fp
     ac4:	23020000 	movwcs	r0, #8192	; 0x2000
     ac8:	5cef0804 	stclpl	8, cr0, [pc], #16	; ae0 <_Min_Stack_Size+0x6e0>
     acc:	1f040000 	svcne	0x00040000
     ad0:	00007d0a 	andeq	r7, r0, sl, lsl #26
     ad4:	08230200 	stmdaeq	r3!, {r9}
     ad8:	00612408 	rsbeq	r2, r1, r8, lsl #8
     adc:	0a230400 	beq	8c1ae4 <_Min_Stack_Size+0x8c16e4>
     ae0:	0000007d 	andeq	r0, r0, sp, ror r0
     ae4:	08092302 	stmdaeq	r9, {r1, r8, r9, sp}
     ae8:	00005c80 	andeq	r5, r0, r0, lsl #25
     aec:	7d0a2704 	stcvc	7, cr2, [sl, #-16]
     af0:	02000000 	andeq	r0, r0, #0
     af4:	10080a23 	andne	r0, r8, r3, lsr #20
     af8:	0400005e 	streq	r0, [r0], #-94	; 0xffffffa2
     afc:	007d0a2b 	rsbseq	r0, sp, fp, lsr #20
     b00:	23020000 	movwcs	r0, #8192	; 0x2000
     b04:	4287080b 	addmi	r0, r7, #720896	; 0xb0000
     b08:	2f040000 	svccs	0x00040000
     b0c:	00007d0a 	andeq	r7, r0, sl, lsl #26
     b10:	0c230200 	sfmeq	f0, 4, [r3], #-0
     b14:	00078a08 	andeq	r8, r7, r8, lsl #20
     b18:	09320400 	ldmdbeq	r2!, {sl}
     b1c:	000002e0 	andeq	r0, r0, r0, ror #5
     b20:	00102302 	andseq	r2, r0, r2, lsl #6
     b24:	0409010a 	streq	r0, [r9], #-266	; 0xfffffef6
     b28:	000002de 	ldrdeq	r0, [r0], -lr
     b2c:	0061d603 	rsbeq	sp, r1, r3, lsl #12
     b30:	02340400 	eorseq	r0, r4, #0, 8
     b34:	0000025c 	andeq	r0, r0, ip, asr r2
     b38:	3401070b 	strcc	r0, [r1], #-1803	; 0xfffff8f5
     b3c:	04000000 	streq	r0, [r0], #-0
     b40:	030d0138 	movweq	r0, #53560	; 0xd138
     b44:	740c0000 	strvc	r0, [ip], #-0
     b48:	00000060 	andeq	r0, r0, r0, rrx
     b4c:	005ec80c 	subseq	ip, lr, ip, lsl #16
     b50:	03000100 	movweq	r0, #256	; 0x100
     b54:	00005f40 	andeq	r5, r0, r0, asr #30
     b58:	f2023b04 	vqdmulh.s<illegal width 8>	d3, d2, d4
     b5c:	0d000002 	stceq	0, cr0, [r0, #-8]
     b60:	00000329 	andeq	r0, r0, r9, lsr #6
     b64:	00000329 	andeq	r0, r0, r9, lsr #6
     b68:	00004e0e 	andeq	r4, r0, lr, lsl #28
     b6c:	09000200 	stmdbeq	r0, {r9}
     b70:	0002e604 	andeq	lr, r2, r4, lsl #12
     b74:	5d910f00 	ldcpl	15, cr0, [r1]
     b78:	0b010000 	bleq	40b80 <_Min_Stack_Size+0x40780>
     b7c:	00031911 	andeq	r1, r3, r1, lsl r9
     b80:	03050100 	movweq	r0, #20736	; 0x5100
     b84:	2000005c 	andcs	r0, r0, ip, asr r0
     b88:	18910110 	ldmne	r1, {r4, r8}
     b8c:	1c060000 	stcne	0, cr0, [r6], {-0}
     b90:	61010106 	tstvs	r1, r6, lsl #2
     b94:	11000003 	tstne	r0, r3
     b98:	00000256 	andeq	r0, r0, r6, asr r2
     b9c:	00007d11 	andeq	r7, r0, r1, lsl sp
     ba0:	007d1100 	rsbseq	r1, sp, r0, lsl #2
     ba4:	12000000 	andne	r0, r0, #0
     ba8:	005e2001 	subseq	r2, lr, r1
     bac:	0a180500 	beq	601fb4 <_Min_Stack_Size+0x601bb4>
     bb0:	00009501 	andeq	r9, r0, r1, lsl #10
     bb4:	01120100 	tsteq	r2, r0, lsl #2
     bb8:	00005e32 	andeq	r5, r0, r2, lsr lr
     bbc:	010a1905 	tsteq	sl, r5, lsl #18
     bc0:	00000095 	muleq	r0, r5, r0
     bc4:	fe011301 	cdp2	3, 0, cr1, cr1, cr1, {0}
     bc8:	0100005d 	qaddeq	r0, sp, r0
     bcc:	01060129 	tsteq	r6, r9, lsr #2
     bd0:	080008d8 	stmdaeq	r0, {r3, r4, r6, r7, fp}
     bd4:	080008ec 	stmdaeq	r0, {r2, r3, r5, r6, r7, fp}
     bd8:	000006ac 	andeq	r0, r0, ip, lsr #13
     bdc:	13011301 	movwne	r1, #4865	; 0x1301
     be0:	01000062 	tsteq	r0, r2, rrx
     be4:	01060124 	tsteq	r6, r4, lsr #2
     be8:	080008c4 	stmdaeq	r0, {r2, r6, r7, fp}
     bec:	080008d8 	stmdaeq	r0, {r3, r4, r6, r7, fp}
     bf0:	000006d8 	ldrdeq	r0, [r0], -r8
     bf4:	09011301 	stmdbeq	r1, {r0, r8, r9, ip}
     bf8:	0100005f 	qaddeq	r0, pc, r0	; <UNPREDICTABLE>
     bfc:	0106011f 	tsteq	r6, pc, lsl r1
     c00:	080008b0 	stmdaeq	r0, {r4, r5, r7, fp}
     c04:	080008c4 	stmdaeq	r0, {r2, r6, r7, fp}
     c08:	00000704 	andeq	r0, r0, r4, lsl #14
     c0c:	a4011401 	strge	r1, [r1], #-1025	; 0xfffffbff
     c10:	0100005f 	qaddeq	r0, pc, r0	; <UNPREDICTABLE>
     c14:	000106d9 	ldrdeq	r0, [r1], -r9
     c18:	00000000 	andeq	r0, r0, r0
     c1c:	30000000 	andcc	r0, r0, r0
     c20:	01000007 	tsteq	r0, r7
     c24:	000003f2 	strdeq	r0, [r0], -r2
     c28:	005c3315 	subseq	r3, ip, r5, lsl r3
     c2c:	26d90100 	ldrbcs	r0, [r9], r0, lsl #2
     c30:	000003f2 	strdeq	r0, [r0], -r2
     c34:	00749102 	rsbseq	r9, r4, r2, lsl #2
     c38:	024a0409 	subeq	r0, sl, #150994944	; 0x9000000
     c3c:	01140000 	tsteq	r4, r0
     c40:	00005ff7 	strdeq	r5, [r0], -r7
     c44:	0106b201 	tsteq	r6, r1, lsl #4
	...
     c50:	00000780 	andeq	r0, r0, r0, lsl #15
     c54:	00044101 	andeq	r4, r4, r1, lsl #2
     c58:	5c331500 	cfldr32pl	mvfx1, [r3], #-0
     c5c:	b2010000 	andlt	r0, r1, #0
     c60:	0003f226 	andeq	pc, r3, r6, lsr #4
     c64:	74910200 	ldrvc	r0, [r1], #512	; 0x200
     c68:	0060df15 	rsbeq	sp, r0, r5, lsl pc
     c6c:	38b20100 	ldmcc	r2!, {r8}
     c70:	00000441 	andeq	r0, r0, r1, asr #8
     c74:	15709102 	ldrbne	r9, [r0, #-258]!	; 0xfffffefe
     c78:	000060a0 	andeq	r6, r0, r0, lsr #1
     c7c:	0d51b201 	lfmeq	f3, 3, [r1, #-4]
     c80:	02000003 	andeq	r0, r0, #3
     c84:	09006f91 	stmdbeq	r0, {r0, r4, r7, r8, r9, sl, fp, sp, lr}
     c88:	00008904 	andeq	r8, r0, r4, lsl #18
     c8c:	29011400 	stmdbcs	r1, {sl, ip}
     c90:	0100005f 	qaddeq	r0, pc, r0	; <UNPREDICTABLE>
     c94:	00010696 	muleq	r1, r6, r6
     c98:	00000000 	andeq	r0, r0, r0
     c9c:	d0000000 	andle	r0, r0, r0
     ca0:	01000007 	tsteq	r0, r7
     ca4:	00000490 	muleq	r0, r0, r4
     ca8:	005c3315 	subseq	r3, ip, r5, lsl r3
     cac:	26960100 	ldrcs	r0, [r6], r0, lsl #2
     cb0:	000003f2 	strdeq	r0, [r0], -r2
     cb4:	15749102 	ldrbne	r9, [r4, #-258]!	; 0xfffffefe
     cb8:	000060df 	ldrdeq	r6, [r0], -pc	; <UNPREDICTABLE>
     cbc:	89379601 	ldmdbhi	r7!, {r0, r9, sl, ip, pc}
     cc0:	02000000 	andeq	r0, r0, #0
     cc4:	a0157291 	mulsge	r5, r1, r2
     cc8:	01000060 	tsteq	r0, r0, rrx
     ccc:	030d5096 	movweq	r5, #53398	; 0xd096
     cd0:	91020000 	mrsls	r0, (UNDEF: 2)
     cd4:	01160071 	tsteq	r6, r1, ror r0
     cd8:	00005fcc 	andeq	r5, r0, ip, asr #31
     cdc:	01067a01 	tsteq	r6, r1, lsl #20
	...
     ce8:	00000820 	andeq	r0, r0, r0, lsr #16
     cec:	0004bb01 	andeq	fp, r4, r1, lsl #22
     cf0:	5c331500 	cfldr32pl	mvfx1, [r3], #-0
     cf4:	7a010000 	bvc	40cfc <_Min_Stack_Size+0x408fc>
     cf8:	0003f221 	andeq	pc, r3, r1, lsr #4
     cfc:	74910200 	ldrvc	r0, [r1], #512	; 0x200
     d00:	14011400 	strne	r1, [r1], #-1024	; 0xfffffc00
     d04:	01000061 	tsteq	r0, r1, rrx
     d08:	00010627 	andeq	r0, r1, r7, lsr #12
     d0c:	00000000 	andeq	r0, r0, r0
     d10:	7c000000 	stcvc	0, cr0, [r0], {-0}
     d14:	01000008 	tsteq	r0, r8
     d18:	00000513 	andeq	r0, r0, r3, lsl r5
     d1c:	005c3315 	subseq	r3, ip, r5, lsl r3
     d20:	1f270100 	svcne	0x00270100
     d24:	000003f2 	strdeq	r0, [r0], -r2
     d28:	156c9102 	strbne	r9, [ip, #-258]!	; 0xfffffefe
     d2c:	00005d45 	andeq	r5, r0, r5, asr #26
     d30:	29362701 	ldmdbcs	r6!, {r0, r8, r9, sl, sp}
     d34:	02000003 	andeq	r0, r0, #3
     d38:	80176891 	mulshi	r7, r1, r8
     d3c:	0100005d 	qaddeq	r0, sp, r0
     d40:	00950b29 	addseq	r0, r5, r9, lsr #22
     d44:	91020000 	mrsls	r0, (UNDEF: 2)
     d48:	52421874 	subpl	r1, r2, #116, 16	; 0x740000
     d4c:	29010052 	stmdbcs	r1, {r1, r4, r6}
     d50:	00009512 	andeq	r9, r0, r2, lsl r5
     d54:	70910200 	addsvc	r0, r1, r0, lsl #4
     d58:	85011900 	strhi	r1, [r1, #-2304]	; 0xfffff700
     d5c:	0100005d 	qaddeq	r0, sp, r0
     d60:	7d01090e 	vstrvc.16	s0, [r1, #-28]	; 0xffffffe4	; <UNPREDICTABLE>
	...
     d6c:	cc000000 	stcgt	0, cr0, [r0], {-0}
     d70:	01000008 	tsteq	r0, r8
     d74:	005c3315 	subseq	r3, ip, r5, lsl r3
     d78:	1e0e0100 	adfnee	f0, f6, f0
     d7c:	000003f2 	strdeq	r0, [r0], -r2
     d80:	00749102 	rsbseq	r9, r4, r2, lsl #2
     d84:	00037a00 	andeq	r7, r3, r0, lsl #20
     d88:	49000200 	stmdbmi	r0, {r9}
     d8c:	04000004 	streq	r0, [r0], #-4
     d90:	000edd01 	andeq	sp, lr, r1, lsl #26
     d94:	7ae60c00 	bvc	ff983d9c <_estack+0xdf98159c>
     d98:	27170000 	ldrcs	r0, [r7, -r0]
     d9c:	01180000 	tsteq	r8, r0
	...
     da8:	0b710000 	bleq	1c40db0 <_Min_Stack_Size+0x1c409b0>
     dac:	01cf0000 	biceq	r0, pc, r0
     db0:	01020000 	mrseq	r0, (UNDEF: 2)
     db4:	0017d802 	andseq	sp, r7, r2, lsl #16
     db8:	08010200 	stmdaeq	r1, {r9}
     dbc:	000037af 	andeq	r3, r0, pc, lsr #15
     dc0:	62070202 	andvs	r0, r7, #536870912	; 0x20000000
     dc4:	03000042 	movweq	r0, #66	; 0x42
     dc8:	00000108 	andeq	r0, r0, r8, lsl #2
     dcc:	55220802 	strpl	r0, [r2, #-2050]!	; 0xfffff7fe
     dd0:	02000000 	andeq	r0, r0, #0
     dd4:	3c9d0704 	ldccc	7, cr0, [sp], {4}
     dd8:	4e040000 	cdpmi	0, 0, cr0, cr4, cr0, {0}
     ddc:	02000000 	andeq	r0, r0, #0
     de0:	11e70704 	mvnne	r0, r4, lsl #14
     de4:	01020000 	mrseq	r0, (UNDEF: 2)
     de8:	0005c506 	andeq	ip, r5, r6, lsl #10
     dec:	05020200 	streq	r0, [r2, #-512]	; 0xfffffe00
     df0:	000006ce 	andeq	r0, r0, lr, asr #13
     df4:	69050405 	stmdbvs	r5, {r0, r2, sl}
     df8:	0200746e 	andeq	r7, r0, #1845493760	; 0x6e000000
     dfc:	44560504 	ldrbmi	r0, [r6], #-1284	; 0xfffffafc
     e00:	95030000 	strls	r0, [r3, #-0]
     e04:	02000013 	andeq	r0, r0, #19
     e08:	00342211 	eorseq	r2, r4, r1, lsl r2
     e0c:	09030000 	stmdbeq	r3, {}	; <UNPREDICTABLE>
     e10:	02000001 	andeq	r0, r0, #1
     e14:	004e2113 	subeq	r2, lr, r3, lsl r1
     e18:	04020000 	streq	r0, [r2], #-0
     e1c:	00871804 	addeq	r1, r7, r4, lsl #16
     e20:	04080200 	streq	r0, [r8], #-512	; 0xfffffe00
     e24:	00007647 	andeq	r7, r0, r7, asr #12
     e28:	41032806 	tstmi	r3, r6, lsl #16
     e2c:	00014209 	andeq	r4, r1, r9, lsl #4
     e30:	52430700 	subpl	r0, r3, #0, 14
     e34:	0c430300 	mcrreq	3, 0, r0, r3, cr0
     e38:	00000042 	andeq	r0, r0, r2, asr #32
     e3c:	08002302 	stmdaeq	r0, {r1, r8, r9, sp}
     e40:	00005e1b 	andeq	r5, r0, fp, lsl lr
     e44:	420c4403 	andmi	r4, ip, #50331648	; 0x3000000
     e48:	02000000 	andeq	r0, r0, #0
     e4c:	43070423 	movwmi	r0, #29731	; 0x7423
     e50:	03005249 	movweq	r5, #585	; 0x249
     e54:	00420c45 	subeq	r0, r2, r5, asr #24
     e58:	23020000 	movwcs	r0, #8192	; 0x2000
     e5c:	5f200808 	svcpl	0x00200808
     e60:	46030000 	strmi	r0, [r3], -r0
     e64:	0000420c 	andeq	r4, r0, ip, lsl #4
     e68:	0c230200 	sfmeq	f0, 4, [r3], #-0
     e6c:	005fbb08 	subseq	fp, pc, r8, lsl #22
     e70:	0c470300 	mcrreq	3, 0, r0, r7, cr0
     e74:	00000042 	andeq	r0, r0, r2, asr #32
     e78:	08102302 	ldmdaeq	r0, {r1, r8, r9, sp}
     e7c:	0000610d 	andeq	r6, r0, sp, lsl #2
     e80:	420c4803 	andmi	r4, ip, #196608	; 0x30000
     e84:	02000000 	andeq	r0, r0, #0
     e88:	53081423 	movwpl	r1, #33827	; 0x8423
     e8c:	0300005f 	movweq	r0, #95	; 0x5f
     e90:	00420c49 	subeq	r0, r2, r9, asr #24
     e94:	23020000 	movwcs	r0, #8192	; 0x2000
     e98:	5fc40818 	svcpl	0x00c40818
     e9c:	4a030000 	bmi	c0ea4 <_Min_Stack_Size+0xc0aa4>
     ea0:	0000420c 	andeq	r4, r0, ip, lsl #4
     ea4:	1c230200 	sfmne	f0, 4, [r3], #-0
     ea8:	005de108 	subseq	lr, sp, r8, lsl #2
     eac:	0c4b0300 	mcrreq	3, 0, r0, fp, cr0
     eb0:	00000042 	andeq	r0, r0, r2, asr #32
     eb4:	07202302 	streq	r2, [r0, -r2, lsl #6]!
     eb8:	00525343 	subseq	r5, r2, r3, asr #6
     ebc:	420c4c03 	andmi	r4, ip, #768	; 0x300
     ec0:	02000000 	andeq	r0, r0, #0
     ec4:	03002423 	movweq	r2, #1059	; 0x423
     ec8:	00005d5b 	andeq	r5, r0, fp, asr sp
     ecc:	a3024d03 	movwge	r4, #11523	; 0x2d03
     ed0:	06000000 	streq	r0, [r0], -r0
     ed4:	0950031c 	ldmdbeq	r0, {r2, r3, r4, r8, r9}^
     ed8:	000001c1 	andeq	r0, r0, r1, asr #3
     edc:	4c524307 	mrrcmi	3, 0, r4, r2, cr7
     ee0:	0c520300 	mrrceq	3, 0, r0, r2, cr0
     ee4:	00000042 	andeq	r0, r0, r2, asr #32
     ee8:	07002302 	streq	r2, [r0, -r2, lsl #6]
     eec:	00485243 	subeq	r5, r8, r3, asr #4
     ef0:	420c5303 	andmi	r5, ip, #201326592	; 0xc000000
     ef4:	02000000 	andeq	r0, r0, #0
     ef8:	49070423 	stmdbmi	r7, {r0, r1, r5, sl}
     efc:	03005244 	movweq	r5, #580	; 0x244
     f00:	00420c54 	subeq	r0, r2, r4, asr ip
     f04:	23020000 	movwcs	r0, #8192	; 0x2000
     f08:	444f0708 	strbmi	r0, [pc], #-1800	; f10 <_Min_Stack_Size+0xb10>
     f0c:	55030052 	strpl	r0, [r3, #-82]	; 0xffffffae
     f10:	0000420c 	andeq	r4, r0, ip, lsl #4
     f14:	0c230200 	sfmeq	f0, 4, [r3], #-0
     f18:	004de908 	subeq	lr, sp, r8, lsl #18
     f1c:	0c560300 	mrrceq	3, 0, r0, r6, cr0
     f20:	00000042 	andeq	r0, r0, r2, asr #32
     f24:	07102302 	ldreq	r2, [r0, -r2, lsl #6]
     f28:	00525242 	subseq	r5, r2, r2, asr #4
     f2c:	420c5703 	andmi	r5, ip, #786432	; 0xc0000
     f30:	02000000 	andeq	r0, r0, #0
     f34:	29081423 	stmdbcs	r8, {r0, r1, r5, sl, ip}
     f38:	0300002b 	movweq	r0, #43	; 0x2b
     f3c:	00420c58 	subeq	r0, r2, r8, asr ip
     f40:	23020000 	movwcs	r0, #8192	; 0x2000
     f44:	d3030018 	movwle	r0, #12312	; 0x3018
     f48:	03000007 	movweq	r0, #7
     f4c:	014e0259 	cmpeq	lr, r9, asr r2
     f50:	0c060000 	stceq	0, cr0, [r6], {-0}
     f54:	04098c03 	streq	r8, [r9], #-3075	; 0xfffff3fd
     f58:	08000002 	stmdaeq	r0, {r1}
     f5c:	00001e3d 	andeq	r1, r0, sp, lsr lr
     f60:	7d0c8e03 	stcvc	14, cr8, [ip, #-12]
     f64:	02000000 	andeq	r0, r0, #0
     f68:	be080023 	cdplt	0, 0, cr0, cr8, cr3, {1}
     f6c:	03000021 	movweq	r0, #33	; 0x21
     f70:	02040c8f 	andeq	r0, r4, #36608	; 0x8f00
     f74:	23020000 	movwcs	r0, #8192	; 0x2000
     f78:	43260804 			; <UNDEFINED> instruction: 0x43260804
     f7c:	90030000 	andls	r0, r3, r0
     f80:	00007d0c 	andeq	r7, r0, ip, lsl #26
     f84:	08230200 	stmdaeq	r3!, {r9}
     f88:	c1040900 	tstgt	r4, r0, lsl #18
     f8c:	03000001 	movweq	r0, #1
     f90:	0000406d 	andeq	r4, r0, sp, rrx
     f94:	cd029103 	stfgtd	f1, [r2, #-12]
     f98:	06000001 	streq	r0, [r0], -r1
     f9c:	090a0414 	stmdbeq	sl, {r2, r4, sl}
     fa0:	0000025c 	andeq	r0, r0, ip, asr r2
     fa4:	002d2808 	eoreq	r2, sp, r8, lsl #16
     fa8:	100e0400 	andne	r0, lr, r0, lsl #8
     fac:	0000020a 	andeq	r0, r0, sl, lsl #4
     fb0:	08002302 	stmdaeq	r0, {r1, r8, r9, sp}
     fb4:	000020b6 	strheq	r2, [r0], -r6
     fb8:	7d0d1204 	sfmvc	f1, 4, [sp, #-16]
     fbc:	02000000 	andeq	r0, r0, #0
     fc0:	87080c23 	strhi	r0, [r8, -r3, lsr #24]
     fc4:	04000042 	streq	r0, [r0], #-66	; 0xffffffbe
     fc8:	007d0d16 	rsbseq	r0, sp, r6, lsl sp
     fcc:	23020000 	movwcs	r0, #8192	; 0x2000
     fd0:	078a080d 	streq	r0, [sl, sp, lsl #16]
     fd4:	19040000 	stmdbne	r4, {}	; <UNPREDICTABLE>
     fd8:	00025e0c 	andeq	r5, r2, ip, lsl #28
     fdc:	10230200 	eorne	r0, r3, r0, lsl #4
     fe0:	09010a00 	stmdbeq	r1, {r9, fp}
     fe4:	00025c04 	andeq	r5, r2, r4, lsl #24
     fe8:	1bb10300 	blne	fec41bf0 <_estack+0xdec3f3f0>
     fec:	1b040000 	blne	100ff4 <_Min_Stack_Size+0x100bf4>
     ff0:	00021602 	andeq	r1, r2, r2, lsl #12
     ff4:	05080200 	streq	r0, [r8, #-512]	; 0xfffffe00
     ff8:	0000313e 	andeq	r3, r0, lr, lsr r1
     ffc:	d8070802 	stmdale	r7, {r1, fp}
    1000:	02000049 	andeq	r0, r0, #73	; 0x49
    1004:	646f0408 	strbtvs	r0, [pc], #-1032	; 100c <_Min_Stack_Size+0xc0c>
    1008:	01020000 	mrseq	r0, (UNDEF: 2)
    100c:	0005cc08 	andeq	ip, r5, r8, lsl #24
    1010:	7aa50b00 	bvc	fe943c18 <_estack+0xde941418>
    1014:	0c010000 	stceq	0, cr0, [r1], {-0}
    1018:	00007d09 	andeq	r7, r0, r9, lsl #26
    101c:	03050100 	movweq	r0, #20736	; 0x5100
    1020:	20000068 	andcs	r0, r0, r8, rrx
    1024:	00867b0b 	addeq	r7, r6, fp, lsl #22
    1028:	090d0100 	stmdbeq	sp, {r8}
    102c:	0000007d 	andeq	r0, r0, sp, ror r0
    1030:	69030501 	stmdbvs	r3, {r0, r8, sl}
    1034:	0b200000 	bleq	80103c <_Min_Stack_Size+0x800c3c>
    1038:	000062b0 			; <UNDEFINED> instruction: 0x000062b0
    103c:	7d090e01 	stcvc	14, cr0, [r9, #-4]
    1040:	01000000 	mrseq	r0, (UNDEF: 0)
    1044:	006a0305 	rsbeq	r0, sl, r5, lsl #6
    1048:	010c2000 	mrseq	r2, (UNDEF: 12)
    104c:	00002d66 	andeq	r2, r0, r6, ror #26
    1050:	01063a04 	tsteq	r6, r4, lsl #20
    1054:	0002da01 	andeq	sp, r2, r1, lsl #20
    1058:	02da0d00 	sbcseq	r0, sl, #0, 26
    105c:	09000000 	stmdbeq	r0, {}	; <UNPREDICTABLE>
    1060:	00026404 	andeq	r6, r2, r4, lsl #8
    1064:	08010e00 	stmdaeq	r1, {r9, sl, fp}
    1068:	01000070 	tsteq	r0, r0, ror r0
    106c:	6f010533 	svcvs	0x00010533
    1070:	50000000 	andpl	r0, r0, r0
    1074:	b8080009 	stmdalt	r8, {r0, r3}
    1078:	28080009 	stmdacs	r8, {r0, r3}
    107c:	01000009 	tsteq	r0, r9
    1080:	0000030f 	andeq	r0, r0, pc, lsl #6
    1084:	0072f00f 	rsbseq	pc, r2, pc
    1088:	13390100 	teqne	r9, #0, 2
    108c:	00000264 	andeq	r0, r0, r4, ror #4
    1090:	00649102 	rsbeq	r9, r4, r2, lsl #2
    1094:	87630110 			; <UNDEFINED> instruction: 0x87630110
    1098:	22010000 	andcs	r0, r1, #0
    109c:	09200106 	stmdbeq	r0!, {r1, r2, r8}
    10a0:	09500800 	ldmdbeq	r0, {fp}^
    10a4:	09600800 	stmdbeq	r0!, {fp}^
    10a8:	11010000 	mrsne	r0, (UNDEF: 1)
    10ac:	00a55501 	adceq	r5, r5, r1, lsl #10
    10b0:	06180100 	ldreq	r0, [r8], -r0, lsl #2
    10b4:	080008ec 	stmdaeq	r0, {r2, r3, r5, r6, r7, fp}
    10b8:	08000920 	stmdaeq	r0, {r5, r8, fp}
    10bc:	000009a4 	andeq	r0, r0, r4, lsr #19
    10c0:	62011201 	andvs	r1, r1, #268435456	; 0x10000000
    10c4:	0100006d 	tsteq	r0, sp, rrx
    10c8:	00010610 	andeq	r0, r1, r0, lsl r6
    10cc:	00000000 	andeq	r0, r0, r0
    10d0:	e8000000 	stmda	r0, {}	; <UNPREDICTABLE>
    10d4:	01000009 	tsteq	r0, r9
    10d8:	0095bd13 	addseq	fp, r5, r3, lsl sp
    10dc:	17100100 	ldrne	r0, [r0, -r0, lsl #2]
    10e0:	00000089 	andeq	r0, r0, r9, lsl #1
    10e4:	146c9102 	strbtne	r9, [ip], #-258	; 0xfffffefe
    10e8:	12010069 	andne	r0, r1, #105	; 0x69
    10ec:	0000890b 	andeq	r8, r0, fp, lsl #18
    10f0:	74910200 	ldrvc	r0, [r1], #512	; 0x200
    10f4:	01006a14 	tsteq	r0, r4, lsl sl
    10f8:	00890e12 	addeq	r0, r9, r2, lsl lr
    10fc:	91020000 	mrsls	r0, (UNDEF: 2)
    1100:	1e000070 	mcrne	0, 0, r0, cr0, cr0, {3}
    1104:	02000000 	andeq	r0, r0, #0
    1108:	00059b00 	andeq	r9, r5, r0, lsl #22
    110c:	6e010400 	cfcpysvs	mvf0, mvf1
    1110:	40000015 	andmi	r0, r0, r5, lsl r0
    1114:	90000001 	andls	r0, r0, r1
    1118:	170000a5 	strne	r0, [r0, -r5, lsr #1]
    111c:	b3000027 	movwlt	r0, #39	; 0x27
    1120:	010000a5 	smlatbeq	r0, r5, r0, r0
    1124:	Address 0x0000000000001124 is out of bounds.


Disassembly of section .debug_abbrev:

00000000 <.debug_abbrev>:
   0:	25011101 	strcs	r1, [r1, #-257]	; 0xfffffeff
   4:	030b130e 	movweq	r1, #45838	; 0xb30e
   8:	550e1b0e 	strpl	r1, [lr, #-2830]	; 0xfffff4f2
   c:	52011106 	andpl	r1, r1, #-2147483647	; 0x80000001
  10:	99061001 	stmdbls	r6, {r0, ip}
  14:	00000642 	andeq	r0, r0, r2, asr #12
  18:	0b002402 	bleq	9028 <_Min_Stack_Size+0x8c28>
  1c:	030b3e0b 	movweq	r3, #48651	; 0xbe0b
  20:	0300000e 	movweq	r0, #14
  24:	0e030016 	mcreq	0, 0, r0, cr3, cr6, {0}
  28:	0b3b0b3a 	bleq	ec2d18 <_Min_Stack_Size+0xec2918>
  2c:	13490b39 	movtne	r0, #39737	; 0x9b39
  30:	35040000 	strcc	r0, [r4, #-0]
  34:	00134900 	andseq	r4, r3, r0, lsl #18
  38:	00240500 	eoreq	r0, r4, r0, lsl #10
  3c:	0b3e0b0b 	bleq	f82c70 <_Min_Stack_Size+0xf82870>
  40:	00000803 	andeq	r0, r0, r3, lsl #16
  44:	0b011306 	bleq	44c64 <_Min_Stack_Size+0x44864>
  48:	3b0b3a0b 	blcc	2ce87c <_Min_Stack_Size+0x2ce47c>
  4c:	010b390b 	tsteq	fp, fp, lsl #18
  50:	07000013 	smladeq	r0, r3, r0, r0
  54:	0803000d 	stmdaeq	r3, {r0, r2, r3}
  58:	0b3b0b3a 	bleq	ec2d48 <_Min_Stack_Size+0xec2948>
  5c:	13490b39 	movtne	r0, #39737	; 0x9b39
  60:	00000a38 	andeq	r0, r0, r8, lsr sl
  64:	03000d08 	movweq	r0, #3336	; 0xd08
  68:	3b0b3a0e 	blcc	2ce8a8 <_Min_Stack_Size+0x2ce4a8>
  6c:	490b390b 	stmdbmi	fp, {r0, r1, r3, r8, fp, ip, sp}
  70:	000a3813 	andeq	r3, sl, r3, lsl r8
  74:	01010900 	tsteq	r1, r0, lsl #18
  78:	13011349 	movwne	r1, #4937	; 0x1349
  7c:	210a0000 	mrscs	r0, (UNDEF: 10)
  80:	2f134900 	svccs	0x00134900
  84:	0b00000b 	bleq	b8 <_Min_Heap_Size-0x148>
  88:	0b0b000f 	bleq	2c00cc <_Min_Stack_Size+0x2bfccc>
  8c:	00001349 	andeq	r1, r0, r9, asr #6
  90:	2700150c 	strcs	r1, [r0, -ip, lsl #10]
  94:	0d00000c 	stceq	0, cr0, [r0, #-48]	; 0xffffffd0
  98:	0e030034 	mcreq	0, 0, r0, cr3, cr4, {1}
  9c:	0b3b0b3a 	bleq	ec2d8c <_Min_Stack_Size+0xec298c>
  a0:	13490b39 	movtne	r0, #39737	; 0x9b39
  a4:	0a020c3f 	beq	831a8 <_Min_Stack_Size+0x82da8>
  a8:	2e0e0000 	cdpcs	0, 0, cr0, cr14, cr0, {0}
  ac:	030c3f01 	movweq	r3, #52993	; 0xcf01
  b0:	3b0b3a0e 	blcc	2ce8f0 <_Min_Stack_Size+0x2ce4f0>
  b4:	270b390b 	strcs	r3, [fp, -fp, lsl #18]
  b8:	010c3c0c 	tsteq	ip, ip, lsl #24
  bc:	0f000013 	svceq	0x00000013
  c0:	13490005 	movtne	r0, #36869	; 0x9005
  c4:	2e100000 	cdpcs	0, 1, cr0, cr0, cr0, {0}
  c8:	030c3f00 	movweq	r3, #52992	; 0xcf00
  cc:	3b0b3a0e 	blcc	2ce90c <_Min_Stack_Size+0x2ce50c>
  d0:	270b3905 	strcs	r3, [fp, -r5, lsl #18]
  d4:	1201110c 	andne	r1, r1, #12, 2
  d8:	96064001 	strls	r4, [r6], -r1
  dc:	00000c42 	andeq	r0, r0, r2, asr #24
  e0:	3f002e11 	svccc	0x00002e11
  e4:	3a0e030c 	bcc	380d1c <_Min_Stack_Size+0x38091c>
  e8:	390b3b0b 	stmdbcc	fp, {r0, r1, r3, r8, r9, fp, ip, sp}
  ec:	110c270b 	tstne	ip, fp, lsl #14
  f0:	40011201 	andmi	r1, r1, r1, lsl #4
  f4:	0c429606 	mcrreq	6, 0, r9, r2, cr6
  f8:	2e120000 	cdpcs	0, 1, cr0, cr2, cr0, {0}
  fc:	030c3f01 	movweq	r3, #52993	; 0xcf01
 100:	3b0b3a0e 	blcc	2ce940 <_Min_Stack_Size+0x2ce540>
 104:	270b390b 	strcs	r3, [fp, -fp, lsl #18]
 108:	1201110c 	andne	r1, r1, #12, 2
 10c:	96064001 	strls	r4, [r6], -r1
 110:	13010c42 	movwne	r0, #7234	; 0x1c42
 114:	05130000 	ldreq	r0, [r3, #-0]
 118:	3a0e0300 	bcc	380d20 <_Min_Stack_Size+0x380920>
 11c:	390b3b0b 	stmdbcc	fp, {r0, r1, r3, r8, r9, fp, ip, sp}
 120:	0213490b 	andseq	r4, r3, #180224	; 0x2c000
 124:	1400000a 	strne	r0, [r0], #-10
 128:	0c3f002e 	ldceq	0, cr0, [pc], #-184	; 78 <_Min_Heap_Size-0x188>
 12c:	0b3a0e03 	bleq	e83940 <_Min_Stack_Size+0xe83540>
 130:	0b390b3b 	bleq	e42e24 <_Min_Stack_Size+0xe42a24>
 134:	01110c27 	tsteq	r1, r7, lsr #24
 138:	06400112 			; <UNDEFINED> instruction: 0x06400112
 13c:	000c4297 	muleq	ip, r7, r2
 140:	012e1500 			; <UNDEFINED> instruction: 0x012e1500
 144:	0b3a0e03 	bleq	e83958 <_Min_Stack_Size+0xe83558>
 148:	0b390b3b 	bleq	e42e3c <_Min_Stack_Size+0xe42a3c>
 14c:	01110c27 	tsteq	r1, r7, lsr #24
 150:	06400112 			; <UNDEFINED> instruction: 0x06400112
 154:	010c4296 			; <UNDEFINED> instruction: 0x010c4296
 158:	16000013 			; <UNDEFINED> instruction: 0x16000013
 15c:	0e030034 	mcreq	0, 0, r0, cr3, cr4, {1}
 160:	0b3b0b3a 	bleq	ec2e50 <_Min_Stack_Size+0xec2a50>
 164:	13490b39 	movtne	r0, #39737	; 0x9b39
 168:	00000a02 	andeq	r0, r0, r2, lsl #20
 16c:	03012e17 	movweq	r2, #7703	; 0x1e17
 170:	3b0b3a0e 	blcc	2ce9b0 <_Min_Stack_Size+0x2ce5b0>
 174:	270b390b 	strcs	r3, [fp, -fp, lsl #18]
 178:	1201110c 	andne	r1, r1, #12, 2
 17c:	97064001 	strls	r4, [r6, -r1]
 180:	13010c42 	movwne	r0, #7234	; 0x1c42
 184:	2e180000 	cdpcs	0, 1, cr0, cr8, cr0, {0}
 188:	3a0e0301 	bcc	380d94 <_Min_Stack_Size+0x380994>
 18c:	390b3b0b 	stmdbcc	fp, {r0, r1, r3, r8, r9, fp, ip, sp}
 190:	110c270b 	tstne	ip, fp, lsl #14
 194:	40011201 	andmi	r1, r1, r1, lsl #4
 198:	0c429706 	mcrreq	7, 0, r9, r2, cr6
 19c:	01000000 	mrseq	r0, (UNDEF: 0)
 1a0:	0e250111 	mcreq	1, 1, r0, cr5, cr1, {0}
 1a4:	0e030b13 	vmoveq.32	d3[0], r0
 1a8:	06550e1b 			; <UNDEFINED> instruction: 0x06550e1b
 1ac:	01520111 	cmpeq	r2, r1, lsl r1
 1b0:	42990610 	addsmi	r0, r9, #16, 12	; 0x1000000
 1b4:	02000006 	andeq	r0, r0, #6
 1b8:	0b0b0024 	bleq	2c0250 <_Min_Stack_Size+0x2bfe50>
 1bc:	0e030b3e 	vmoveq.16	d3[0], r0
 1c0:	16030000 	strne	r0, [r3], -r0
 1c4:	3a0e0300 	bcc	380dcc <_Min_Stack_Size+0x3809cc>
 1c8:	390b3b0b 	stmdbcc	fp, {r0, r1, r3, r8, r9, fp, ip, sp}
 1cc:	0013490b 	andseq	r4, r3, fp, lsl #18
 1d0:	00350400 	eorseq	r0, r5, r0, lsl #8
 1d4:	00001349 	andeq	r1, r0, r9, asr #6
 1d8:	0b002405 	bleq	91f4 <_Min_Stack_Size+0x8df4>
 1dc:	030b3e0b 	movweq	r3, #48651	; 0xbe0b
 1e0:	06000008 	streq	r0, [r0], -r8
 1e4:	0b0b0113 	bleq	2c0638 <_Min_Stack_Size+0x2c0238>
 1e8:	0b3b0b3a 	bleq	ec2ed8 <_Min_Stack_Size+0xec2ad8>
 1ec:	13010b39 	movwne	r0, #6969	; 0x1b39
 1f0:	0d070000 	stceq	0, cr0, [r7, #-0]
 1f4:	3a080300 	bcc	200dfc <_Min_Stack_Size+0x2009fc>
 1f8:	390b3b0b 	stmdbcc	fp, {r0, r1, r3, r8, r9, fp, ip, sp}
 1fc:	3813490b 	ldmdacc	r3, {r0, r1, r3, r8, fp, lr}
 200:	0800000a 	stmdaeq	r0, {r1, r3}
 204:	0e03000d 	cdpeq	0, 0, cr0, cr3, cr13, {0}
 208:	0b3b0b3a 	bleq	ec2ef8 <_Min_Stack_Size+0xec2af8>
 20c:	13490b39 	movtne	r0, #39737	; 0x9b39
 210:	00000a38 	andeq	r0, r0, r8, lsr sl
 214:	0b000f09 	bleq	3e40 <_Min_Stack_Size+0x3a40>
 218:	0013490b 	andseq	r4, r3, fp, lsl #18
 21c:	012e0a00 			; <UNDEFINED> instruction: 0x012e0a00
 220:	0e030c3f 	mcreq	12, 0, r0, cr3, cr15, {1}
 224:	0b3b0b3a 	bleq	ec2f14 <_Min_Stack_Size+0xec2b14>
 228:	0c270b39 			; <UNDEFINED> instruction: 0x0c270b39
 22c:	01111349 	tsteq	r1, r9, asr #6
 230:	06400112 			; <UNDEFINED> instruction: 0x06400112
 234:	010c4297 			; <UNDEFINED> instruction: 0x010c4297
 238:	0b000013 	bleq	28c <_Min_Heap_Size+0x8c>
 23c:	0e030005 	cdpeq	0, 0, cr0, cr3, cr5, {0}
 240:	0b3b0b3a 	bleq	ec2f30 <_Min_Stack_Size+0xec2b30>
 244:	13490b39 	movtne	r0, #39737	; 0x9b39
 248:	00000a02 	andeq	r0, r0, r2, lsl #20
 24c:	0300340c 	movweq	r3, #1036	; 0x40c
 250:	3b0b3a0e 	blcc	2cea90 <_Min_Stack_Size+0x2ce690>
 254:	490b390b 	stmdbmi	fp, {r0, r1, r3, r8, fp, ip, sp}
 258:	000a0213 	andeq	r0, sl, r3, lsl r2
 25c:	012e0d00 			; <UNDEFINED> instruction: 0x012e0d00
 260:	0e030c3f 	mcreq	12, 0, r0, cr3, cr15, {1}
 264:	0b3b0b3a 	bleq	ec2f54 <_Min_Stack_Size+0xec2b54>
 268:	0c270b39 			; <UNDEFINED> instruction: 0x0c270b39
 26c:	01120111 	tsteq	r2, r1, lsl r1
 270:	42970640 	addsmi	r0, r7, #64, 12	; 0x4000000
 274:	0013010c 	andseq	r0, r3, ip, lsl #2
 278:	012e0e00 			; <UNDEFINED> instruction: 0x012e0e00
 27c:	0e030c3f 	mcreq	12, 0, r0, cr3, cr15, {1}
 280:	0b3b0b3a 	bleq	ec2f70 <_Min_Stack_Size+0xec2b70>
 284:	0c270b39 			; <UNDEFINED> instruction: 0x0c270b39
 288:	01120111 	tsteq	r2, r1, lsl r1
 28c:	42960640 	addsmi	r0, r6, #64, 12	; 0x4000000
 290:	0013010c 	andseq	r0, r3, ip, lsl #2
 294:	012e0f00 			; <UNDEFINED> instruction: 0x012e0f00
 298:	0b3a0e03 	bleq	e83aac <_Min_Stack_Size+0xe836ac>
 29c:	0b390b3b 	bleq	e42f90 <_Min_Stack_Size+0xe42b90>
 2a0:	13490c27 	movtne	r0, #39975	; 0x9c27
 2a4:	01120111 	tsteq	r2, r1, lsl r1
 2a8:	42970640 	addsmi	r0, r7, #64, 12	; 0x4000000
 2ac:	0000000c 	andeq	r0, r0, ip
 2b0:	25011101 	strcs	r1, [r1, #-257]	; 0xfffffeff
 2b4:	030b130e 	movweq	r1, #45838	; 0xb30e
 2b8:	550e1b0e 	strpl	r1, [lr, #-2830]	; 0xfffff4f2
 2bc:	52011106 	andpl	r1, r1, #-2147483647	; 0x80000001
 2c0:	99061001 	stmdbls	r6, {r0, ip}
 2c4:	00000642 	andeq	r0, r0, r2, asr #12
 2c8:	0b002402 	bleq	92d8 <_Min_Stack_Size+0x8ed8>
 2cc:	030b3e0b 	movweq	r3, #48651	; 0xbe0b
 2d0:	0300000e 	movweq	r0, #14
 2d4:	0e030016 	mcreq	0, 0, r0, cr3, cr6, {0}
 2d8:	0b3b0b3a 	bleq	ec2fc8 <_Min_Stack_Size+0xec2bc8>
 2dc:	13490b39 	movtne	r0, #39737	; 0x9b39
 2e0:	35040000 	strcc	r0, [r4, #-0]
 2e4:	00134900 	andseq	r4, r3, r0, lsl #18
 2e8:	00240500 	eoreq	r0, r4, r0, lsl #10
 2ec:	0b3e0b0b 	bleq	f82f20 <_Min_Stack_Size+0xf82b20>
 2f0:	00000803 	andeq	r0, r0, r3, lsl #16
 2f4:	0b011306 	bleq	44f14 <_Min_Stack_Size+0x44b14>
 2f8:	3b0b3a0b 	blcc	2ceb2c <_Min_Stack_Size+0x2ce72c>
 2fc:	010b390b 	tsteq	fp, fp, lsl #18
 300:	07000013 	smladeq	r0, r3, r0, r0
 304:	0803000d 	stmdaeq	r3, {r0, r2, r3}
 308:	0b3b0b3a 	bleq	ec2ff8 <_Min_Stack_Size+0xec2bf8>
 30c:	13490b39 	movtne	r0, #39737	; 0x9b39
 310:	00000a38 	andeq	r0, r0, r8, lsr sl
 314:	03000d08 	movweq	r0, #3336	; 0xd08
 318:	3b0b3a0e 	blcc	2ceb58 <_Min_Stack_Size+0x2ce758>
 31c:	490b390b 	stmdbmi	fp, {r0, r1, r3, r8, fp, ip, sp}
 320:	000a3813 	andeq	r3, sl, r3, lsl r8
 324:	000f0900 	andeq	r0, pc, r0, lsl #18
 328:	13490b0b 	movtne	r0, #39691	; 0x9b0b
 32c:	150a0000 	strne	r0, [sl, #-0]
 330:	000c2700 	andeq	r2, ip, r0, lsl #14
 334:	01040b00 	tsteq	r4, r0, lsl #22
 338:	0b0b0b3e 	bleq	2c3038 <_Min_Stack_Size+0x2c2c38>
 33c:	0b3a1349 	bleq	e85068 <_Min_Stack_Size+0xe84c68>
 340:	0b390b3b 	bleq	e43034 <_Min_Stack_Size+0xe42c34>
 344:	00001301 	andeq	r1, r0, r1, lsl #6
 348:	0300280c 	movweq	r2, #2060	; 0x80c
 34c:	000b1c0e 	andeq	r1, fp, lr, lsl #24
 350:	01010d00 	tsteq	r1, r0, lsl #26
 354:	13011349 	movwne	r1, #4937	; 0x1349
 358:	210e0000 	mrscs	r0, (UNDEF: 14)
 35c:	2f134900 	svccs	0x00134900
 360:	0f00000b 	svceq	0x0000000b
 364:	0e030034 	mcreq	0, 0, r0, cr3, cr4, {1}
 368:	0b3b0b3a 	bleq	ec3058 <_Min_Stack_Size+0xec2c58>
 36c:	13490b39 	movtne	r0, #39737	; 0x9b39
 370:	0a020c3f 	beq	83474 <_Min_Stack_Size+0x83074>
 374:	2e100000 	cdpcs	0, 1, cr0, cr0, cr0, {0}
 378:	030c3f01 	movweq	r3, #52993	; 0xcf01
 37c:	3b0b3a0e 	blcc	2cebbc <_Min_Stack_Size+0x2ce7bc>
 380:	270b390b 	strcs	r3, [fp, -fp, lsl #18]
 384:	010c3c0c 	tsteq	ip, ip, lsl #24
 388:	11000013 	tstne	r0, r3, lsl r0
 38c:	13490005 	movtne	r0, #36869	; 0x9005
 390:	2e120000 	cdpcs	0, 1, cr0, cr2, cr0, {0}
 394:	030c3f00 	movweq	r3, #52992	; 0xcf00
 398:	3b0b3a0e 	blcc	2cebd8 <_Min_Stack_Size+0x2ce7d8>
 39c:	270b390b 	strcs	r3, [fp, -fp, lsl #18]
 3a0:	3c13490c 			; <UNDEFINED> instruction: 0x3c13490c
 3a4:	1300000c 	movwne	r0, #12
 3a8:	0c3f002e 	ldceq	0, cr0, [pc], #-184	; 2f8 <_Min_Heap_Size+0xf8>
 3ac:	0b3a0e03 	bleq	e83bc0 <_Min_Stack_Size+0xe837c0>
 3b0:	0b39053b 	bleq	e418a4 <_Min_Stack_Size+0xe414a4>
 3b4:	01110c27 	tsteq	r1, r7, lsr #24
 3b8:	06400112 			; <UNDEFINED> instruction: 0x06400112
 3bc:	000c4296 	muleq	ip, r6, r2
 3c0:	012e1400 			; <UNDEFINED> instruction: 0x012e1400
 3c4:	0e030c3f 	mcreq	12, 0, r0, cr3, cr15, {1}
 3c8:	0b3b0b3a 	bleq	ec30b8 <_Min_Stack_Size+0xec2cb8>
 3cc:	0c270b39 			; <UNDEFINED> instruction: 0x0c270b39
 3d0:	01120111 	tsteq	r2, r1, lsl r1
 3d4:	42960640 	addsmi	r0, r6, #64, 12	; 0x4000000
 3d8:	0013010c 	andseq	r0, r3, ip, lsl #2
 3dc:	00051500 	andeq	r1, r5, r0, lsl #10
 3e0:	0b3a0e03 	bleq	e83bf4 <_Min_Stack_Size+0xe837f4>
 3e4:	0b390b3b 	bleq	e430d8 <_Min_Stack_Size+0xe42cd8>
 3e8:	0a021349 	beq	85114 <_Min_Stack_Size+0x84d14>
 3ec:	2e160000 	cdpcs	0, 1, cr0, cr6, cr0, {0}
 3f0:	030c3f01 	movweq	r3, #52993	; 0xcf01
 3f4:	3b0b3a0e 	blcc	2cec34 <_Min_Stack_Size+0x2ce834>
 3f8:	270b390b 	strcs	r3, [fp, -fp, lsl #18]
 3fc:	1201110c 	andne	r1, r1, #12, 2
 400:	97064001 	strls	r4, [r6, -r1]
 404:	13010c42 	movwne	r0, #7234	; 0x1c42
 408:	34170000 	ldrcc	r0, [r7], #-0
 40c:	3a0e0300 	bcc	381014 <_Min_Stack_Size+0x380c14>
 410:	390b3b0b 	stmdbcc	fp, {r0, r1, r3, r8, r9, fp, ip, sp}
 414:	0213490b 	andseq	r4, r3, #180224	; 0x2c000
 418:	1800000a 	stmdane	r0, {r1, r3}
 41c:	08030034 	stmdaeq	r3, {r2, r4, r5}
 420:	0b3b0b3a 	bleq	ec3110 <_Min_Stack_Size+0xec2d10>
 424:	13490b39 	movtne	r0, #39737	; 0x9b39
 428:	00000a02 	andeq	r0, r0, r2, lsl #20
 42c:	3f012e19 	svccc	0x00012e19
 430:	3a0e030c 	bcc	381068 <_Min_Stack_Size+0x380c68>
 434:	390b3b0b 	stmdbcc	fp, {r0, r1, r3, r8, r9, fp, ip, sp}
 438:	490c270b 	stmdbmi	ip, {r0, r1, r3, r8, r9, sl, sp}
 43c:	12011113 	andne	r1, r1, #-1073741820	; 0xc0000004
 440:	97064001 	strls	r4, [r6, -r1]
 444:	00000c42 	andeq	r0, r0, r2, asr #24
 448:	01110100 	tsteq	r1, r0, lsl #2
 44c:	0b130e25 	bleq	4c3ce8 <_Min_Stack_Size+0x4c38e8>
 450:	0e1b0e03 	cdpeq	14, 1, cr0, cr11, cr3, {0}
 454:	01110655 	tsteq	r1, r5, asr r6
 458:	06100152 			; <UNDEFINED> instruction: 0x06100152
 45c:	00064299 	muleq	r6, r9, r2
 460:	00240200 	eoreq	r0, r4, r0, lsl #4
 464:	0b3e0b0b 	bleq	f83098 <_Min_Stack_Size+0xf82c98>
 468:	00000e03 	andeq	r0, r0, r3, lsl #28
 46c:	03001603 	movweq	r1, #1539	; 0x603
 470:	3b0b3a0e 	blcc	2cecb0 <_Min_Stack_Size+0x2ce8b0>
 474:	490b390b 	stmdbmi	fp, {r0, r1, r3, r8, fp, ip, sp}
 478:	04000013 	streq	r0, [r0], #-19	; 0xffffffed
 47c:	13490035 	movtne	r0, #36917	; 0x9035
 480:	24050000 	strcs	r0, [r5], #-0
 484:	3e0b0b00 	vmlacc.f64	d0, d11, d0
 488:	0008030b 	andeq	r0, r8, fp, lsl #6
 48c:	01130600 	tsteq	r3, r0, lsl #12
 490:	0b3a0b0b 	bleq	e830c4 <_Min_Stack_Size+0xe82cc4>
 494:	0b390b3b 	bleq	e43188 <_Min_Stack_Size+0xe42d88>
 498:	00001301 	andeq	r1, r0, r1, lsl #6
 49c:	03000d07 	movweq	r0, #3335	; 0xd07
 4a0:	3b0b3a08 	blcc	2cecc8 <_Min_Stack_Size+0x2ce8c8>
 4a4:	490b390b 	stmdbmi	fp, {r0, r1, r3, r8, fp, ip, sp}
 4a8:	000a3813 	andeq	r3, sl, r3, lsl r8
 4ac:	000d0800 	andeq	r0, sp, r0, lsl #16
 4b0:	0b3a0e03 	bleq	e83cc4 <_Min_Stack_Size+0xe838c4>
 4b4:	0b390b3b 	bleq	e431a8 <_Min_Stack_Size+0xe42da8>
 4b8:	0a381349 	beq	e051e4 <_Min_Stack_Size+0xe04de4>
 4bc:	0f090000 	svceq	0x00090000
 4c0:	490b0b00 	stmdbmi	fp, {r8, r9, fp}
 4c4:	0a000013 	beq	518 <_Min_Stack_Size+0x118>
 4c8:	0c270015 	stceq	0, cr0, [r7], #-84	; 0xffffffac
 4cc:	340b0000 	strcc	r0, [fp], #-0
 4d0:	3a0e0300 	bcc	3810d8 <_Min_Stack_Size+0x380cd8>
 4d4:	390b3b0b 	stmdbcc	fp, {r0, r1, r3, r8, r9, fp, ip, sp}
 4d8:	3f13490b 	svccc	0x0013490b
 4dc:	000a020c 	andeq	r0, sl, ip, lsl #4
 4e0:	012e0c00 			; <UNDEFINED> instruction: 0x012e0c00
 4e4:	0e030c3f 	mcreq	12, 0, r0, cr3, cr15, {1}
 4e8:	0b3b0b3a 	bleq	ec31d8 <_Min_Stack_Size+0xec2dd8>
 4ec:	0c270b39 			; <UNDEFINED> instruction: 0x0c270b39
 4f0:	13010c3c 	movwne	r0, #7228	; 0x1c3c
 4f4:	050d0000 	streq	r0, [sp, #-0]
 4f8:	00134900 	andseq	r4, r3, r0, lsl #18
 4fc:	012e0e00 			; <UNDEFINED> instruction: 0x012e0e00
 500:	0e030c3f 	mcreq	12, 0, r0, cr3, cr15, {1}
 504:	0b3b0b3a 	bleq	ec31f4 <_Min_Stack_Size+0xec2df4>
 508:	0c270b39 			; <UNDEFINED> instruction: 0x0c270b39
 50c:	01111349 	tsteq	r1, r9, asr #6
 510:	06400112 			; <UNDEFINED> instruction: 0x06400112
 514:	010c4296 			; <UNDEFINED> instruction: 0x010c4296
 518:	0f000013 	svceq	0x00000013
 51c:	0e030034 	mcreq	0, 0, r0, cr3, cr4, {1}
 520:	0b3b0b3a 	bleq	ec3210 <_Min_Stack_Size+0xec2e10>
 524:	13490b39 	movtne	r0, #39737	; 0x9b39
 528:	00000a02 	andeq	r0, r0, r2, lsl #20
 52c:	3f002e10 	svccc	0x00002e10
 530:	3a0e030c 	bcc	381168 <_Min_Stack_Size+0x380d68>
 534:	390b3b0b 	stmdbcc	fp, {r0, r1, r3, r8, r9, fp, ip, sp}
 538:	110c270b 	tstne	ip, fp, lsl #14
 53c:	40011201 	andmi	r1, r1, r1, lsl #4
 540:	0c429706 	mcrreq	7, 0, r9, r2, cr6
 544:	2e110000 	cdpcs	0, 1, cr0, cr1, cr0, {0}
 548:	030c3f00 	movweq	r3, #52992	; 0xcf00
 54c:	3b0b3a0e 	blcc	2ced8c <_Min_Stack_Size+0x2ce98c>
 550:	110b390b 	tstne	fp, fp, lsl #18
 554:	40011201 	andmi	r1, r1, r1, lsl #4
 558:	0c429706 	mcrreq	7, 0, r9, r2, cr6
 55c:	2e120000 	cdpcs	0, 1, cr0, cr2, cr0, {0}
 560:	030c3f01 	movweq	r3, #52993	; 0xcf01
 564:	3b0b3a0e 	blcc	2ceda4 <_Min_Stack_Size+0x2ce9a4>
 568:	270b390b 	strcs	r3, [fp, -fp, lsl #18]
 56c:	1201110c 	andne	r1, r1, #12, 2
 570:	97064001 	strls	r4, [r6, -r1]
 574:	00000c42 	andeq	r0, r0, r2, asr #24
 578:	03000513 	movweq	r0, #1299	; 0x513
 57c:	3b0b3a0e 	blcc	2cedbc <_Min_Stack_Size+0x2ce9bc>
 580:	490b390b 	stmdbmi	fp, {r0, r1, r3, r8, fp, ip, sp}
 584:	000a0213 	andeq	r0, sl, r3, lsl r2
 588:	00341400 	eorseq	r1, r4, r0, lsl #8
 58c:	0b3a0803 	bleq	e825a0 <_Min_Stack_Size+0xe821a0>
 590:	0b390b3b 	bleq	e43284 <_Min_Stack_Size+0xe42e84>
 594:	0a021349 	beq	852c0 <_Min_Stack_Size+0x84ec0>
 598:	01000000 	mrseq	r0, (UNDEF: 0)
 59c:	06100011 			; <UNDEFINED> instruction: 0x06100011
 5a0:	0e030655 	mcreq	6, 0, r0, cr3, cr5, {2}
 5a4:	0e250e1b 	mcreq	14, 1, r0, cr5, cr11, {0}
 5a8:	00000513 	andeq	r0, r0, r3, lsl r5
	...

Disassembly of section .debug_loc:

00000000 <.debug_loc>:
   0:	0800069c 	stmdaeq	r0, {r2, r3, r4, r7, r9, sl}
   4:	0800069e 	stmdaeq	r0, {r1, r2, r3, r4, r7, r9, sl}
   8:	007d0002 	rsbseq	r0, sp, r2
   c:	0800069e 	stmdaeq	r0, {r1, r2, r3, r4, r7, r9, sl}
  10:	080006a0 	stmdaeq	r0, {r5, r7, r9, sl}
  14:	087d0002 	ldmdaeq	sp!, {r1}^
  18:	080006a0 	stmdaeq	r0, {r5, r7, r9, sl}
  1c:	08000790 	stmdaeq	r0, {r4, r7, r8, r9, sl}
  20:	08770002 	ldmdaeq	r7!, {r1}^
	...
  2c:	080005cc 	stmdaeq	r0, {r2, r3, r6, r7, r8, sl}
  30:	080005ce 	stmdaeq	r0, {r1, r2, r3, r6, r7, r8, sl}
  34:	007d0002 	rsbseq	r0, sp, r2
  38:	080005ce 	stmdaeq	r0, {r1, r2, r3, r6, r7, r8, sl}
  3c:	080005d0 	stmdaeq	r0, {r4, r6, r7, r8, sl}
  40:	087d0002 	ldmdaeq	sp!, {r1}^
  44:	080005d0 	stmdaeq	r0, {r4, r6, r7, r8, sl}
  48:	0800069c 	stmdaeq	r0, {r2, r3, r4, r7, r9, sl}
  4c:	08770002 	ldmdaeq	r7!, {r1}^
	...
  58:	080005a0 	stmdaeq	r0, {r5, r7, r8, sl}
  5c:	080005a2 	stmdaeq	r0, {r1, r5, r7, r8, sl}
  60:	007d0002 	rsbseq	r0, sp, r2
  64:	080005a2 	stmdaeq	r0, {r1, r5, r7, r8, sl}
  68:	080005a4 	stmdaeq	r0, {r2, r5, r7, r8, sl}
  6c:	087d0002 	ldmdaeq	sp!, {r1}^
  70:	080005a4 	stmdaeq	r0, {r2, r5, r7, r8, sl}
  74:	080005cc 	stmdaeq	r0, {r2, r3, r6, r7, r8, sl}
  78:	08770002 	ldmdaeq	r7!, {r1}^
	...
  84:	08000574 	stmdaeq	r0, {r2, r4, r5, r6, r8, sl}
  88:	08000576 	stmdaeq	r0, {r1, r2, r4, r5, r6, r8, sl}
  8c:	007d0002 	rsbseq	r0, sp, r2
  90:	08000576 	stmdaeq	r0, {r1, r2, r4, r5, r6, r8, sl}
  94:	08000578 	stmdaeq	r0, {r3, r4, r5, r6, r8, sl}
  98:	087d0002 	ldmdaeq	sp!, {r1}^
  9c:	08000578 	stmdaeq	r0, {r3, r4, r5, r6, r8, sl}
  a0:	080005a0 	stmdaeq	r0, {r5, r7, r8, sl}
  a4:	08770002 	ldmdaeq	r7!, {r1}^
	...
  b0:	08000548 	stmdaeq	r0, {r3, r6, r8, sl}
  b4:	0800054a 	stmdaeq	r0, {r1, r3, r6, r8, sl}
  b8:	007d0002 	rsbseq	r0, sp, r2
  bc:	0800054a 	stmdaeq	r0, {r1, r3, r6, r8, sl}
  c0:	0800054c 	stmdaeq	r0, {r2, r3, r6, r8, sl}
  c4:	087d0002 	ldmdaeq	sp!, {r1}^
  c8:	0800054c 	stmdaeq	r0, {r2, r3, r6, r8, sl}
  cc:	08000574 	stmdaeq	r0, {r2, r4, r5, r6, r8, sl}
  d0:	08770002 	ldmdaeq	r7!, {r1}^
	...
  dc:	0800051c 	stmdaeq	r0, {r2, r3, r4, r8, sl}
  e0:	0800051e 	stmdaeq	r0, {r1, r2, r3, r4, r8, sl}
  e4:	007d0002 	rsbseq	r0, sp, r2
  e8:	0800051e 	stmdaeq	r0, {r1, r2, r3, r4, r8, sl}
  ec:	08000520 	stmdaeq	r0, {r5, r8, sl}
  f0:	087d0002 	ldmdaeq	sp!, {r1}^
  f4:	08000520 	stmdaeq	r0, {r5, r8, sl}
  f8:	08000548 	stmdaeq	r0, {r3, r6, r8, sl}
  fc:	08770002 	ldmdaeq	r7!, {r1}^
	...
 108:	080004f0 	stmdaeq	r0, {r4, r5, r6, r7, sl}
 10c:	080004f2 	stmdaeq	r0, {r1, r4, r5, r6, r7, sl}
 110:	007d0002 	rsbseq	r0, sp, r2
 114:	080004f2 	stmdaeq	r0, {r1, r4, r5, r6, r7, sl}
 118:	080004f4 	stmdaeq	r0, {r2, r4, r5, r6, r7, sl}
 11c:	087d0002 	ldmdaeq	sp!, {r1}^
 120:	080004f4 	stmdaeq	r0, {r2, r4, r5, r6, r7, sl}
 124:	0800051c 	stmdaeq	r0, {r2, r3, r4, r8, sl}
 128:	08770002 	ldmdaeq	r7!, {r1}^
	...
 13c:	007d0002 	rsbseq	r0, sp, r2
	...
 148:	087d0002 	ldmdaeq	sp!, {r1}^
	...
 154:	107d0002 	rsbsne	r0, sp, r2
	...
 160:	10770002 	rsbsne	r0, r7, r2
	...
 16c:	08770002 	ldmdaeq	r7!, {r1}^
	...
 178:	087d0002 	ldmdaeq	sp!, {r1}^
	...
 18c:	007d0002 	rsbseq	r0, sp, r2
	...
 198:	047d0002 	ldrbteq	r0, [sp], #-2
	...
 1a4:	04770002 	ldrbteq	r0, [r7], #-2
	...
 1b0:	047d0002 	ldrbteq	r0, [sp], #-2
	...
 1bc:	007d0002 	rsbseq	r0, sp, r2
	...
 1c8:	080004d8 	stmdaeq	r0, {r3, r4, r6, r7, sl}
 1cc:	080004da 	stmdaeq	r0, {r1, r3, r4, r6, r7, sl}
 1d0:	007d0002 	rsbseq	r0, sp, r2
 1d4:	080004da 	stmdaeq	r0, {r1, r3, r4, r6, r7, sl}
 1d8:	080004dc 	stmdaeq	r0, {r2, r3, r4, r6, r7, sl}
 1dc:	087d0002 	ldmdaeq	sp!, {r1}^
 1e0:	080004dc 	stmdaeq	r0, {r2, r3, r4, r6, r7, sl}
 1e4:	080004de 	stmdaeq	r0, {r1, r2, r3, r4, r6, r7, sl}
 1e8:	107d0002 	rsbsne	r0, sp, r2
 1ec:	080004de 	stmdaeq	r0, {r1, r2, r3, r4, r6, r7, sl}
 1f0:	080004ea 	stmdaeq	r0, {r1, r3, r5, r6, r7, sl}
 1f4:	10770002 	rsbsne	r0, r7, r2
 1f8:	080004ea 	stmdaeq	r0, {r1, r3, r5, r6, r7, sl}
 1fc:	080004ec 	stmdaeq	r0, {r2, r3, r5, r6, r7, sl}
 200:	08770002 	ldmdaeq	r7!, {r1}^
 204:	080004ec 	stmdaeq	r0, {r2, r3, r5, r6, r7, sl}
 208:	080004ee 	stmdaeq	r0, {r1, r2, r3, r5, r6, r7, sl}
 20c:	087d0002 	ldmdaeq	sp!, {r1}^
	...
 218:	08000308 	stmdaeq	r0, {r3, r8, r9}
 21c:	0800030a 	stmdaeq	r0, {r1, r3, r8, r9}
 220:	007d0002 	rsbseq	r0, sp, r2
 224:	0800030a 	stmdaeq	r0, {r1, r3, r8, r9}
 228:	0800030c 	stmdaeq	r0, {r2, r3, r8, r9}
 22c:	087d0002 	ldmdaeq	sp!, {r1}^
 230:	0800030c 	stmdaeq	r0, {r2, r3, r8, r9}
 234:	0800030e 	stmdaeq	r0, {r1, r2, r3, r8, r9}
 238:	187d0002 	ldmdane	sp!, {r1}^
 23c:	0800030e 	stmdaeq	r0, {r1, r2, r3, r8, r9}
 240:	080004b8 	stmdaeq	r0, {r3, r4, r5, r7, sl}
 244:	18770002 	ldmdane	r7!, {r1}^
 248:	080004b8 	stmdaeq	r0, {r3, r4, r5, r7, sl}
 24c:	080004ba 	stmdaeq	r0, {r1, r3, r4, r5, r7, sl}
 250:	08770002 	ldmdaeq	r7!, {r1}^
 254:	080004ba 	stmdaeq	r0, {r1, r3, r4, r5, r7, sl}
 258:	080004d8 	stmdaeq	r0, {r3, r4, r6, r7, sl}
 25c:	087d0002 	ldmdaeq	sp!, {r1}^
	...
 268:	0800023c 	stmdaeq	r0, {r2, r3, r4, r5, r9}
 26c:	0800023e 	stmdaeq	r0, {r1, r2, r3, r4, r5, r9}
 270:	007d0002 	rsbseq	r0, sp, r2
 274:	0800023e 	stmdaeq	r0, {r1, r2, r3, r4, r5, r9}
 278:	08000240 	stmdaeq	r0, {r6, r9}
 27c:	047d0002 	ldrbteq	r0, [sp], #-2
 280:	08000240 	stmdaeq	r0, {r6, r9}
 284:	08000242 	stmdaeq	r0, {r1, r6, r9}
 288:	107d0002 	rsbsne	r0, sp, r2
 28c:	08000242 	stmdaeq	r0, {r1, r6, r9}
 290:	080002fa 	stmdaeq	r0, {r1, r3, r4, r5, r6, r7, r9}
 294:	10770002 	rsbsne	r0, r7, r2
 298:	080002fa 	stmdaeq	r0, {r1, r3, r4, r5, r6, r7, r9}
 29c:	080002fc 	stmdaeq	r0, {r2, r3, r4, r5, r6, r7, r9}
 2a0:	04770002 	ldrbteq	r0, [r7], #-2
 2a4:	080002fc 	stmdaeq	r0, {r2, r3, r4, r5, r6, r7, r9}
 2a8:	080002fe 	stmdaeq	r0, {r1, r2, r3, r4, r5, r6, r7, r9}
 2ac:	047d0002 	ldrbteq	r0, [sp], #-2
 2b0:	080002fe 	stmdaeq	r0, {r1, r2, r3, r4, r5, r6, r7, r9}
 2b4:	08000308 	stmdaeq	r0, {r3, r8, r9}
 2b8:	007d0002 	rsbseq	r0, sp, r2
	...
 2c4:	08000170 	stmdaeq	r0, {r4, r5, r6, r8}
 2c8:	08000172 	stmdaeq	r0, {r1, r4, r5, r6, r8}
 2cc:	007d0002 	rsbseq	r0, sp, r2
 2d0:	08000172 	stmdaeq	r0, {r1, r4, r5, r6, r8}
 2d4:	08000174 	stmdaeq	r0, {r2, r4, r5, r6, r8}
 2d8:	047d0002 	ldrbteq	r0, [sp], #-2
 2dc:	08000174 	stmdaeq	r0, {r2, r4, r5, r6, r8}
 2e0:	08000176 	stmdaeq	r0, {r1, r2, r4, r5, r6, r8}
 2e4:	107d0002 	rsbsne	r0, sp, r2
 2e8:	08000176 	stmdaeq	r0, {r1, r2, r4, r5, r6, r8}
 2ec:	0800022e 	stmdaeq	r0, {r1, r2, r3, r5, r9}
 2f0:	10770002 	rsbsne	r0, r7, r2
 2f4:	0800022e 	stmdaeq	r0, {r1, r2, r3, r5, r9}
 2f8:	08000230 	stmdaeq	r0, {r4, r5, r9}
 2fc:	04770002 	ldrbteq	r0, [r7], #-2
 300:	08000230 	stmdaeq	r0, {r4, r5, r9}
 304:	08000232 	stmdaeq	r0, {r1, r4, r5, r9}
 308:	047d0002 	ldrbteq	r0, [sp], #-2
 30c:	08000232 	stmdaeq	r0, {r1, r4, r5, r9}
 310:	0800023c 	stmdaeq	r0, {r2, r3, r4, r5, r9}
 314:	007d0002 	rsbseq	r0, sp, r2
	...
 328:	007d0002 	rsbseq	r0, sp, r2
	...
 334:	047d0002 	ldrbteq	r0, [sp], #-2
	...
 340:	187d0002 	ldmdane	sp!, {r1}^
	...
 34c:	18770002 	ldmdane	r7!, {r1}^
	...
 358:	04770002 	ldrbteq	r0, [r7], #-2
	...
 364:	047d0002 	ldrbteq	r0, [sp], #-2
	...
 370:	007d0002 	rsbseq	r0, sp, r2
	...
 384:	007d0002 	rsbseq	r0, sp, r2
	...
 390:	047d0002 	ldrbteq	r0, [sp], #-2
	...
 39c:	187d0002 	ldmdane	sp!, {r1}^
	...
 3a8:	18770002 	ldmdane	r7!, {r1}^
	...
 3b4:	04770002 	ldrbteq	r0, [r7], #-2
	...
 3c0:	047d0002 	ldrbteq	r0, [sp], #-2
	...
 3cc:	007d0002 	rsbseq	r0, sp, r2
	...
 3e0:	007d0002 	rsbseq	r0, sp, r2
	...
 3ec:	047d0002 	ldrbteq	r0, [sp], #-2
	...
 3f8:	187d0002 	ldmdane	sp!, {r1}^
	...
 404:	18770002 	ldmdane	r7!, {r1}^
	...
 410:	04770002 	ldrbteq	r0, [r7], #-2
	...
 41c:	047d0002 	ldrbteq	r0, [sp], #-2
	...
 428:	007d0002 	rsbseq	r0, sp, r2
	...
 43c:	007d0002 	rsbseq	r0, sp, r2
	...
 448:	047d0002 	ldrbteq	r0, [sp], #-2
	...
 454:	107d0002 	rsbsne	r0, sp, r2
	...
 460:	10770002 	rsbsne	r0, r7, r2
	...
 46c:	04770002 	ldrbteq	r0, [r7], #-2
	...
 478:	047d0002 	ldrbteq	r0, [sp], #-2
	...
 484:	007d0002 	rsbseq	r0, sp, r2
	...
 498:	007d0002 	rsbseq	r0, sp, r2
	...
 4a4:	047d0002 	ldrbteq	r0, [sp], #-2
	...
 4b0:	107d0002 	rsbsne	r0, sp, r2
	...
 4bc:	10770002 	rsbsne	r0, r7, r2
	...
 4c8:	04770002 	ldrbteq	r0, [r7], #-2
	...
 4d4:	047d0002 	ldrbteq	r0, [sp], #-2
	...
 4e0:	007d0002 	rsbseq	r0, sp, r2
	...
 4f4:	007d0002 	rsbseq	r0, sp, r2
	...
 500:	047d0002 	ldrbteq	r0, [sp], #-2
	...
 50c:	107d0002 	rsbsne	r0, sp, r2
	...
 518:	10770002 	rsbsne	r0, r7, r2
	...
 524:	04770002 	ldrbteq	r0, [r7], #-2
	...
 530:	047d0002 	ldrbteq	r0, [sp], #-2
	...
 53c:	007d0002 	rsbseq	r0, sp, r2
	...
 550:	007d0002 	rsbseq	r0, sp, r2
	...
 55c:	047d0002 	ldrbteq	r0, [sp], #-2
	...
 568:	107d0002 	rsbsne	r0, sp, r2
	...
 574:	10770002 	rsbsne	r0, r7, r2
	...
 580:	04770002 	ldrbteq	r0, [r7], #-2
	...
 58c:	047d0002 	ldrbteq	r0, [sp], #-2
	...
 598:	007d0002 	rsbseq	r0, sp, r2
	...
 5ac:	007d0002 	rsbseq	r0, sp, r2
	...
 5b8:	047d0002 	ldrbteq	r0, [sp], #-2
	...
 5c4:	107d0002 	rsbsne	r0, sp, r2
	...
 5d0:	10770002 	rsbsne	r0, r7, r2
	...
 5dc:	04770002 	ldrbteq	r0, [r7], #-2
	...
 5e8:	047d0002 	ldrbteq	r0, [sp], #-2
	...
 5f4:	007d0002 	rsbseq	r0, sp, r2
	...
 600:	08000834 	stmdaeq	r0, {r2, r4, r5, fp}
 604:	08000836 	stmdaeq	r0, {r1, r2, r4, r5, fp}
 608:	007d0002 	rsbseq	r0, sp, r2
 60c:	08000836 	stmdaeq	r0, {r1, r2, r4, r5, fp}
 610:	08000838 	stmdaeq	r0, {r3, r4, r5, fp}
 614:	0c7d0002 	ldcleq	0, cr0, [sp], #-8
 618:	08000838 	stmdaeq	r0, {r3, r4, r5, fp}
 61c:	0800083a 	stmdaeq	r0, {r1, r3, r4, r5, fp}
 620:	207d0002 	rsbscs	r0, sp, r2
 624:	0800083a 	stmdaeq	r0, {r1, r3, r4, r5, fp}
 628:	080008aa 	stmdaeq	r0, {r1, r3, r5, r7, fp}
 62c:	20770002 	rsbscs	r0, r7, r2
 630:	080008aa 	stmdaeq	r0, {r1, r3, r5, r7, fp}
 634:	080008ac 	stmdaeq	r0, {r2, r3, r5, r7, fp}
 638:	0c770002 	ldcleq	0, cr0, [r7], #-8
 63c:	080008ac 	stmdaeq	r0, {r2, r3, r5, r7, fp}
 640:	080008ae 	stmdaeq	r0, {r1, r2, r3, r5, r7, fp}
 644:	0c7d0002 	ldcleq	0, cr0, [sp], #-8
	...
 650:	08000790 	stmdaeq	r0, {r4, r7, r8, r9, sl}
 654:	08000792 	stmdaeq	r0, {r1, r4, r7, r8, r9, sl}
 658:	007d0002 	rsbseq	r0, sp, r2
 65c:	08000792 	stmdaeq	r0, {r1, r4, r7, r8, r9, sl}
 660:	08000794 	stmdaeq	r0, {r2, r4, r7, r8, r9, sl}
 664:	047d0002 	ldrbteq	r0, [sp], #-2
 668:	08000794 	stmdaeq	r0, {r2, r4, r7, r8, r9, sl}
 66c:	08000796 	stmdaeq	r0, {r1, r2, r4, r7, r8, r9, sl}
 670:	107d0002 	rsbsne	r0, sp, r2
 674:	08000796 	stmdaeq	r0, {r1, r2, r4, r7, r8, r9, sl}
 678:	0800082e 	stmdaeq	r0, {r1, r2, r3, r5, fp}
 67c:	10770002 	rsbsne	r0, r7, r2
 680:	0800082e 	stmdaeq	r0, {r1, r2, r3, r5, fp}
 684:	08000830 	stmdaeq	r0, {r4, r5, fp}
 688:	04770002 	ldrbteq	r0, [r7], #-2
 68c:	08000830 	stmdaeq	r0, {r4, r5, fp}
 690:	08000832 	stmdaeq	r0, {r1, r4, r5, fp}
 694:	047d0002 	ldrbteq	r0, [sp], #-2
 698:	08000832 	stmdaeq	r0, {r1, r4, r5, fp}
 69c:	08000834 	stmdaeq	r0, {r2, r4, r5, fp}
 6a0:	007d0002 	rsbseq	r0, sp, r2
	...
 6ac:	080008d8 	stmdaeq	r0, {r3, r4, r6, r7, fp}
 6b0:	080008da 	stmdaeq	r0, {r1, r3, r4, r6, r7, fp}
 6b4:	007d0002 	rsbseq	r0, sp, r2
 6b8:	080008da 	stmdaeq	r0, {r1, r3, r4, r6, r7, fp}
 6bc:	080008dc 	stmdaeq	r0, {r2, r3, r4, r6, r7, fp}
 6c0:	087d0002 	ldmdaeq	sp!, {r1}^
 6c4:	080008dc 	stmdaeq	r0, {r2, r3, r4, r6, r7, fp}
 6c8:	080008ec 	stmdaeq	r0, {r2, r3, r5, r6, r7, fp}
 6cc:	08770002 	ldmdaeq	r7!, {r1}^
	...
 6d8:	080008c4 	stmdaeq	r0, {r2, r6, r7, fp}
 6dc:	080008c6 	stmdaeq	r0, {r1, r2, r6, r7, fp}
 6e0:	007d0002 	rsbseq	r0, sp, r2
 6e4:	080008c6 	stmdaeq	r0, {r1, r2, r6, r7, fp}
 6e8:	080008c8 	stmdaeq	r0, {r3, r6, r7, fp}
 6ec:	087d0002 	ldmdaeq	sp!, {r1}^
 6f0:	080008c8 	stmdaeq	r0, {r3, r6, r7, fp}
 6f4:	080008d8 	stmdaeq	r0, {r3, r4, r6, r7, fp}
 6f8:	08770002 	ldmdaeq	r7!, {r1}^
	...
 704:	080008b0 	stmdaeq	r0, {r4, r5, r7, fp}
 708:	080008b2 	stmdaeq	r0, {r1, r4, r5, r7, fp}
 70c:	007d0002 	rsbseq	r0, sp, r2
 710:	080008b2 	stmdaeq	r0, {r1, r4, r5, r7, fp}
 714:	080008b4 	stmdaeq	r0, {r2, r4, r5, r7, fp}
 718:	087d0002 	ldmdaeq	sp!, {r1}^
 71c:	080008b4 	stmdaeq	r0, {r2, r4, r5, r7, fp}
 720:	080008c4 	stmdaeq	r0, {r2, r6, r7, fp}
 724:	08770002 	ldmdaeq	r7!, {r1}^
	...
 738:	007d0002 	rsbseq	r0, sp, r2
	...
 744:	087d0002 	ldmdaeq	sp!, {r1}^
	...
 750:	107d0002 	rsbsne	r0, sp, r2
	...
 75c:	10770002 	rsbsne	r0, r7, r2
	...
 768:	08770002 	ldmdaeq	r7!, {r1}^
	...
 774:	087d0002 	ldmdaeq	sp!, {r1}^
	...
 788:	007d0002 	rsbseq	r0, sp, r2
	...
 794:	087d0002 	ldmdaeq	sp!, {r1}^
	...
 7a0:	187d0002 	ldmdane	sp!, {r1}^
	...
 7ac:	18770002 	ldmdane	r7!, {r1}^
	...
 7b8:	08770002 	ldmdaeq	r7!, {r1}^
	...
 7c4:	087d0002 	ldmdaeq	sp!, {r1}^
	...
 7d8:	007d0002 	rsbseq	r0, sp, r2
	...
 7e4:	087d0002 	ldmdaeq	sp!, {r1}^
	...
 7f0:	107d0002 	rsbsne	r0, sp, r2
	...
 7fc:	10770002 	rsbsne	r0, r7, r2
	...
 808:	08770002 	ldmdaeq	r7!, {r1}^
	...
 814:	087d0002 	ldmdaeq	sp!, {r1}^
	...
 828:	007d0002 	rsbseq	r0, sp, r2
	...
 834:	047d0002 	ldrbteq	r0, [sp], #-2
	...
 840:	107d0002 	rsbsne	r0, sp, r2
	...
 84c:	10770002 	rsbsne	r0, r7, r2
	...
 858:	04770002 	ldrbteq	r0, [r7], #-2
	...
 864:	047d0002 	ldrbteq	r0, [sp], #-2
	...
 870:	007d0002 	rsbseq	r0, sp, r2
	...
 884:	007d0002 	rsbseq	r0, sp, r2
	...
 890:	087d0002 	ldmdaeq	sp!, {r1}^
	...
 89c:	187d0002 	ldmdane	sp!, {r1}^
	...
 8a8:	18770002 	ldmdane	r7!, {r1}^
	...
 8b4:	08770002 	ldmdaeq	r7!, {r1}^
	...
 8c0:	087d0002 	ldmdaeq	sp!, {r1}^
	...
 8d4:	007d0002 	rsbseq	r0, sp, r2
	...
 8e0:	047d0002 	ldrbteq	r0, [sp], #-2
	...
 8ec:	107d0002 	rsbsne	r0, sp, r2
	...
 8f8:	10770002 	rsbsne	r0, r7, r2
	...
 904:	04770002 	ldrbteq	r0, [r7], #-2
	...
 910:	047d0002 	ldrbteq	r0, [sp], #-2
	...
 91c:	007d0002 	rsbseq	r0, sp, r2
	...
 928:	08000950 	stmdaeq	r0, {r4, r6, r8, fp}
 92c:	08000952 	stmdaeq	r0, {r1, r4, r6, r8, fp}
 930:	007d0002 	rsbseq	r0, sp, r2
 934:	08000952 	stmdaeq	r0, {r1, r4, r6, r8, fp}
 938:	08000954 	stmdaeq	r0, {r2, r4, r6, r8, fp}
 93c:	087d0002 	ldmdaeq	sp!, {r1}^
 940:	08000954 	stmdaeq	r0, {r2, r4, r6, r8, fp}
 944:	08000956 	stmdaeq	r0, {r1, r2, r4, r6, r8, fp}
 948:	287d0002 	ldmdacs	sp!, {r1}^
 94c:	08000956 	stmdaeq	r0, {r1, r2, r4, r6, r8, fp}
 950:	080009b8 	stmdaeq	r0, {r3, r4, r5, r7, r8, fp}
 954:	28770002 	ldmdacs	r7!, {r1}^
	...
 960:	08000920 	stmdaeq	r0, {r5, r8, fp}
 964:	08000922 	stmdaeq	r0, {r1, r5, r8, fp}
 968:	007d0002 	rsbseq	r0, sp, r2
 96c:	08000922 	stmdaeq	r0, {r1, r5, r8, fp}
 970:	08000924 	stmdaeq	r0, {r2, r5, r8, fp}
 974:	047d0002 	ldrbteq	r0, [sp], #-2
 978:	08000924 	stmdaeq	r0, {r2, r5, r8, fp}
 97c:	08000942 	stmdaeq	r0, {r1, r6, r8, fp}
 980:	04770002 	ldrbteq	r0, [r7], #-2
 984:	08000942 	stmdaeq	r0, {r1, r6, r8, fp}
 988:	08000944 	stmdaeq	r0, {r2, r6, r8, fp}
 98c:	047d0002 	ldrbteq	r0, [sp], #-2
 990:	08000944 	stmdaeq	r0, {r2, r6, r8, fp}
 994:	08000950 	stmdaeq	r0, {r4, r6, r8, fp}
 998:	007d0002 	rsbseq	r0, sp, r2
	...
 9a4:	080008ec 	stmdaeq	r0, {r2, r3, r5, r6, r7, fp}
 9a8:	080008ee 	stmdaeq	r0, {r1, r2, r3, r5, r6, r7, fp}
 9ac:	007d0002 	rsbseq	r0, sp, r2
 9b0:	080008ee 	stmdaeq	r0, {r1, r2, r3, r5, r6, r7, fp}
 9b4:	080008f0 	stmdaeq	r0, {r4, r5, r6, r7, fp}
 9b8:	047d0002 	ldrbteq	r0, [sp], #-2
 9bc:	080008f0 	stmdaeq	r0, {r4, r5, r6, r7, fp}
 9c0:	08000918 	stmdaeq	r0, {r3, r4, r8, fp}
 9c4:	04770002 	ldrbteq	r0, [r7], #-2
 9c8:	08000918 	stmdaeq	r0, {r3, r4, r8, fp}
 9cc:	0800091a 	stmdaeq	r0, {r1, r3, r4, r8, fp}
 9d0:	047d0002 	ldrbteq	r0, [sp], #-2
 9d4:	0800091a 	stmdaeq	r0, {r1, r3, r4, r8, fp}
 9d8:	08000920 	stmdaeq	r0, {r5, r8, fp}
 9dc:	007d0002 	rsbseq	r0, sp, r2
	...
 9f0:	007d0002 	rsbseq	r0, sp, r2
	...
 9fc:	047d0002 	ldrbteq	r0, [sp], #-2
	...
 a08:	187d0002 	ldmdane	sp!, {r1}^
	...
 a14:	18770002 	ldmdane	r7!, {r1}^
	...
 a20:	04770002 	ldrbteq	r0, [r7], #-2
	...
 a2c:	047d0002 	ldrbteq	r0, [sp], #-2
	...
 a38:	007d0002 	rsbseq	r0, sp, r2
	...

Disassembly of section .debug_aranges:

00000000 <.debug_aranges>:
   0:	0000007c 	andeq	r0, r0, ip, ror r0
   4:	00000002 	andeq	r0, r0, r2
   8:	00040000 	andeq	r0, r4, r0
   c:	00000000 	andeq	r0, r0, r0
  10:	08000170 	stmdaeq	r0, {r4, r5, r6, r8}
  14:	000000cc 	andeq	r0, r0, ip, asr #1
  18:	0800023c 	stmdaeq	r0, {r2, r3, r4, r5, r9}
  1c:	000000cc 	andeq	r0, r0, ip, asr #1
  20:	08000308 	stmdaeq	r0, {r3, r8, r9}
  24:	000001d0 	ldrdeq	r0, [r0], -r0	; <UNPREDICTABLE>
  28:	080004d8 	stmdaeq	r0, {r3, r4, r6, r7, sl}
  2c:	00000016 	andeq	r0, r0, r6, lsl r0
  30:	00000000 	andeq	r0, r0, r0
  34:	00000094 	muleq	r0, r4, r0
  38:	00000000 	andeq	r0, r0, r0
  3c:	00000016 	andeq	r0, r0, r6, lsl r0
  40:	080004f0 	stmdaeq	r0, {r4, r5, r6, r7, sl}
  44:	0000002c 	andeq	r0, r0, ip, lsr #32
  48:	0800051c 	stmdaeq	r0, {r2, r3, r4, r8, sl}
  4c:	0000002c 	andeq	r0, r0, ip, lsr #32
  50:	08000548 	stmdaeq	r0, {r3, r6, r8, sl}
  54:	0000002c 	andeq	r0, r0, ip, lsr #32
  58:	08000574 	stmdaeq	r0, {r2, r4, r5, r6, r8, sl}
  5c:	0000002c 	andeq	r0, r0, ip, lsr #32
  60:	080005a0 	stmdaeq	r0, {r5, r7, r8, sl}
  64:	0000002c 	andeq	r0, r0, ip, lsr #32
  68:	080005cc 	stmdaeq	r0, {r2, r3, r6, r7, r8, sl}
  6c:	000000d0 	ldrdeq	r0, [r0], -r0	; <UNPREDICTABLE>
  70:	0800069c 	stmdaeq	r0, {r2, r3, r4, r7, r9, sl}
  74:	000000f4 	strdeq	r0, [r0], -r4
	...
  80:	00000064 	andeq	r0, r0, r4, rrx
  84:	048f0002 	streq	r0, [pc], #2	; 8c <_Min_Heap_Size-0x174>
  88:	00040000 	andeq	r0, r4, r0
  8c:	00000000 	andeq	r0, r0, r0
  90:	08000790 	stmdaeq	r0, {r4, r7, r8, r9, sl}
  94:	000000a4 	andeq	r0, r0, r4, lsr #1
  98:	08000834 	stmdaeq	r0, {r2, r4, r5, fp}
  9c:	0000007a 	andeq	r0, r0, sl, ror r0
  a0:	00000000 	andeq	r0, r0, r0
  a4:	00000030 	andeq	r0, r0, r0, lsr r0
  a8:	00000000 	andeq	r0, r0, r0
  ac:	00000048 	andeq	r0, r0, r8, asr #32
  b0:	00000000 	andeq	r0, r0, r0
  b4:	0000001c 	andeq	r0, r0, ip, lsl r0
  b8:	00000000 	andeq	r0, r0, r0
  bc:	00000028 	andeq	r0, r0, r8, lsr #32
  c0:	00000000 	andeq	r0, r0, r0
  c4:	00000022 	andeq	r0, r0, r2, lsr #32
  c8:	00000000 	andeq	r0, r0, r0
  cc:	0000002e 	andeq	r0, r0, lr, lsr #32
  d0:	00000000 	andeq	r0, r0, r0
  d4:	0000001e 	andeq	r0, r0, lr, lsl r0
  d8:	00000000 	andeq	r0, r0, r0
  dc:	00000066 	andeq	r0, r0, r6, rrx
	...
  e8:	0000005c 	andeq	r0, r0, ip, asr r0
  ec:	08460002 	stmdaeq	r6, {r1}^
  f0:	00040000 	andeq	r0, r4, r0
	...
  fc:	00000044 	andeq	r0, r0, r4, asr #32
 100:	00000000 	andeq	r0, r0, r0
 104:	000001a8 	andeq	r0, r0, r8, lsr #3
 108:	00000000 	andeq	r0, r0, r0
 10c:	0000008c 	andeq	r0, r0, ip, lsl #1
 110:	00000000 	andeq	r0, r0, r0
 114:	00000058 	andeq	r0, r0, r8, asr r0
 118:	00000000 	andeq	r0, r0, r0
 11c:	000000a0 	andeq	r0, r0, r0, lsr #1
 120:	00000000 	andeq	r0, r0, r0
 124:	0000007c 	andeq	r0, r0, ip, ror r0
 128:	080008b0 	stmdaeq	r0, {r4, r5, r7, fp}
 12c:	00000014 	andeq	r0, r0, r4, lsl r0
 130:	080008c4 	stmdaeq	r0, {r2, r6, r7, fp}
 134:	00000014 	andeq	r0, r0, r4, lsl r0
 138:	080008d8 	stmdaeq	r0, {r3, r4, r6, r7, fp}
 13c:	00000014 	andeq	r0, r0, r4, lsl r0
	...
 148:	00000034 	andeq	r0, r0, r4, lsr r0
 14c:	0d850002 	stceq	0, cr0, [r5, #8]
 150:	00040000 	andeq	r0, r4, r0
	...
 15c:	0000003a 	andeq	r0, r0, sl, lsr r0
 160:	080008ec 	stmdaeq	r0, {r2, r3, r5, r6, r7, fp}
 164:	00000034 	andeq	r0, r0, r4, lsr r0
 168:	08000920 	stmdaeq	r0, {r5, r8, fp}
 16c:	00000030 	andeq	r0, r0, r0, lsr r0
 170:	08000950 	stmdaeq	r0, {r4, r6, r8, fp}
 174:	00000068 	andeq	r0, r0, r8, rrx
	...
 180:	00000024 	andeq	r0, r0, r4, lsr #32
 184:	11030002 	tstne	r3, r2
 188:	00040000 	andeq	r0, r4, r0
 18c:	00000000 	andeq	r0, r0, r0
 190:	080009b8 	stmdaeq	r0, {r3, r4, r5, r7, r8, fp}
 194:	00000050 	andeq	r0, r0, r0, asr r0
 198:	08000a08 	stmdaeq	r0, {r3, r9, fp}
 19c:	00000002 	andeq	r0, r0, r2
	...

Disassembly of section .debug_ranges:

00000000 <.debug_ranges>:
   0:	08000170 	stmdaeq	r0, {r4, r5, r6, r8}
   4:	0800023c 	stmdaeq	r0, {r2, r3, r4, r5, r9}
   8:	0800023c 	stmdaeq	r0, {r2, r3, r4, r5, r9}
   c:	08000308 	stmdaeq	r0, {r3, r8, r9}
  10:	08000308 	stmdaeq	r0, {r3, r8, r9}
  14:	080004d8 	stmdaeq	r0, {r3, r4, r6, r7, sl}
  18:	080004d8 	stmdaeq	r0, {r3, r4, r6, r7, sl}
  1c:	080004ee 	stmdaeq	r0, {r1, r2, r3, r5, r6, r7, sl}
  20:	00000001 	andeq	r0, r0, r1
  24:	00000001 	andeq	r0, r0, r1
  28:	00000001 	andeq	r0, r0, r1
  2c:	00000001 	andeq	r0, r0, r1
  30:	080004f0 	stmdaeq	r0, {r4, r5, r6, r7, sl}
  34:	0800051c 	stmdaeq	r0, {r2, r3, r4, r8, sl}
  38:	0800051c 	stmdaeq	r0, {r2, r3, r4, r8, sl}
  3c:	08000548 	stmdaeq	r0, {r3, r6, r8, sl}
  40:	08000548 	stmdaeq	r0, {r3, r6, r8, sl}
  44:	08000574 	stmdaeq	r0, {r2, r4, r5, r6, r8, sl}
  48:	08000574 	stmdaeq	r0, {r2, r4, r5, r6, r8, sl}
  4c:	080005a0 	stmdaeq	r0, {r5, r7, r8, sl}
  50:	080005a0 	stmdaeq	r0, {r5, r7, r8, sl}
  54:	080005cc 	stmdaeq	r0, {r2, r3, r6, r7, r8, sl}
  58:	080005cc 	stmdaeq	r0, {r2, r3, r6, r7, r8, sl}
  5c:	0800069c 	stmdaeq	r0, {r2, r3, r4, r7, r9, sl}
  60:	0800069c 	stmdaeq	r0, {r2, r3, r4, r7, r9, sl}
  64:	08000790 	stmdaeq	r0, {r4, r7, r8, r9, sl}
	...
  70:	08000790 	stmdaeq	r0, {r4, r7, r8, r9, sl}
  74:	08000834 	stmdaeq	r0, {r2, r4, r5, fp}
  78:	08000834 	stmdaeq	r0, {r2, r4, r5, fp}
  7c:	080008ae 	stmdaeq	r0, {r1, r2, r3, r5, r7, fp}
  80:	00000001 	andeq	r0, r0, r1
  84:	00000001 	andeq	r0, r0, r1
  88:	00000001 	andeq	r0, r0, r1
  8c:	00000001 	andeq	r0, r0, r1
  90:	00000001 	andeq	r0, r0, r1
  94:	00000001 	andeq	r0, r0, r1
  98:	00000001 	andeq	r0, r0, r1
  9c:	00000001 	andeq	r0, r0, r1
  a0:	00000001 	andeq	r0, r0, r1
  a4:	00000001 	andeq	r0, r0, r1
  a8:	00000001 	andeq	r0, r0, r1
  ac:	00000001 	andeq	r0, r0, r1
  b0:	00000001 	andeq	r0, r0, r1
  b4:	00000001 	andeq	r0, r0, r1
  b8:	00000001 	andeq	r0, r0, r1
  bc:	00000001 	andeq	r0, r0, r1
	...
  c8:	00000001 	andeq	r0, r0, r1
  cc:	00000001 	andeq	r0, r0, r1
  d0:	00000001 	andeq	r0, r0, r1
  d4:	00000001 	andeq	r0, r0, r1
  d8:	00000001 	andeq	r0, r0, r1
  dc:	00000001 	andeq	r0, r0, r1
  e0:	00000001 	andeq	r0, r0, r1
  e4:	00000001 	andeq	r0, r0, r1
  e8:	00000001 	andeq	r0, r0, r1
  ec:	00000001 	andeq	r0, r0, r1
  f0:	00000001 	andeq	r0, r0, r1
  f4:	00000001 	andeq	r0, r0, r1
  f8:	080008b0 	stmdaeq	r0, {r4, r5, r7, fp}
  fc:	080008c4 	stmdaeq	r0, {r2, r6, r7, fp}
 100:	080008c4 	stmdaeq	r0, {r2, r6, r7, fp}
 104:	080008d8 	stmdaeq	r0, {r3, r4, r6, r7, fp}
 108:	080008d8 	stmdaeq	r0, {r3, r4, r6, r7, fp}
 10c:	080008ec 	stmdaeq	r0, {r2, r3, r5, r6, r7, fp}
	...
 118:	00000001 	andeq	r0, r0, r1
 11c:	00000001 	andeq	r0, r0, r1
 120:	080008ec 	stmdaeq	r0, {r2, r3, r5, r6, r7, fp}
 124:	08000920 	stmdaeq	r0, {r5, r8, fp}
 128:	08000920 	stmdaeq	r0, {r5, r8, fp}
 12c:	08000950 	stmdaeq	r0, {r4, r6, r8, fp}
 130:	08000950 	stmdaeq	r0, {r4, r6, r8, fp}
 134:	080009b8 	stmdaeq	r0, {r3, r4, r5, r7, r8, fp}
	...
 140:	ffffffff 			; <UNDEFINED> instruction: 0xffffffff
 144:	00000000 	andeq	r0, r0, r0
 148:	080009b8 	stmdaeq	r0, {r3, r4, r5, r7, r8, fp}
 14c:	08000a08 	stmdaeq	r0, {r3, r9, fp}
 150:	08000a08 	stmdaeq	r0, {r3, r9, fp}
 154:	08000a0a 	stmdaeq	r0, {r1, r3, r9, fp}
	...

Disassembly of section .debug_macro:

00000000 <.debug_macro>:
   0:	00020004 	andeq	r0, r2, r4
   4:	07000000 	streq	r0, [r0, -r0]
   8:	00000000 	andeq	r0, r0, r0
   c:	03010003 	movweq	r0, #4099	; 0x1003
  10:	02050401 	andeq	r0, r5, #16777216	; 0x1000000
  14:	000045a1 	andeq	r4, r0, r1, lsr #11
  18:	05030603 	streq	r0, [r3, #-1539]	; 0xfffff9fd
  1c:	001d4002 	andseq	r4, sp, r2
  20:	06050300 	streq	r0, [r5], -r0, lsl #6
  24:	00000007 	andeq	r0, r0, r7
  28:	06030400 	streq	r0, [r3], -r0, lsl #8
  2c:	00000702 	andeq	r0, r0, r2, lsl #14
  30:	07040000 	streq	r0, [r4, -r0]
  34:	00000000 	andeq	r0, r0, r0
  38:	05070304 	streq	r0, [r7, #-772]	; 0xfffffcfc
  3c:	3b270905 	blcc	9c2458 <_Min_Stack_Size+0x9c2058>
  40:	0c030000 	stceq	0, cr0, [r3], {-0}
  44:	0d030407 	cfstrseq	mvf0, [r3, #-28]	; 0xffffffe4
  48:	0e030408 	cdpeq	4, 0, cr0, cr3, cr8, {0}
  4c:	04040409 	streq	r0, [r4], #-1033	; 0xfffffbf7
  50:	3edf0a05 	vfnmscc.f32	s1, s30, s10
  54:	00040000 	andeq	r0, r4, r0
  58:	de020004 	cdple	0, 0, cr0, cr2, cr4, {0}
  5c:	07000004 	streq	r0, [r0, -r4]
  60:	00000000 	andeq	r0, r0, r0
  64:	03010003 	movweq	r0, #4099	; 0x1003
  68:	09050408 	stmdbeq	r5, {r3, sl}
  6c:	00003b27 	andeq	r3, r0, r7, lsr #22
  70:	07020c03 	streq	r0, [r2, -r3, lsl #24]
  74:	00000000 	andeq	r0, r0, r0
  78:	050d0304 	streq	r0, [sp, #-772]	; 0xfffffcfc
  7c:	00000007 	andeq	r0, r0, r7
  80:	0e030400 	cfcpyseq	mvf0, mvf3
  84:	40020503 	andmi	r0, r2, r3, lsl #10
  88:	0300001d 	movweq	r0, #29
  8c:	03040505 	movweq	r0, #17669	; 0x4505
  90:	07040206 	streq	r0, [r4, -r6, lsl #4]
  94:	00000000 	andeq	r0, r0, r0
  98:	00040404 	andeq	r0, r4, r4, lsl #8
  9c:	2e020004 	cdpcs	0, 0, cr0, cr2, cr4, {0}
  a0:	07000007 	streq	r0, [r0, -r7]
  a4:	00000000 	andeq	r0, r0, r0
  a8:	03010003 	movweq	r0, #4099	; 0x1003
  ac:	09050408 	stmdbeq	r5, {r3, sl}
  b0:	00005dac 	andeq	r5, r0, ip, lsr #27
  b4:	07020c03 	streq	r0, [r2, -r3, lsl #24]
  b8:	00000000 	andeq	r0, r0, r0
  bc:	070d0304 	streq	r0, [sp, -r4, lsl #6]
  c0:	00000007 	andeq	r0, r0, r7
  c4:	0e030400 	cfcpyseq	mvf0, mvf3
  c8:	40020503 	andmi	r0, r2, r3, lsl #10
  cc:	0300001d 	movweq	r0, #29
  d0:	03040705 	movweq	r0, #18181	; 0x4705
  d4:	07040206 	streq	r0, [r4, -r6, lsl #4]
  d8:	00000000 	andeq	r0, r0, r0
  dc:	050f0304 	streq	r0, [pc, #-772]	; fffffde0 <_estack+0xdfffd5e0>
  e0:	5de60905 			; <UNDEFINED> instruction: 0x5de60905
  e4:	0c030000 	stceq	0, cr0, [r3], {-0}
  e8:	0d030408 	cfstrseq	mvf0, [r3, #-32]	; 0xffffffe0
  ec:	0e030409 	cdpeq	4, 0, cr0, cr3, cr9, {0}
  f0:	1105040a 	tstne	r5, sl, lsl #8
  f4:	00005f5b 	andeq	r5, r0, fp, asr pc
  f8:	06100304 	ldreq	r0, [r0], -r4, lsl #6
  fc:	3b270905 	blcc	9c2518 <_Min_Stack_Size+0x9c2118>
 100:	0c030000 	stceq	0, cr0, [r3], {-0}
 104:	0d03040b 	cfstrseq	mvf0, [r3, #-44]	; 0xffffffd4
 108:	0e03040c 	cdpeq	4, 0, cr0, cr3, cr12, {0}
 10c:	0704040d 	streq	r0, [r4, -sp, lsl #8]
 110:	00000117 	andeq	r0, r0, r7, lsl r1
 114:	04000404 	streq	r0, [r0], #-1028	; 0xfffffbfc
 118:	3f050000 	svccc	0x00050000
 11c:	00005d26 	andeq	r5, r0, r6, lsr #26
 120:	5d614005 	stclpl	0, cr4, [r1, #-20]!	; 0xffffffec
 124:	41050000 	mrsmi	r0, (UNDEF: 5)
 128:	00005e44 	andeq	r5, r0, r4, asr #28
 12c:	605b4405 	subsvs	r4, fp, r5, lsl #8
 130:	45050000 	strmi	r0, [r5, #-0]
 134:	00005fde 	ldrdeq	r5, [r0], -lr
 138:	5dc64605 	stclpl	6, cr4, [r6, #20]
 13c:	47050000 	strmi	r0, [r5, -r0]
 140:	00006266 	andeq	r6, r0, r6, ror #4
 144:	61634805 	cmnvs	r3, r5, lsl #16
 148:	49050000 	stmdbmi	r5, {}	; <UNPREDICTABLE>
 14c:	00006083 	andeq	r6, r0, r3, lsl #1
 150:	62494a05 	subvs	r4, r9, #20480	; 0x5000
 154:	4b050000 	blmi	14015c <_Min_Stack_Size+0x13fd5c>
 158:	0000600e 	andeq	r6, r0, lr
 15c:	5c614c05 	stclpl	12, cr4, [r1], #-20	; 0xffffffec
 160:	4d050000 	stcmi	0, cr0, [r5, #-0]
 164:	00005c89 	andeq	r5, r0, r9, lsl #25
 168:	5cfc5005 	ldclpl	0, cr5, [ip], #20
 16c:	51050000 	mrspl	r0, (UNDEF: 5)
 170:	00006139 	andeq	r6, r0, r9, lsr r1
 174:	5cc85405 	cfstrdpl	mvd5, [r8], {5}
 178:	55050000 	strpl	r0, [r5, #-0]
 17c:	00006225 	andeq	r6, r0, r5, lsr #4
 180:	61e55605 	mvnvs	r5, r5, lsl #12
 184:	59050000 	stmdbpl	r5, {}	; <UNPREDICTABLE>
 188:	00005ea1 	andeq	r5, r0, r1, lsr #29
 18c:	5c0a5a05 			; <UNDEFINED> instruction: 0x5c0a5a05
 190:	5b050000 	blpl	140198 <_Min_Stack_Size+0x13fd98>
 194:	00005f7d 	andeq	r5, r0, sp, ror pc
 198:	60b65c05 	adcsvs	r5, r6, r5, lsl #24
 19c:	5f050000 	svcpl	0x00050000
 1a0:	0000602b 	andeq	r6, r0, fp, lsr #32
 1a4:	61af6005 			; <UNDEFINED> instruction: 0x61af6005
 1a8:	61050000 	mrsvs	r0, (UNDEF: 5)
 1ac:	00005c3a 	andeq	r5, r0, sl, lsr ip
 1b0:	5e716205 	cdppl	2, 7, cr6, cr1, cr5, {0}
 1b4:	65050000 	strvs	r0, [r5, #-0]
 1b8:	00005ca8 	andeq	r5, r0, r8, lsr #25
 1bc:	62816605 	addvs	r6, r1, #5242880	; 0x500000
 1c0:	67050000 	strvs	r0, [r5, -r0]
 1c4:	00005ed8 	ldrdeq	r5, [r0], -r8
 1c8:	61806805 	orrvs	r6, r0, r5, lsl #16
 1cc:	04000000 	streq	r0, [r0], #-0
 1d0:	0b710200 	bleq	1c409d8 <_Min_Stack_Size+0x1c405d8>
 1d4:	00070000 	andeq	r0, r7, r0
 1d8:	03000000 	movweq	r0, #0
 1dc:	01030100 	mrseq	r0, (UNDEF: 19)
 1e0:	00000702 	andeq	r0, r0, r2, lsl #14
 1e4:	03040000 	movweq	r0, #16384	; 0x4000
 1e8:	00070502 	andeq	r0, r7, r2, lsl #10
 1ec:	04000000 	streq	r0, [r0], #-0
 1f0:	05030303 	streq	r0, [r3, #-771]	; 0xfffffcfd
 1f4:	001d4002 	andseq	r4, sp, r2
 1f8:	05050300 	streq	r0, [r5, #-768]	; 0xfffffd00
 1fc:	02060304 	andeq	r0, r6, #4, 6	; 0x10000000
 200:	00000704 	andeq	r0, r0, r4, lsl #14
 204:	03040000 	movweq	r0, #16384	; 0x4000
 208:	09050604 	stmdbeq	r5, {r2, r9, sl}
 20c:	00003b27 	andeq	r3, r0, r7, lsr #22
 210:	04070c03 	streq	r0, [r7], #-3075	; 0xfffff3fd
 214:	04080d03 	streq	r0, [r8], #-3331	; 0xfffff2fd
 218:	04090e03 	streq	r0, [r9], #-3587	; 0xfffff1fd
 21c:	04050304 	streq	r0, [r5], #-772	; 0xfffffcfc
 220:	45a10205 	strmi	r0, [r1, #517]!	; 0x205
 224:	06030000 	streq	r0, [r3], -r0
 228:	0703040a 	streq	r0, [r3, -sl, lsl #8]
 22c:	0304040b 	movweq	r0, #17419	; 0x440b
 230:	09050c06 	stmdbeq	r5, {r1, r2, sl, fp}
 234:	00005dac 	andeq	r5, r0, ip, lsr #27
 238:	040d0c03 	streq	r0, [sp], #-3075	; 0xfffff3fd
 23c:	040e0d03 	streq	r0, [lr], #-3331	; 0xfffff2fd
 240:	040f0e03 	streq	r0, [pc], #-3587	; 248 <_Min_Heap_Size+0x48>
 244:	05100f03 	ldreq	r0, [r0, #-3843]	; 0xfffff0fd
 248:	005de609 	subseq	lr, sp, r9, lsl #12
 24c:	110c0300 	mrsne	r0, LR_mon
 250:	120d0304 	andne	r0, sp, #4, 6	; 0x10000000
 254:	130e0304 	movwne	r0, #58116	; 0xe304
 258:	5b110504 	blpl	441670 <_Min_Stack_Size+0x441270>
 25c:	0400005f 	streq	r0, [r0], #-95	; 0xffffffa1
 260:	04141003 	ldreq	r1, [r4], #-3
 264:	00011707 	andeq	r1, r1, r7, lsl #14
 268:	07030400 	streq	r0, [r3, -r0, lsl #8]
 26c:	2b0a0515 	blcs	2816c8 <_Min_Stack_Size+0x2812c8>
 270:	0300009a 	movweq	r0, #154	; 0x9a
 274:	0304160d 	movweq	r1, #17933	; 0x460d
 278:	0304170e 	movweq	r1, #18190	; 0x470e
 27c:	0304180f 	movweq	r1, #18447	; 0x480f
 280:	1b051910 	blne	1466c8 <_Min_Stack_Size+0x1462c8>
 284:	00009376 	andeq	r9, r0, r6, ror r3
 288:	051a1d03 	ldreq	r1, [sl, #-3331]	; 0xfffff2fd
 28c:	0086c108 	addeq	ip, r6, r8, lsl #2
 290:	1b0a0300 	blne	280e98 <_Min_Stack_Size+0x280a98>
 294:	6d530705 	ldclvs	7, cr0, [r3, #-20]	; 0xffffffec
 298:	0a030000 	beq	c02a0 <_Min_Stack_Size+0xbfea0>
 29c:	0000071c 	andeq	r0, r0, ip, lsl r7
 2a0:	07040000 	streq	r0, [r4, -r0]
 2a4:	00000000 	andeq	r0, r0, r0
 2a8:	1d0b0304 	stcne	3, cr0, [fp, #-16]
 2ac:	84ad0205 	strthi	r0, [sp], #517	; 0x205
 2b0:	04030000 	streq	r0, [r3], #-0
 2b4:	0000071e 	andeq	r0, r0, lr, lsl r7
 2b8:	03040000 	movweq	r0, #16384	; 0x4000
 2bc:	00071f05 	andeq	r1, r7, r5, lsl #30
 2c0:	04000000 	streq	r0, [r0], #-0
 2c4:	00000007 	andeq	r0, r0, r7
 2c8:	00070400 	andeq	r0, r7, r0, lsl #8
 2cc:	04000000 	streq	r0, [r0], #-0
 2d0:	00000007 	andeq	r0, r0, r7
 2d4:	20230300 	eorcs	r0, r3, r0, lsl #6
 2d8:	a2712b05 	rsbsge	r2, r1, #5120	; 0x1400
 2dc:	2d030000 	stccs	0, cr0, [r3, #-0]
 2e0:	00000721 	andeq	r0, r0, r1, lsr #14
 2e4:	03040000 	movweq	r0, #16384	; 0x4000
 2e8:	0007222f 	andeq	r2, r7, pc, lsr #4
 2ec:	04000000 	streq	r0, [r0], #-0
 2f0:	00000007 	andeq	r0, r0, r7
 2f4:	24030400 	strcs	r0, [r3], #-1024	; 0xfffffc00
 2f8:	00000722 	andeq	r0, r0, r2, lsr #14
 2fc:	05040000 	streq	r0, [r4, #-0]
 300:	00738127 	rsbseq	r8, r3, r7, lsr #2
 304:	23280300 			; <UNDEFINED> instruction: 0x23280300
 308:	00000007 	andeq	r0, r0, r7
 30c:	2f050400 	svccs	0x00050400
 310:	00007af4 	strdeq	r7, [r0], -r4
 314:	05243c03 	streq	r3, [r4, #-3075]!	; 0xfffff3fd
 318:	00881d0b 	addeq	r1, r8, fp, lsl #26
 31c:	1a0d0300 	bne	340f24 <_Min_Stack_Size+0x340b24>
 320:	220e0304 	andcs	r0, lr, #4, 6	; 0x10000000
 324:	250f0304 	strcs	r0, [pc, #-772]	; 28 <_Min_Heap_Size-0x1d8>
 328:	00000007 	andeq	r0, r0, r7
 32c:	22180300 	andscs	r0, r8, #0, 6
 330:	00000007 	andeq	r0, r0, r7
 334:	1b030400 	blne	c133c <_Min_Stack_Size+0xc0f3c>
 338:	fd060526 	stc2	5, cr0, [r6, #-152]	; 0xffffff68
 33c:	0400007e 	streq	r0, [r0], #-126	; 0xffffff82
 340:	00000007 	andeq	r0, r0, r7
 344:	00070400 	andeq	r0, r7, r0, lsl #8
 348:	03000000 	movweq	r0, #0
 34c:	00072722 	andeq	r2, r7, r2, lsr #14
 350:	04000000 	streq	r0, [r0], #-0
 354:	00000007 	andeq	r0, r0, r7
 358:	03ba0300 			; <UNDEFINED> instruction: 0x03ba0300
 35c:	00000728 	andeq	r0, r0, r8, lsr #14
 360:	07040000 	streq	r0, [r4, -r0]
 364:	00000000 	andeq	r0, r0, r0
 368:	00000704 	andeq	r0, r0, r4, lsl #14
 36c:	59030000 	stmdbpl	r3, {}	; <UNPREDICTABLE>
 370:	00000729 	andeq	r0, r0, r9, lsr #14
 374:	07040000 	streq	r0, [r4, -r0]
 378:	00000000 	andeq	r0, r0, r0
 37c:	2a110304 	bcs	440f94 <_Min_Stack_Size+0x440b94>
 380:	00000007 	andeq	r0, r0, r7
 384:	00070400 	andeq	r0, r7, r0, lsl #8
 388:	04000000 	streq	r0, [r0], #-0
 38c:	052b0803 	streq	r0, [fp, #-2051]!	; 0xfffff7fd
 390:	007e2209 	rsbseq	r2, lr, r9, lsl #4
 394:	2c0c0300 	stccs	3, cr0, [ip], {-0}
 398:	2d0d0304 	stccs	3, cr0, [sp, #-16]
 39c:	2e0e0304 	cdpcs	3, 0, cr0, cr14, cr4, {0}
 3a0:	00000704 	andeq	r0, r0, r4, lsl #14
 3a4:	05040000 	streq	r0, [r4, #-0]
 3a8:	009d1f0a 	addseq	r1, sp, sl, lsl #30
 3ac:	Address 0x00000000000003ac is out of bounds.


Disassembly of section .debug_line:

00000000 <.debug_line>:
       0:	000004da 	ldrdeq	r0, [r0], -sl
       4:	014d0003 	cmpeq	sp, r3
       8:	01020000 	mrseq	r0, (UNDEF: 2)
       c:	000d0efb 	strdeq	r0, [sp], -fp
      10:	01010101 	tsteq	r1, r1, lsl #2
      14:	01000000 	mrseq	r0, (UNDEF: 0)
      18:	2e010000 	cdpcs	0, 0, cr0, cr1, cr0, {0}
      1c:	72532f2e 	subsvc	r2, r3, #46, 30	; 0xb8
      20:	434d2f63 	movtmi	r2, #57187	; 0xdf63
      24:	452f4c41 	strmi	r4, [pc, #-3137]!	; fffff3eb <_estack+0xdfffcbeb>
      28:	20495458 	subcs	r5, r9, r8, asr r4
      2c:	76697244 	strbtvc	r7, [r9], -r4, asr #4
      30:	2e007265 	cdpcs	2, 0, cr7, cr0, cr5, {3}
      34:	72532f2e 	subsvc	r2, r3, #46, 30	; 0xb8
      38:	434d2f63 	movtmi	r2, #57187	; 0xdf63
      3c:	452f4c41 	strmi	r4, [pc, #-3137]!	; fffff403 <_estack+0xdfffcc03>
      40:	20495458 	subcs	r5, r9, r8, asr r4
      44:	76697244 	strbtvc	r7, [r9], -r4, asr #4
      48:	2e2f7265 	cdpcs	2, 2, cr7, cr15, cr5, {3}
      4c:	2e2e2f2e 	cdpcs	15, 2, cr2, cr14, cr14, {1}
      50:	42494c2f 	submi	r4, r9, #12032	; 0x2f00
      54:	2f2e2e00 	svccs	0x002e2e00
      58:	2f637253 	svccs	0x00637253
      5c:	4c41434d 	mcrrmi	3, 4, r4, r1, cr13
      60:	5458452f 	ldrbpl	r4, [r8], #-1327	; 0xfffffad1
      64:	72442049 	subvc	r2, r4, #73	; 0x49
      68:	72657669 	rsbvc	r7, r5, #110100480	; 0x6900000
      6c:	2f2e2e2f 	svccs	0x002e2e2f
      70:	4f495047 	svcmi	0x00495047
      74:	69724420 	ldmdbvs	r2!, {r5, sl, lr}^
      78:	00726576 	rsbseq	r6, r2, r6, ror r5
      7c:	532f2e2e 			; <UNDEFINED> instruction: 0x532f2e2e
      80:	4d2f6372 	stcmi	3, cr6, [pc, #-456]!	; fffffec0 <_estack+0xdfffd6c0>
      84:	2f4c4143 	svccs	0x004c4143
      88:	49545845 	ldmdbmi	r4, {r0, r2, r6, fp, ip, lr}^
      8c:	69724420 	ldmdbvs	r2!, {r5, sl, lr}^
      90:	2f726576 	svccs	0x00726576
      94:	472f2e2e 	strmi	r2, [pc, -lr, lsr #28]!
      98:	204f4950 	subcs	r4, pc, r0, asr r9	; <UNPREDICTABLE>
      9c:	76697244 	strbtvc	r7, [r9], -r4, asr #4
      a0:	2e2f7265 	cdpcs	2, 2, cr7, cr15, cr5, {3}
      a4:	2e2e2f2e 	cdpcs	15, 2, cr2, cr14, cr14, {1}
      a8:	42494c2f 	submi	r4, r9, #12032	; 0x2f00
      ac:	58450000 	stmdapl	r5, {}^	; <UNPREDICTABLE>
      b0:	705f4954 	subsvc	r4, pc, r4, asr r9	; <UNPREDICTABLE>
      b4:	72676f72 	rsbvc	r6, r7, #456	; 0x1c8
      b8:	632e6d61 			; <UNDEFINED> instruction: 0x632e6d61
      bc:	00000100 	andeq	r0, r0, r0, lsl #2
      c0:	74616c50 	strbtvc	r6, [r1], #-3152	; 0xfffff3b0
      c4:	6d726f66 	ldclvs	15, cr6, [r2, #-408]!	; 0xfffffe68
      c8:	7079545f 	rsbsvc	r5, r9, pc, asr r4
      cc:	682e7365 	stmdavs	lr!, {r0, r2, r5, r6, r8, r9, ip, sp, lr}
      d0:	00000200 	andeq	r0, r0, r0, lsl #4
      d4:	334d5453 	movtcc	r5, #54355	; 0xd453
      d8:	30314632 	eorscc	r4, r1, r2, lsr r6
      dc:	5f367833 	svcpl	0x00367833
      e0:	4d6d654d 	cfstr64mi	mvdx6, [sp, #-308]!	; 0xfffffecc
      e4:	682e7061 	stmdavs	lr!, {r0, r5, r6, ip, sp, lr}
      e8:	00000200 	andeq	r0, r0, r0, lsl #4
      ec:	49545845 	ldmdbmi	r4, {r0, r2, r6, fp, ip, lr}^
      f0:	746e695f 	strbtvc	r6, [lr], #-2399	; 0xfffff6a1
      f4:	61667265 	cmnvs	r6, r5, ror #4
      f8:	682e6563 	stmdavs	lr!, {r0, r1, r5, r6, r8, sl, sp, lr}
      fc:	00000100 	andeq	r0, r0, r0, lsl #2
     100:	4f495047 	svcmi	0x00495047
     104:	746e695f 	strbtvc	r6, [lr], #-2399	; 0xfffff6a1
     108:	61667265 	cmnvs	r6, r5, ror #4
     10c:	682e6563 	stmdavs	lr!, {r0, r1, r5, r6, r8, sl, sp, lr}
     110:	00000300 	andeq	r0, r0, r0, lsl #6
     114:	6c697455 	cfstrdvs	mvd7, [r9], #-340	; 0xfffffeac
     118:	00682e73 	rsbeq	r2, r8, r3, ror lr
     11c:	50000002 	andpl	r0, r0, r2
     120:	6674616c 	ldrbtvs	r6, [r4], -ip, ror #2
     124:	5f6d726f 	svcpl	0x006d726f
     128:	65707954 	ldrbvs	r7, [r0, #-2388]!	; 0xfffff6ac
     12c:	00682e73 	rsbeq	r2, r8, r3, ror lr
     130:	55000004 	strpl	r0, [r0, #-4]
     134:	736c6974 	cmnvc	ip, #116, 18	; 0x1d0000
     138:	0400682e 	streq	r6, [r0], #-2094	; 0xfffff7d2
     13c:	54530000 	ldrbpl	r0, [r3], #-0
     140:	4632334d 	ldrtmi	r3, [r2], -sp, asr #6
     144:	78333031 	ldmdavc	r3!, {r0, r4, r5, ip, sp}
     148:	654d5f36 	strbvs	r5, [sp, #-3894]	; 0xfffff0ca
     14c:	70614d6d 	rsbvc	r4, r1, sp, ror #26
     150:	0400682e 	streq	r6, [r0], #-2094	; 0xfffff7d2
     154:	05000000 	streq	r0, [r0, #-0]
     158:	02050001 	andeq	r0, r5, #1
     15c:	08000170 	stmdaeq	r0, {r4, r5, r6, r8}
     160:	05011803 	streq	r1, [r1, #-2051]	; 0xfffff7fd
     164:	03055902 	movweq	r5, #22786	; 0x5902
     168:	05152702 	ldreq	r2, [r5, #-1794]	; 0xfffff8fe
     16c:	03056620 	movweq	r6, #22048	; 0x5620
     170:	66200522 	strtvs	r0, [r0], -r2, lsr #10
     174:	05220305 	streq	r0, [r2, #-773]!	; 0xfffffcfb
     178:	03056620 	movweq	r6, #22048	; 0x5620
     17c:	66200522 	strtvs	r0, [r0], -r2, lsr #10
     180:	05220305 	streq	r0, [r2, #-773]!	; 0xfffffcfb
     184:	03056620 	movweq	r6, #22048	; 0x5620
     188:	66200522 	strtvs	r0, [r0], -r2, lsr #10
     18c:	05220305 	streq	r0, [r2, #-773]!	; 0xfffffcfb
     190:	01056620 	tsteq	r5, r0, lsr #12
     194:	00090222 	andeq	r0, r9, r2, lsr #4
     198:	01050101 	tsteq	r5, r1, lsl #2
     19c:	3c020500 	cfstr32cc	mvfx0, [r2], {-0}
     1a0:	03080002 	movweq	r0, #32770	; 0x8002
     1a4:	02050134 	andeq	r0, r5, #52, 2
     1a8:	02030559 	andeq	r0, r3, #373293056	; 0x16400000
     1ac:	21051527 	tstcs	r5, r7, lsr #10
     1b0:	22030566 	andcs	r0, r3, #427819008	; 0x19800000
     1b4:	05662105 	strbeq	r2, [r6, #-261]!	; 0xfffffefb
     1b8:	21052203 	tstcs	r5, r3, lsl #4
     1bc:	22030566 	andcs	r0, r3, #427819008	; 0x19800000
     1c0:	05662105 	strbeq	r2, [r6, #-261]!	; 0xfffffefb
     1c4:	21052203 	tstcs	r5, r3, lsl #4
     1c8:	22030566 	andcs	r0, r3, #427819008	; 0x19800000
     1cc:	05662105 	strbeq	r2, [r6, #-261]!	; 0xfffffefb
     1d0:	21052203 	tstcs	r5, r3, lsl #4
     1d4:	22010566 	andcs	r0, r1, #427819008	; 0x19800000
     1d8:	01000902 	tsteq	r0, r2, lsl #18
     1dc:	00010501 	andeq	r0, r1, r1, lsl #10
     1e0:	03080205 	movweq	r0, #33285	; 0x8205
     1e4:	d0030800 	andle	r0, r3, r0, lsl #16
     1e8:	02050100 	andeq	r0, r5, #0, 2
     1ec:	8534054c 	ldrhi	r0, [r4, #-1356]!	; 0xfffffab4
     1f0:	052e0a05 	streq	r0, [lr, #-2565]!	; 0xfffff5fb
     1f4:	0a052f3b 	beq	14bee8 <_Min_Stack_Size+0x14bae8>
     1f8:	5b22052e 	blpl	8816b8 <_Min_Stack_Size+0x8812b8>
     1fc:	05582a05 	ldrbeq	r2, [r8, #-2565]	; 0xfffff5fb
     200:	22054a25 	andcs	r4, r5, #151552	; 0x25000
     204:	2605682e 	strcs	r6, [r5], -lr, lsr #16
     208:	04020058 	streq	r0, [r2], #-88	; 0xffffffa8
     20c:	00580601 	subseq	r0, r8, r1, lsl #12
     210:	58030402 	stmdapl	r3, {r1, sl}
     214:	05040200 	streq	r0, [r4, #-512]	; 0xfffffe00
     218:	04020058 	streq	r0, [r2], #-88	; 0xffffffa8
     21c:	02005807 	andeq	r5, r0, #458752	; 0x70000
     220:	002e0804 	eoreq	r0, lr, r4, lsl #16
     224:	2e060402 	cdpcs	4, 0, cr0, cr6, cr2, {0}
     228:	04040200 	streq	r0, [r4], #-512	; 0xfffffe00
     22c:	0402002e 	streq	r0, [r2], #-46	; 0xffffffd2
     230:	5d052e02 	stcpl	14, cr2, [r5, #-8]
     234:	10040200 	andne	r0, r4, r0, lsl #4
     238:	22052006 	andcs	r2, r5, #6
     23c:	10040200 	andne	r0, r4, r0, lsl #4
     240:	0002053c 	andeq	r0, r2, ip, lsr r5
     244:	6a100402 	bvs	401254 <_Min_Stack_Size+0x400e54>
     248:	10040200 	andne	r0, r4, r0, lsl #4
     24c:	001405bb 			; <UNDEFINED> instruction: 0x001405bb
     250:	bd100402 	cfldrslt	mvf0, [r0, #-8]
     254:	02000205 	andeq	r0, r0, #1342177280	; 0x50000000
     258:	062e1004 	strteq	r1, [lr], -r4
     25c:	0603052e 	streq	r0, [r3], -lr, lsr #10
     260:	ad22ad77 	stcge	13, cr10, [r2, #-476]!	; 0xfffffe24
     264:	05adad22 	streq	sl, [sp, #3362]!	; 0xd22
     268:	4405242b 	strmi	r2, [r5], #-1067	; 0xfffffbd5
     26c:	2e37053c 	mrccs	5, 1, r0, cr7, cr12, {1}
     270:	05401505 	strbeq	r1, [r0, #-1285]	; 0xfffffafb
     274:	03052e02 	movweq	r2, #24066	; 0x5e02
     278:	2259ae4d 	subscs	sl, r9, #1232	; 0x4d0
     27c:	010559bc 			; <UNDEFINED> instruction: 0x010559bc
     280:	00120222 	andseq	r0, r2, r2, lsr #4
     284:	01050101 	tsteq	r5, r1, lsl #2
     288:	d8020500 	stmdale	r2, {r8, sl}
     28c:	03080004 	movweq	r0, #32772	; 0x8004
     290:	0501018e 	streq	r0, [r1, #-398]	; 0xfffffe72
     294:	01054b02 	tsteq	r5, r2, lsl #22
     298:	0004023d 	andeq	r0, r4, sp, lsr r2
     29c:	01050101 	tsteq	r5, r1, lsl #2
     2a0:	00020500 	andeq	r0, r2, r0, lsl #10
     2a4:	03000000 	movweq	r0, #0
     2a8:	05010199 	streq	r0, [r1, #-409]	; 0xfffffe67
     2ac:	0c053006 	stceq	0, cr3, [r5], {6}
     2b0:	2f060520 	svccs	0x00060520
     2b4:	05200c05 	streq	r0, [r0, #-3077]!	; 0xfffff3fb
     2b8:	0d052f06 	stceq	15, cr2, [r5, #-24]	; 0xffffffe8
     2bc:	2f060520 	svccs	0x00060520
     2c0:	05200d05 	streq	r0, [r0, #-3333]!	; 0xfffff2fb
     2c4:	0e052f06 	cdpeq	15, 0, cr2, cr5, cr6, {0}
     2c8:	30060520 	andcc	r0, r6, r0, lsr #10
     2cc:	05200b05 	streq	r0, [r0, #-2821]!	; 0xfffff4fb
     2d0:	67673f02 	strbvs	r3, [r7, -r2, lsl #30]!
     2d4:	67676767 	strbvs	r6, [r7, -r7, ror #14]!
     2d8:	02670105 	rsbeq	r0, r7, #1073741825	; 0x40000001
     2dc:	0101000b 	tsteq	r1, fp
     2e0:	05000105 	streq	r0, [r0, #-261]	; 0xfffffefb
     2e4:	00000002 	andeq	r0, r0, r2
     2e8:	01b60300 			; <UNDEFINED> instruction: 0x01b60300
     2ec:	4b020501 	blmi	816f8 <_Min_Stack_Size+0x812f8>
     2f0:	023d0105 	eorseq	r0, sp, #1073741825	; 0x40000001
     2f4:	01010004 	tsteq	r1, r4
     2f8:	05000105 	streq	r0, [r0, #-261]	; 0xfffffefb
     2fc:	0004f002 	andeq	pc, r4, r2
     300:	01be0308 			; <UNDEFINED> instruction: 0x01be0308
     304:	30020501 	andcc	r0, r2, r1, lsl #10
     308:	05681805 	strbeq	r1, [r8, #-2053]!	; 0xfffff7fb
     30c:	16052e04 	strne	r2, [r5], -r4, lsl #28
     310:	2e030531 	mcrcs	5, 0, r0, cr3, cr1, {1}
     314:	02270105 	eoreq	r0, r7, #1073741825	; 0x40000001
     318:	01010007 	tsteq	r1, r7
     31c:	05000105 	streq	r0, [r0, #-261]	; 0xfffffefb
     320:	00051c02 	andeq	r1, r5, r2, lsl #24
     324:	01cf0308 	biceq	r0, pc, r8, lsl #6
     328:	2f020501 	svccs	0x00020501
     32c:	05681805 	strbeq	r1, [r8, #-2053]!	; 0xfffff7fb
     330:	16052e04 	strne	r2, [r5], -r4, lsl #28
     334:	2e030531 	mcrcs	5, 0, r0, cr3, cr1, {1}
     338:	02260105 	eoreq	r0, r6, #1073741825	; 0x40000001
     33c:	01010007 	tsteq	r1, r7
     340:	05000105 	streq	r0, [r0, #-261]	; 0xfffffefb
     344:	00054802 	andeq	r4, r5, r2, lsl #16
     348:	01de0308 	bicseq	r0, lr, r8, lsl #6
     34c:	2f020501 	svccs	0x00020501
     350:	05681805 	strbeq	r1, [r8, #-2053]!	; 0xfffff7fb
     354:	16052e04 	strne	r2, [r5], -r4, lsl #28
     358:	2e030531 	mcrcs	5, 0, r0, cr3, cr1, {1}
     35c:	02260105 	eoreq	r0, r6, #1073741825	; 0x40000001
     360:	01010007 	tsteq	r1, r7
     364:	05000105 	streq	r0, [r0, #-261]	; 0xfffffefb
     368:	00057402 	andeq	r7, r5, r2, lsl #8
     36c:	01ed0308 	mvneq	r0, r8, lsl #6
     370:	2f020501 	svccs	0x00020501
     374:	05681805 	strbeq	r1, [r8, #-2053]!	; 0xfffff7fb
     378:	16052e04 	strne	r2, [r5], -r4, lsl #28
     37c:	2e030531 	mcrcs	5, 0, r0, cr3, cr1, {1}
     380:	02260105 	eoreq	r0, r6, #1073741825	; 0x40000001
     384:	01010007 	tsteq	r1, r7
     388:	05000105 	streq	r0, [r0, #-261]	; 0xfffffefb
     38c:	0005a002 	andeq	sl, r5, r2
     390:	01fc0308 	mvnseq	r0, r8, lsl #6
     394:	2f020501 	svccs	0x00020501
     398:	05681805 	strbeq	r1, [r8, #-2053]!	; 0xfffff7fb
     39c:	16052e04 	strne	r2, [r5], -r4, lsl #28
     3a0:	2e030531 	mcrcs	5, 0, r0, cr3, cr1, {1}
     3a4:	02260105 	eoreq	r0, r6, #1073741825	; 0x40000001
     3a8:	01010007 	tsteq	r1, r7
     3ac:	05000105 	streq	r0, [r0, #-261]	; 0xfffffefb
     3b0:	0005cc02 	andeq	ip, r5, r2, lsl #24
     3b4:	028b0308 	addeq	r0, fp, #8, 6	; 0x20000000
     3b8:	2f090501 	svccs	0x00090501
     3bc:	052e0e05 	streq	r0, [lr, #-3589]!	; 0xfffff1fb
     3c0:	03052e04 	movweq	r2, #24068	; 0x5e04
     3c4:	68190530 	ldmdavs	r9, {r4, r5, r8, sl}
     3c8:	052e0505 	streq	r0, [lr, #-1285]!	; 0xfffffafb
     3cc:	04053117 	streq	r3, [r5], #-279	; 0xfffffee9
     3d0:	2809052e 	stmdacs	r9, {r1, r2, r3, r5, r8, sl}
     3d4:	052e0e05 	streq	r0, [lr, #-3589]!	; 0xfffff1fb
     3d8:	03052e04 	movweq	r2, #24068	; 0x5e04
     3dc:	68190530 	ldmdavs	r9, {r4, r5, r8, sl}
     3e0:	052e0505 	streq	r0, [lr, #-1285]!	; 0xfffffafb
     3e4:	04053117 	streq	r3, [r5], #-279	; 0xfffffee9
     3e8:	2709052e 	strcs	r0, [r9, -lr, lsr #10]
     3ec:	052e0e05 	streq	r0, [lr, #-3589]!	; 0xfffff1fb
     3f0:	03052e04 	movweq	r2, #24068	; 0x5e04
     3f4:	68190530 	ldmdavs	r9, {r4, r5, r8, sl}
     3f8:	052e0505 	streq	r0, [lr, #-1285]!	; 0xfffffafb
     3fc:	04053117 	streq	r3, [r5], #-279	; 0xfffffee9
     400:	2709052e 	strcs	r0, [r9, -lr, lsr #10]
     404:	052e0e05 	streq	r0, [lr, #-3589]!	; 0xfffff1fb
     408:	03052e04 	movweq	r2, #24068	; 0x5e04
     40c:	68190530 	ldmdavs	r9, {r4, r5, r8, sl}
     410:	052e0505 	streq	r0, [lr, #-1285]!	; 0xfffffafb
     414:	04053117 	streq	r3, [r5], #-279	; 0xfffffee9
     418:	2709052e 	strcs	r0, [r9, -lr, lsr #10]
     41c:	052e0e05 	streq	r0, [lr, #-3589]!	; 0xfffff1fb
     420:	03052e04 	movweq	r2, #24068	; 0x5e04
     424:	68190530 	ldmdavs	r9, {r4, r5, r8, sl}
     428:	052e0505 	streq	r0, [lr, #-1285]!	; 0xfffffafb
     42c:	04053117 	streq	r3, [r5], #-279	; 0xfffffee9
     430:	2701052e 	strcs	r0, [r1, -lr, lsr #10]
     434:	01000702 	tsteq	r0, r2, lsl #14
     438:	00010501 	andeq	r0, r1, r1, lsl #10
     43c:	069c0205 	ldreq	r0, [ip], r5, lsl #4
     440:	d6030800 	strle	r0, [r3], -r0, lsl #16
     444:	09050102 	stmdbeq	r5, {r1, r8}
     448:	2e0e052f 	cfsh32cs	mvfx0, mvfx14, #31
     44c:	052e0405 	streq	r0, [lr, #-1029]!	; 0xfffffbfb
     450:	19053003 	stmdbne	r5, {r0, r1, ip, sp}
     454:	2e050568 	cfsh32cs	mvfx0, mvfx5, #56
     458:	05311705 	ldreq	r1, [r1, #-1797]!	; 0xfffff8fb
     45c:	09052e04 	stmdbeq	r5, {r2, r9, sl, fp, sp}
     460:	2e0e0527 	cfsh32cs	mvfx0, mvfx14, #23
     464:	052e0405 	streq	r0, [lr, #-1029]!	; 0xfffffbfb
     468:	19053003 	stmdbne	r5, {r0, r1, ip, sp}
     46c:	2e050568 	cfsh32cs	mvfx0, mvfx5, #56
     470:	05311705 	ldreq	r1, [r1, #-1797]!	; 0xfffff8fb
     474:	09052e04 	stmdbeq	r5, {r2, r9, sl, fp, sp}
     478:	2e0e0527 	cfsh32cs	mvfx0, mvfx14, #23
     47c:	052e0405 	streq	r0, [lr, #-1029]!	; 0xfffffbfb
     480:	19053003 	stmdbne	r5, {r0, r1, ip, sp}
     484:	2e050568 	cfsh32cs	mvfx0, mvfx5, #56
     488:	05311705 	ldreq	r1, [r1, #-1797]!	; 0xfffff8fb
     48c:	09052e04 	stmdbeq	r5, {r2, r9, sl, fp, sp}
     490:	2e0e0527 	cfsh32cs	mvfx0, mvfx14, #23
     494:	052e0405 	streq	r0, [lr, #-1029]!	; 0xfffffbfb
     498:	19053003 	stmdbne	r5, {r0, r1, ip, sp}
     49c:	2e050568 	cfsh32cs	mvfx0, mvfx5, #56
     4a0:	05311705 	ldreq	r1, [r1, #-1797]!	; 0xfffff8fb
     4a4:	09052e04 	stmdbeq	r5, {r2, r9, sl, fp, sp}
     4a8:	2e0e0527 	cfsh32cs	mvfx0, mvfx14, #23
     4ac:	052e0405 	streq	r0, [lr, #-1029]!	; 0xfffffbfb
     4b0:	19053003 	stmdbne	r5, {r0, r1, ip, sp}
     4b4:	2e050568 	cfsh32cs	mvfx0, mvfx5, #56
     4b8:	05311705 	ldreq	r1, [r1, #-1797]!	; 0xfffff8fb
     4bc:	09052e04 	stmdbeq	r5, {r2, r9, sl, fp, sp}
     4c0:	2e0e0527 	cfsh32cs	mvfx0, mvfx14, #23
     4c4:	052e0405 	streq	r0, [lr, #-1029]!	; 0xfffffbfb
     4c8:	19053003 	stmdbne	r5, {r0, r1, ip, sp}
     4cc:	2e050568 	cfsh32cs	mvfx0, mvfx5, #56
     4d0:	05311705 	ldreq	r1, [r1, #-1797]!	; 0xfffff8fb
     4d4:	01052e04 	tsteq	r5, r4, lsl #28
     4d8:	00060227 	andeq	r0, r6, r7, lsr #4
     4dc:	024c0101 	subeq	r0, ip, #1073741824	; 0x40000000
     4e0:	00030000 	andeq	r0, r3, r0
     4e4:	000000aa 	andeq	r0, r0, sl, lsr #1
     4e8:	0efb0102 	cdpeq	1, 15, cr0, cr11, cr2, {0}
     4ec:	0101000d 	tsteq	r1, sp
     4f0:	00000101 	andeq	r0, r0, r1, lsl #2
     4f4:	00000100 	andeq	r0, r0, r0, lsl #2
     4f8:	2f2e2e01 	svccs	0x002e2e01
     4fc:	2f637253 	svccs	0x00637253
     500:	4c41434d 	mcrrmi	3, 4, r4, r1, cr13
     504:	4950472f 	ldmdbmi	r0, {r0, r1, r2, r3, r5, r8, r9, sl, lr}^
     508:	7244204f 	subvc	r2, r4, #79	; 0x4f
     50c:	72657669 	rsbvc	r7, r5, #110100480	; 0x6900000
     510:	2f2e2e00 	svccs	0x002e2e00
     514:	2f637253 	svccs	0x00637253
     518:	4c41434d 	mcrrmi	3, 4, r4, r1, cr13
     51c:	4950472f 	ldmdbmi	r0, {r0, r1, r2, r3, r5, r8, r9, sl, lr}^
     520:	7244204f 	subvc	r2, r4, #79	; 0x4f
     524:	72657669 	rsbvc	r7, r5, #110100480	; 0x6900000
     528:	2f2e2e2f 	svccs	0x002e2e2f
     52c:	4c2f2e2e 	stcmi	14, cr2, [pc], #-184	; 47c <_Min_Stack_Size+0x7c>
     530:	00004249 	andeq	r4, r0, r9, asr #4
     534:	4f495047 	svcmi	0x00495047
     538:	6f72705f 	svcvs	0x0072705f
     53c:	6d617267 	sfmvs	f7, 2, [r1, #-412]!	; 0xfffffe64
     540:	0100632e 	tsteq	r0, lr, lsr #6
     544:	6c500000 	mravs	r0, r0, acc0
     548:	6f667461 	svcvs	0x00667461
     54c:	545f6d72 	ldrbpl	r6, [pc], #-3442	; 554 <_Min_Stack_Size+0x154>
     550:	73657079 	cmnvc	r5, #121	; 0x79
     554:	0200682e 	andeq	r6, r0, #3014656	; 0x2e0000
     558:	54530000 	ldrbpl	r0, [r3], #-0
     55c:	4632334d 	ldrtmi	r3, [r2], -sp, asr #6
     560:	78333031 	ldmdavc	r3!, {r0, r4, r5, ip, sp}
     564:	654d5f36 	strbvs	r5, [sp, #-3894]	; 0xfffff0ca
     568:	70614d6d 	rsbvc	r4, r1, sp, ror #26
     56c:	0200682e 	andeq	r6, r0, #3014656	; 0x2e0000
     570:	50470000 	subpl	r0, r7, r0
     574:	695f4f49 	ldmdbvs	pc, {r0, r3, r6, r8, r9, sl, fp, lr}^	; <UNPREDICTABLE>
     578:	7265746e 	rsbvc	r7, r5, #1845493760	; 0x6e000000
     57c:	65636166 	strbvs	r6, [r3, #-358]!	; 0xfffffe9a
     580:	0100682e 	tsteq	r0, lr, lsr #16
     584:	74550000 	ldrbvc	r0, [r5], #-0
     588:	2e736c69 	cdpcs	12, 7, cr6, cr3, cr9, {3}
     58c:	00020068 	andeq	r0, r2, r8, rrx
     590:	01050000 	mrseq	r0, (UNDEF: 5)
     594:	90020500 	andls	r0, r2, r0, lsl #10
     598:	03080007 	movweq	r0, #32775	; 0x8007
     59c:	02050111 	andeq	r0, r5, #1073741828	; 0x40000004
     5a0:	021a0559 	andseq	r0, sl, #373293056	; 0x16400000
     5a4:	2f2f1427 	svccs	0x002f1427
     5a8:	2f2f2f2f 	svccs	0x002f2f2f
     5ac:	052f2f2f 	streq	r2, [pc, #-3887]!	; fffff685 <_estack+0xdfffce85>
     5b0:	2f2f2f1b 	svccs	0x002f2f1b
     5b4:	052f2f2f 	streq	r2, [pc, #-3887]!	; fffff68d <_estack+0xdfffce8d>
     5b8:	01052f14 	tsteq	r5, r4, lsl pc
     5bc:	00050222 	andeq	r0, r5, r2, lsr #4
     5c0:	01050101 	tsteq	r5, r1, lsl #2
     5c4:	34020500 	strcc	r0, [r2], #-1280	; 0xfffffb00
     5c8:	03080008 	movweq	r0, #32776	; 0x8008
     5cc:	0d050130 	stfeqs	f0, [r5, #-192]	; 0xffffff40
     5d0:	31390583 	teqcc	r9, r3, lsl #11
     5d4:	01040200 	mrseq	r0, R12_usr
     5d8:	02003c06 	andeq	r3, r0, #1536	; 0x600
     5dc:	052e0204 	streq	r0, [lr, #-516]!	; 0xfffffdfc
     5e0:	04020010 	streq	r0, [r2], #-16
     5e4:	052e0604 	streq	r0, [lr, #-1540]!	; 0xfffff9fc
     5e8:	0402001d 	streq	r0, [r2], #-29	; 0xffffffe3
     5ec:	1b052304 	blne	149204 <_Min_Stack_Size+0x148e04>
     5f0:	04040200 	streq	r0, [r4], #-512	; 0xfffffe00
     5f4:	00160566 	andseq	r0, r6, r6, ror #10
     5f8:	2e040402 	cdpcs	4, 0, cr0, cr4, cr2, {0}
     5fc:	02001305 	andeq	r1, r0, #335544320	; 0x14000000
     600:	05200404 	streq	r0, [r0, #-1028]!	; 0xfffffbfc
     604:	0402001e 	streq	r0, [r2], #-30	; 0xffffffe2
     608:	20055b04 	andcs	r5, r5, r4, lsl #22
     60c:	04040200 	streq	r0, [r4], #-512	; 0xfffffe00
     610:	001e0520 	andseq	r0, lr, r0, lsr #10
     614:	58040402 	stmdapl	r4, {r1, sl}
     618:	02001305 	andeq	r1, r0, #335544320	; 0x14000000
     61c:	052e0404 	streq	r0, [lr, #-1028]!	; 0xfffffbfc
     620:	04020004 	streq	r0, [r2], #-4
     624:	03055b04 	movweq	r5, #23300	; 0x5b04
     628:	9201053f 	andls	r0, r1, #264241152	; 0xfc00000
     62c:	01000402 	tsteq	r0, r2, lsl #8
     630:	00010501 	andeq	r0, r1, r1, lsl #10
     634:	00000205 	andeq	r0, r0, r5, lsl #4
     638:	cc030000 	stcgt	0, cr0, [r3], {-0}
     63c:	0d050100 	stfeqs	f0, [r5, #-0]
     640:	04053d5a 	streq	r3, [r5], #-3418	; 0xfffff2a6
     644:	4d0e053e 	cfstr32mi	mvfx0, [lr, #-248]	; 0xffffff08
     648:	024c0105 	subeq	r0, ip, #1073741825	; 0x40000001
     64c:	01010005 	tsteq	r1, r5
     650:	05000105 	streq	r0, [r0, #-261]	; 0xfffffefb
     654:	00000002 	andeq	r0, r0, r2
     658:	00e10300 	rsceq	r0, r1, r0, lsl #6
     65c:	83040501 	movwhi	r0, #17665	; 0x4501
     660:	053e0305 	ldreq	r0, [lr, #-773]!	; 0xfffffcfb
     664:	03059601 	movweq	r9, #22017	; 0x5601
     668:	a001051e 	andge	r0, r1, lr, lsl r5
     66c:	01000502 	tsteq	r0, r2, lsl #10
     670:	00010501 	andeq	r0, r1, r1, lsl #10
     674:	00000205 	andeq	r0, r0, r5, lsl #4
     678:	f4030000 	vst4.8	{d0-d3}, [r3], r0
     67c:	0f050100 	svceq	0x00050100
     680:	200d0567 	andcs	r0, sp, r7, ror #10
     684:	022f0105 	eoreq	r0, pc, #1073741825	; 0x40000001
     688:	01010005 	tsteq	r1, r5
     68c:	05000105 	streq	r0, [r0, #-261]	; 0xfffffefb
     690:	00000002 	andeq	r0, r0, r2
     694:	01800300 	orreq	r0, r0, r0, lsl #6
     698:	67020501 	strvs	r0, [r2, -r1, lsl #10]
     69c:	02910105 	addseq	r0, r1, #1073741825	; 0x40000001
     6a0:	01010005 	tsteq	r1, r5
     6a4:	05000105 	streq	r0, [r0, #-261]	; 0xfffffefb
     6a8:	00000002 	andeq	r0, r0, r2
     6ac:	018c0300 	orreq	r0, ip, r0, lsl #6
     6b0:	4b0d0501 	blmi	341abc <_Min_Stack_Size+0x3416bc>
     6b4:	02830105 	addeq	r0, r3, #1073741825	; 0x40000001
     6b8:	01010005 	tsteq	r1, r5
     6bc:	05000105 	streq	r0, [r0, #-261]	; 0xfffffefb
     6c0:	00000002 	andeq	r0, r0, r2
     6c4:	01980300 	orrseq	r0, r8, r0, lsl #6
     6c8:	670a0501 	strvs	r0, [sl, -r1, lsl #10]
     6cc:	052f0d05 	streq	r0, [pc, #-3333]!	; fffff9cf <_estack+0xdfffd1cf>
     6d0:	0905660b 	stmdbeq	r5, {r0, r1, r3, r9, sl, sp, lr}
     6d4:	2101053d 	tstcs	r1, sp, lsr r5
     6d8:	01000502 	tsteq	r0, r2, lsl #10
     6dc:	00010501 	andeq	r0, r1, r1, lsl #10
     6e0:	00000205 	andeq	r0, r0, r5, lsl #4
     6e4:	a5030000 	strge	r0, [r3, #-0]
     6e8:	0b050101 	bleq	140af4 <_Min_Stack_Size+0x1406f4>
     6ec:	2f1d054b 	svccs	0x001d054b
     6f0:	052e0c05 	streq	r0, [lr, #-3077]!	; 0xfffff3fb
     6f4:	01052109 	tsteq	r5, r9, lsl #2
     6f8:	00050221 	andeq	r0, r5, r1, lsr #4
     6fc:	01050101 	tsteq	r5, r1, lsl #2
     700:	00020500 	andeq	r0, r2, r0, lsl #10
     704:	03000000 	movweq	r0, #0
     708:	050101b3 	streq	r0, [r1, #-435]	; 0xfffffe4d
     70c:	0205670a 	andeq	r6, r5, #2621440	; 0x280000
     710:	900a0330 	andls	r0, sl, r0, lsr r3
     714:	05676767 	strbeq	r6, [r7, #-1895]!	; 0xfffff899
     718:	1d052f05 	stcne	15, cr2, [r5, #-20]	; 0xffffffec
     71c:	2e04052e 	cfsh32cs	mvfx0, mvfx4, #30
     720:	05300d05 	ldreq	r0, [r0, #-3333]!	; 0xfffff2fb
     724:	01053009 	tsteq	r5, r9
     728:	00050221 	andeq	r0, r5, r1, lsr #4
     72c:	043f0101 	ldrteq	r0, [pc], #-257	; 734 <_Min_Stack_Size+0x334>
     730:	00030000 	andeq	r0, r3, r0
     734:	000001f5 	strdeq	r0, [r0], -r5
     738:	0efb0102 	cdpeq	1, 15, cr0, cr11, cr2, {0}
     73c:	0101000d 	tsteq	r1, sp
     740:	00000101 	andeq	r0, r0, r1, lsl #2
     744:	00000100 	andeq	r0, r0, r0, lsl #2
     748:	2f2e2e01 	svccs	0x002e2e01
     74c:	2f637253 	svccs	0x00637253
     750:	4c41434d 	mcrrmi	3, 4, r4, r1, cr13
     754:	4153552f 	cmpmi	r3, pc, lsr #10
     758:	44205452 	strtmi	r5, [r0], #-1106	; 0xfffffbae
     75c:	65766972 	ldrbvs	r6, [r6, #-2418]!	; 0xfffff68e
     760:	2e2e0072 	mcrcs	0, 1, r0, cr14, cr2, {3}
     764:	6372532f 	cmnvs	r2, #-1140850688	; 0xbc000000
     768:	41434d2f 	cmpmi	r3, pc, lsr #26
     76c:	53552f4c 	cmppl	r5, #76, 30	; 0x130
     770:	20545241 	subscs	r5, r4, r1, asr #4
     774:	76697244 	strbtvc	r7, [r9], -r4, asr #4
     778:	2e2f7265 	cdpcs	2, 2, cr7, cr15, cr5, {3}
     77c:	2e2e2f2e 	cdpcs	15, 2, cr2, cr14, cr14, {1}
     780:	42494c2f 	submi	r4, r9, #12032	; 0x2f00
     784:	2f2e2e00 	svccs	0x002e2e00
     788:	2f637253 	svccs	0x00637253
     78c:	4c41434d 	mcrrmi	3, 4, r4, r1, cr13
     790:	4153552f 	cmpmi	r3, pc, lsr #10
     794:	44205452 	strtmi	r5, [r0], #-1106	; 0xfffffbae
     798:	65766972 	ldrbvs	r6, [r6, #-2418]!	; 0xfffff68e
     79c:	2e2e2f72 	mcrcs	15, 1, r2, cr14, cr2, {3}
     7a0:	4343522f 	movtmi	r5, #12847	; 0x322f
     7a4:	69724420 	ldmdbvs	r2!, {r5, sl, lr}^
     7a8:	00726576 	rsbseq	r6, r2, r6, ror r5
     7ac:	532f2e2e 			; <UNDEFINED> instruction: 0x532f2e2e
     7b0:	4d2f6372 	stcmi	3, cr6, [pc, #-456]!	; 5f0 <_Min_Stack_Size+0x1f0>
     7b4:	2f4c4143 	svccs	0x004c4143
     7b8:	52415355 	subpl	r5, r1, #1409286145	; 0x54000001
     7bc:	72442054 	subvc	r2, r4, #84	; 0x54
     7c0:	72657669 	rsbvc	r7, r5, #110100480	; 0x6900000
     7c4:	2f2e2e2f 	svccs	0x002e2e2f
     7c8:	4f495047 	svcmi	0x00495047
     7cc:	69724420 	ldmdbvs	r2!, {r5, sl, lr}^
     7d0:	00726576 	rsbseq	r6, r2, r6, ror r5
     7d4:	532f2e2e 			; <UNDEFINED> instruction: 0x532f2e2e
     7d8:	4d2f6372 	stcmi	3, cr6, [pc, #-456]!	; 618 <_Min_Stack_Size+0x218>
     7dc:	2f4c4143 	svccs	0x004c4143
     7e0:	52415355 	subpl	r5, r1, #1409286145	; 0x54000001
     7e4:	72442054 	subvc	r2, r4, #84	; 0x54
     7e8:	72657669 	rsbvc	r7, r5, #110100480	; 0x6900000
     7ec:	2f2e2e2f 	svccs	0x002e2e2f
     7f0:	20434352 	subcs	r4, r3, r2, asr r3
     7f4:	76697244 	strbtvc	r7, [r9], -r4, asr #4
     7f8:	2e2f7265 	cdpcs	2, 2, cr7, cr15, cr5, {3}
     7fc:	2e2e2f2e 	cdpcs	15, 2, cr2, cr14, cr14, {1}
     800:	42494c2f 	submi	r4, r9, #12032	; 0x2f00
     804:	2f2e2e00 	svccs	0x002e2e00
     808:	2f637253 	svccs	0x00637253
     80c:	4c41434d 	mcrrmi	3, 4, r4, r1, cr13
     810:	4153552f 	cmpmi	r3, pc, lsr #10
     814:	44205452 	strtmi	r5, [r0], #-1106	; 0xfffffbae
     818:	65766972 	ldrbvs	r6, [r6, #-2418]!	; 0xfffff68e
     81c:	2e2e2f72 	mcrcs	15, 1, r2, cr14, cr2, {3}
     820:	4950472f 	ldmdbmi	r0, {r0, r1, r2, r3, r5, r8, r9, sl, lr}^
     824:	7244204f 	subvc	r2, r4, #79	; 0x4f
     828:	72657669 	rsbvc	r7, r5, #110100480	; 0x6900000
     82c:	2f2e2e2f 	svccs	0x002e2e2f
     830:	4c2f2e2e 	stcmi	14, cr2, [pc], #-184	; 780 <_Min_Stack_Size+0x380>
     834:	00004249 	andeq	r4, r0, r9, asr #4
     838:	52415355 	subpl	r5, r1, #1409286145	; 0x54000001
     83c:	72705f54 	rsbsvc	r5, r0, #84, 30	; 0x150
     840:	6172676f 	cmnvs	r2, pc, ror #14
     844:	00632e6d 	rsbeq	r2, r3, sp, ror #28
     848:	50000001 	andpl	r0, r0, r1
     84c:	6674616c 	ldrbtvs	r6, [r4], -ip, ror #2
     850:	5f6d726f 	svcpl	0x006d726f
     854:	65707954 	ldrbvs	r7, [r0, #-2388]!	; 0xfffff6ac
     858:	00682e73 	rsbeq	r2, r8, r3, ror lr
     85c:	53000002 	movwpl	r0, #2
     860:	32334d54 	eorscc	r4, r3, #84, 26	; 0x1500
     864:	33303146 	teqcc	r0, #-2147483631	; 0x80000011
     868:	4d5f3678 	ldclmi	6, cr3, [pc, #-480]	; 690 <_Min_Stack_Size+0x290>
     86c:	614d6d65 	cmpvs	sp, r5, ror #26
     870:	00682e70 	rsbeq	r2, r8, r0, ror lr
     874:	55000002 	strpl	r0, [r0, #-2]
     878:	54524153 	ldrbpl	r4, [r2], #-339	; 0xfffffead
     87c:	746e695f 	strbtvc	r6, [lr], #-2399	; 0xfffff6a1
     880:	61667265 	cmnvs	r6, r5, ror #4
     884:	682e6563 	stmdavs	lr!, {r0, r1, r5, r6, r8, sl, sp, lr}
     888:	00000100 	andeq	r0, r0, r0, lsl #2
     88c:	5f434352 	svcpl	0x00434352
     890:	65746e69 	ldrbvs	r6, [r4, #-3689]!	; 0xfffff197
     894:	63616672 	cmnvs	r1, #119537664	; 0x7200000
     898:	00682e65 	rsbeq	r2, r8, r5, ror #28
     89c:	47000003 	strmi	r0, [r0, -r3]
     8a0:	5f4f4950 	svcpl	0x004f4950
     8a4:	65746e69 	ldrbvs	r6, [r4, #-3689]!	; 0xfffff197
     8a8:	63616672 	cmnvs	r1, #119537664	; 0x7200000
     8ac:	00682e65 	rsbeq	r2, r8, r5, ror #28
     8b0:	55000004 	strpl	r0, [r0, #-4]
     8b4:	736c6974 	cmnvc	ip, #116, 18	; 0x1d0000
     8b8:	0200682e 	andeq	r6, r0, #3014656	; 0x2e0000
     8bc:	6c500000 	mravs	r0, r0, acc0
     8c0:	6f667461 	svcvs	0x00667461
     8c4:	545f6d72 	ldrbpl	r6, [pc], #-3442	; 8cc <_Min_Stack_Size+0x4cc>
     8c8:	73657079 	cmnvc	r5, #121	; 0x79
     8cc:	0500682e 	streq	r6, [r0, #-2094]	; 0xfffff7d2
     8d0:	74550000 	ldrbvc	r0, [r5], #-0
     8d4:	2e736c69 	cdpcs	12, 7, cr6, cr3, cr9, {3}
     8d8:	00050068 	andeq	r0, r5, r8, rrx
     8dc:	4d545300 	ldclmi	3, cr5, [r4, #-0]
     8e0:	31463233 	cmpcc	r6, r3, lsr r2
     8e4:	36783330 			; <UNDEFINED> instruction: 0x36783330
     8e8:	6d654d5f 	stclvs	13, cr4, [r5, #-380]!	; 0xfffffe84
     8ec:	2e70614d 	rpwcssm	f6, f0, #5.0
     8f0:	00050068 	andeq	r0, r5, r8, rrx
     8f4:	616c5000 	cmnvs	ip, r0
     8f8:	726f6674 	rsbvc	r6, pc, #116, 12	; 0x7400000
     8fc:	79545f6d 	ldmdbvc	r4, {r0, r2, r3, r5, r6, r8, r9, sl, fp, ip, lr}^
     900:	2e736570 	mrccs	5, 3, r6, cr3, cr0, {3}
     904:	00060068 	andeq	r0, r6, r8, rrx
     908:	69745500 	ldmdbvs	r4!, {r8, sl, ip, lr}^
     90c:	682e736c 	stmdavs	lr!, {r2, r3, r5, r6, r8, r9, ip, sp, lr}
     910:	00000600 	andeq	r0, r0, r0, lsl #12
     914:	334d5453 	movtcc	r5, #54355	; 0xd453
     918:	30314632 	eorscc	r4, r1, r2, lsr r6
     91c:	5f367833 	svcpl	0x00367833
     920:	4d6d654d 	cfstr64mi	mvdx6, [sp, #-308]!	; 0xfffffecc
     924:	682e7061 	stmdavs	lr!, {r0, r5, r6, ip, sp, lr}
     928:	00000600 	andeq	r0, r0, r0, lsl #12
     92c:	00010500 	andeq	r0, r1, r0, lsl #10
     930:	00000205 	andeq	r0, r0, r5, lsl #4
     934:	0e030000 	cdpeq	0, 0, cr0, cr3, cr0, {0}
     938:	4b040501 	blmi	101d44 <_Min_Stack_Size+0x101944>
     93c:	054c0a05 	strbeq	r0, [ip, #-2565]	; 0xfffff5fb
     940:	0a053009 	beq	14c96c <_Min_Stack_Size+0x14c56c>
     944:	3009054c 	andcc	r0, r9, ip, asr #10
     948:	054c0a05 	strbeq	r0, [ip, #-2565]	; 0xfffff5fb
     94c:	01053009 	tsteq	r5, r9
     950:	000b0221 	andeq	r0, fp, r1, lsr #4
     954:	01050101 	tsteq	r5, r1, lsl #2
     958:	00020500 	andeq	r0, r2, r0, lsl #10
     95c:	03000000 	movweq	r0, #0
     960:	1d050127 	stfnes	f0, [r5, #-156]	; 0xffffff64
     964:	5832055a 	ldmdapl	r2!, {r1, r3, r4, r6, r8, sl}
     968:	054d0205 	strbeq	r0, [sp, #-517]	; 0xfffffdfb
     96c:	03056904 	movweq	r6, #22788	; 0x5904
     970:	7609054c 	strvc	r0, [r9], -ip, asr #10
     974:	054c0305 	strbeq	r0, [ip, #-773]	; 0xfffffcfb
     978:	03057609 	movweq	r7, #22025	; 0x5609
     97c:	6a0e054c 	bvs	381eb4 <_Min_Stack_Size+0x381ab4>
     980:	052e1d05 	streq	r1, [lr, #-3333]!	; 0xfffff2fb
     984:	053f2e0e 	ldreq	r2, [pc, #-3598]!	; fffffb7e <_estack+0xdfffd37e>
     988:	0e052e1d 	mcreq	14, 0, r2, cr5, cr13, {0}
     98c:	1d053f2e 	stcne	15, cr3, [r5, #-184]	; 0xffffff48
     990:	2e0e052e 	cfsh32cs	mvfx0, mvfx14, #30
     994:	2e1d053f 	mrccs	5, 0, r0, cr13, cr15, {1}
     998:	3f2e0e05 	svccc	0x002e0e05
     99c:	052e1d05 	streq	r1, [lr, #-3333]!	; 0xfffff2fb
     9a0:	04052e0e 	streq	r2, [r5], #-3598	; 0xfffff1f2
     9a4:	4c0a0540 	cfstr32mi	mvfx0, [sl], {64}	; 0x40
     9a8:	054c0905 	strbeq	r0, [ip, #-2309]	; 0xfffff6fb
     9ac:	09054c0a 	stmdbeq	r5, {r1, r3, sl, fp, lr}
     9b0:	4c0a054c 	cfstr32mi	mvfx0, [sl], {76}	; 0x4c
     9b4:	053f0805 	ldreq	r0, [pc, #-2053]!	; 1b7 <_Min_Heap_Size-0x49>
     9b8:	12230206 	eorne	r0, r3, #1610612736	; 0x60000000
     9bc:	052f0e05 	streq	r0, [pc, #-3589]!	; fffffbbf <_estack+0xdfffd3bf>
     9c0:	04053f11 	streq	r3, [r5], #-3857	; 0xfffff0ef
     9c4:	310f052e 	tstcc	pc, lr, lsr #10
     9c8:	052e1e05 	streq	r1, [lr, #-3589]!	; 0xfffff1fb
     9cc:	05052e0f 	streq	r2, [r5, #-3599]	; 0xfffff1f1
     9d0:	4c04053e 	cfstr32mi	mvfx0, [r4], {62}	; 0x3e
     9d4:	0b030105 	bleq	c0df0 <_Min_Stack_Size+0xc09f0>
     9d8:	030a0566 	movweq	r0, #42342	; 0xa566
     9dc:	04052077 	streq	r2, [r5], #-119	; 0xffffff89
     9e0:	6d01054c 	cfstr32vs	mvfx0, [r1, #-304]	; 0xfffffed0
     9e4:	051b0a05 	ldreq	r0, [fp, #-2565]	; 0xfffff5fb
     9e8:	01054c04 	tsteq	r5, r4, lsl #24
     9ec:	00130269 	andseq	r0, r3, r9, ror #4
     9f0:	01050101 	tsteq	r5, r1, lsl #2
     9f4:	00020500 	andeq	r0, r2, r0, lsl #10
     9f8:	03000000 	movweq	r0, #0
     9fc:	050100fa 	streq	r0, [r1, #-250]	; 0xffffff06
     a00:	03054b04 	movweq	r4, #23300	; 0x5b04
     a04:	0105674c 	tsteq	r5, ip, asr #14
     a08:	05660c03 	strbeq	r0, [r6, #-3075]!	; 0xfffff3fd
     a0c:	20760309 	rsbscs	r0, r6, r9, lsl #6
     a10:	674c0305 	strbvs	r0, [ip, -r5, lsl #6]
     a14:	056d0105 	strbeq	r0, [sp, #-261]!	; 0xfffffefb
     a18:	03051b09 	movweq	r1, #23305	; 0x5b09
     a1c:	0105674c 	tsteq	r5, ip, asr #14
     a20:	00100268 	andseq	r0, r0, r8, ror #4
     a24:	01050101 	tsteq	r5, r1, lsl #2
     a28:	00020500 	andeq	r0, r2, r0, lsl #10
     a2c:	03000000 	movweq	r0, #0
     a30:	05010196 	streq	r0, [r1, #-406]	; 0xfffffe6a
     a34:	08058404 	stmdaeq	r5, {r2, sl, pc}
     a38:	0009053e 	andeq	r0, r9, lr, lsr r5
     a3c:	20010402 	andcs	r0, r1, r2, lsl #8
     a40:	02001f05 	andeq	r1, r0, #5, 30
     a44:	052e0104 	streq	r0, [lr, #-260]!	; 0xfffffefc
     a48:	1f054e20 	svcne	0x00054e20
     a4c:	3c340558 	cfldr32cc	mvfx0, [r4], #-352	; 0xfffffea0
     a50:	05200405 	streq	r0, [r0, #-1029]!	; 0xfffffbfb
     a54:	0e053016 	mcreq	0, 0, r3, cr5, cr6, {0}
     a58:	3401052e 	strcc	r0, [r1], #-1326	; 0xfffffad2
     a5c:	051c2505 	ldreq	r2, [ip, #-1285]	; 0xfffffafb
     a60:	07024001 	streq	r4, [r2, -r1]
     a64:	05010100 	streq	r0, [r1, #-256]	; 0xffffff00
     a68:	02050001 	andeq	r0, r5, #1
     a6c:	00000000 	andeq	r0, r0, r0
     a70:	0101b203 	tsteq	r1, r3, lsl #4
     a74:	05760405 	ldrbeq	r0, [r6, #-1029]!	; 0xfffffbfb
     a78:	09053e08 	stmdbeq	r5, {r3, r9, sl, fp, ip, sp}
     a7c:	01040200 	mrseq	r0, R12_usr
     a80:	001f0520 	andseq	r0, pc, r0, lsr #10
     a84:	2e010402 	cdpcs	4, 0, cr0, cr1, cr2, {0}
     a88:	054d2005 	strbeq	r2, [sp, #-5]
     a8c:	3405581f 	strcc	r5, [r5], #-2079	; 0xfffff7e1
     a90:	2004053c 	andcs	r0, r4, ip, lsr r5
     a94:	05302105 	ldreq	r2, [r0, #-261]!	; 0xfffffefb
     a98:	35055820 	strcc	r5, [r5, #-2080]	; 0xfffff7e0
     a9c:	2005053c 	andcs	r0, r5, ip, lsr r5
     aa0:	05301305 	ldreq	r1, [r0, #-773]!	; 0xfffffcfb
     aa4:	0a052e18 	beq	14c30c <_Min_Stack_Size+0x14bf0c>
     aa8:	0301053c 	movweq	r0, #5436	; 0x153c
     aac:	26052e12 			; <UNDEFINED> instruction: 0x26052e12
     ab0:	05207003 	streq	r7, [r0, #-3]!
     ab4:	3c100301 	ldccc	3, cr0, [r0], {1}
     ab8:	77032105 	strvc	r2, [r3, -r5, lsl #2]
     abc:	58200520 	stmdapl	r0!, {r5, r8, sl}
     ac0:	053c3505 	ldreq	r3, [ip, #-1285]!	; 0xfffffafb
     ac4:	13052005 	movwne	r2, #20485	; 0x5005
     ac8:	2e180530 	cfmvr64hcs	r0, mvdx8
     acc:	054a0a05 	strbeq	r0, [sl, #-2565]	; 0xfffff5fb
     ad0:	26053501 	strcs	r3, [r5], -r1, lsl #10
     ad4:	4101051b 	tstmi	r1, fp, lsl r5
     ad8:	01000602 	tsteq	r0, r2, lsl #12
     adc:	00010501 	andeq	r0, r1, r1, lsl #10
     ae0:	00000205 	andeq	r0, r0, r5, lsl #4
     ae4:	d9030000 	stmdble	r3, {}	; <UNPREDICTABLE>
     ae8:	04050101 	streq	r0, [r5], #-257	; 0xfffffeff
     aec:	5003054b 	andpl	r0, r3, fp, asr #10
     af0:	03010559 	movweq	r0, #5465	; 0x1559
     af4:	09055838 	stmdbeq	r5, {r3, r4, r5, fp, ip, lr}
     af8:	05205603 	streq	r5, [r0, #-1539]!	; 0xfffff9fd
     afc:	05595003 	ldrbeq	r5, [r9, #-3]
     b00:	58230301 	stmdapl	r3!, {r0, r8, r9}
     b04:	6b030905 	blvs	c2f20 <_Min_Stack_Size+0xc2b20>
     b08:	50030520 	andpl	r0, r3, r0, lsr #10
     b0c:	03010559 	movweq	r0, #5465	; 0x1559
     b10:	0e02580e 	cdpeq	8, 0, cr5, cr2, cr14, {0}
     b14:	05010100 	streq	r0, [r1, #-256]	; 0xffffff00
     b18:	02050001 	andeq	r0, r5, #1
     b1c:	080008b0 	stmdaeq	r0, {r4, r5, r7, fp}
     b20:	01029f03 	tsteq	r2, r3, lsl #30
     b24:	052f1c05 	streq	r1, [pc, #-3077]!	; ffffff27 <_estack+0xdfffd727>
     b28:	02052e1f 	andeq	r2, r5, #496	; 0x1f0
     b2c:	21010520 	tstcs	r1, r0, lsr #10
     b30:	01000402 	tsteq	r0, r2, lsl #8
     b34:	00010501 	andeq	r0, r1, r1, lsl #10
     b38:	08c40205 	stmiaeq	r4, {r0, r2, r9}^
     b3c:	a4030800 	strge	r0, [r3], #-2048	; 0xfffff800
     b40:	1c050102 	stfnes	f0, [r5], {2}
     b44:	2e1f052f 	cfmul64cs	mvdx0, mvdx15, mvdx15
     b48:	05200205 	streq	r0, [r0, #-517]!	; 0xfffffdfb
     b4c:	04022101 	streq	r2, [r2], #-257	; 0xfffffeff
     b50:	05010100 	streq	r0, [r1, #-256]	; 0xffffff00
     b54:	02050001 	andeq	r0, r5, #1
     b58:	080008d8 	stmdaeq	r0, {r3, r4, r6, r7, fp}
     b5c:	0102a903 	tsteq	r2, r3, lsl #18
     b60:	052f1c05 	streq	r1, [pc, #-3077]!	; ffffff63 <_estack+0xdfffd763>
     b64:	02052e1f 	andeq	r2, r5, #496	; 0x1f0
     b68:	21010520 	tstcs	r1, r0, lsr #10
     b6c:	01000402 	tsteq	r0, r2, lsl #8
     b70:	0009f901 	andeq	pc, r9, r1, lsl #18
     b74:	4b000300 	blmi	177c <_Min_Stack_Size+0x137c>
     b78:	02000009 	andeq	r0, r0, #9
     b7c:	0d0efb01 	vstreq	d15, [lr, #-4]
     b80:	01010100 	mrseq	r0, (UNDEF: 17)
     b84:	00000001 	andeq	r0, r0, r1
     b88:	01000001 	tsteq	r0, r1
     b8c:	532f2e2e 			; <UNDEFINED> instruction: 0x532f2e2e
     b90:	2e006372 	mcrcs	3, 0, r6, cr0, cr2, {3}
     b94:	72532f2e 	subsvc	r2, r3, #46, 30	; 0xb8
     b98:	494c2f63 	stmdbmi	ip, {r0, r1, r5, r6, r8, r9, sl, fp, sp}^
     b9c:	2e2e0042 	cdpcs	0, 2, cr0, cr14, cr2, {2}
     ba0:	6372532f 	cmnvs	r2, #-1140850688	; 0xbc000000
     ba4:	41434d2f 	cmpmi	r3, pc, lsr #26
     ba8:	58452f4c 	stmdapl	r5, {r2, r3, r6, r8, r9, sl, fp, sp}^
     bac:	44204954 	strtmi	r4, [r0], #-2388	; 0xfffff6ac
     bb0:	65766972 	ldrbvs	r6, [r6, #-2418]!	; 0xfffff68e
     bb4:	2e2e0072 	mcrcs	0, 1, r0, cr14, cr2, {3}
     bb8:	6372532f 	cmnvs	r2, #-1140850688	; 0xbc000000
     bbc:	41434d2f 	cmpmi	r3, pc, lsr #26
     bc0:	50472f4c 	subpl	r2, r7, ip, asr #30
     bc4:	44204f49 	strtmi	r4, [r0], #-3913	; 0xfffff0b7
     bc8:	65766972 	ldrbvs	r6, [r6, #-2418]!	; 0xfffff68e
     bcc:	2e2e0072 	mcrcs	0, 1, r0, cr14, cr2, {3}
     bd0:	6372532f 	cmnvs	r2, #-1140850688	; 0xbc000000
     bd4:	41434d2f 	cmpmi	r3, pc, lsr #26
     bd8:	50472f4c 	subpl	r2, r7, ip, asr #30
     bdc:	44204f49 	strtmi	r4, [r0], #-3913	; 0xfffff0b7
     be0:	65766972 	ldrbvs	r6, [r6, #-2418]!	; 0xfffff68e
     be4:	2e2e2f72 	mcrcs	15, 1, r2, cr14, cr2, {3}
     be8:	2f2e2e2f 	svccs	0x002e2e2f
     bec:	0042494c 	subeq	r4, r2, ip, asr #18
     bf0:	532f2e2e 			; <UNDEFINED> instruction: 0x532f2e2e
     bf4:	4d2f6372 	stcmi	3, cr6, [pc, #-456]!	; a34 <_Min_Stack_Size+0x634>
     bf8:	2f4c4143 	svccs	0x004c4143
     bfc:	49545845 	ldmdbmi	r4, {r0, r2, r6, fp, ip, lr}^
     c00:	69724420 	ldmdbvs	r2!, {r5, sl, lr}^
     c04:	2f726576 	svccs	0x00726576
     c08:	2e2f2e2e 	cdpcs	14, 2, cr2, cr15, cr14, {1}
     c0c:	494c2f2e 	stmdbmi	ip, {r1, r2, r3, r5, r8, r9, sl, fp, sp}^
     c10:	2e2e0042 	cdpcs	0, 2, cr0, cr14, cr2, {2}
     c14:	6372532f 	cmnvs	r2, #-1140850688	; 0xbc000000
     c18:	41434d2f 	cmpmi	r3, pc, lsr #26
     c1c:	58452f4c 	stmdapl	r5, {r2, r3, r6, r8, r9, sl, fp, sp}^
     c20:	44204954 	strtmi	r4, [r0], #-2388	; 0xfffff6ac
     c24:	65766972 	ldrbvs	r6, [r6, #-2418]!	; 0xfffff68e
     c28:	2e2e2f72 	mcrcs	15, 1, r2, cr14, cr2, {3}
     c2c:	4950472f 	ldmdbmi	r0, {r0, r1, r2, r3, r5, r8, r9, sl, lr}^
     c30:	7244204f 	subvc	r2, r4, #79	; 0x4f
     c34:	72657669 	rsbvc	r7, r5, #110100480	; 0x6900000
     c38:	2f2e2e00 	svccs	0x002e2e00
     c3c:	2f637253 	svccs	0x00637253
     c40:	4c41434d 	mcrrmi	3, 4, r4, r1, cr13
     c44:	4153552f 	cmpmi	r3, pc, lsr #10
     c48:	44205452 	strtmi	r5, [r0], #-1106	; 0xfffffbae
     c4c:	65766972 	ldrbvs	r6, [r6, #-2418]!	; 0xfffff68e
     c50:	2e2e0072 	mcrcs	0, 1, r0, cr14, cr2, {3}
     c54:	6372532f 	cmnvs	r2, #-1140850688	; 0xbc000000
     c58:	41434d2f 	cmpmi	r3, pc, lsr #26
     c5c:	53552f4c 	cmppl	r5, #76, 30	; 0x130
     c60:	20545241 	subscs	r5, r4, r1, asr #4
     c64:	76697244 	strbtvc	r7, [r9], -r4, asr #4
     c68:	2e2f7265 	cdpcs	2, 2, cr7, cr15, cr5, {3}
     c6c:	2e2e2f2e 	cdpcs	15, 2, cr2, cr14, cr14, {1}
     c70:	42494c2f 	submi	r4, r9, #12032	; 0x2f00
     c74:	2f2e2e00 	svccs	0x002e2e00
     c78:	2f637253 	svccs	0x00637253
     c7c:	4c41434d 	mcrrmi	3, 4, r4, r1, cr13
     c80:	4153552f 	cmpmi	r3, pc, lsr #10
     c84:	44205452 	strtmi	r5, [r0], #-1106	; 0xfffffbae
     c88:	65766972 	ldrbvs	r6, [r6, #-2418]!	; 0xfffff68e
     c8c:	2e2e2f72 	mcrcs	15, 1, r2, cr14, cr2, {3}
     c90:	4343522f 	movtmi	r5, #12847	; 0x322f
     c94:	69724420 	ldmdbvs	r2!, {r5, sl, lr}^
     c98:	00726576 	rsbseq	r6, r2, r6, ror r5
     c9c:	532f2e2e 			; <UNDEFINED> instruction: 0x532f2e2e
     ca0:	4d2f6372 	stcmi	3, cr6, [pc, #-456]!	; ae0 <_Min_Stack_Size+0x6e0>
     ca4:	2f4c4143 	svccs	0x004c4143
     ca8:	52415355 	subpl	r5, r1, #1409286145	; 0x54000001
     cac:	72442054 	subvc	r2, r4, #84	; 0x54
     cb0:	72657669 	rsbvc	r7, r5, #110100480	; 0x6900000
     cb4:	2f2e2e2f 	svccs	0x002e2e2f
     cb8:	20434352 	subcs	r4, r3, r2, asr r3
     cbc:	76697244 	strbtvc	r7, [r9], -r4, asr #4
     cc0:	2e2f7265 	cdpcs	2, 2, cr7, cr15, cr5, {3}
     cc4:	2e2e2f2e 	cdpcs	15, 2, cr2, cr14, cr14, {1}
     cc8:	42494c2f 	submi	r4, r9, #12032	; 0x2f00
     ccc:	2f2e2e00 	svccs	0x002e2e00
     cd0:	2f637253 	svccs	0x00637253
     cd4:	4c41434d 	mcrrmi	3, 4, r4, r1, cr13
     cd8:	4153552f 	cmpmi	r3, pc, lsr #10
     cdc:	44205452 	strtmi	r5, [r0], #-1106	; 0xfffffbae
     ce0:	65766972 	ldrbvs	r6, [r6, #-2418]!	; 0xfffff68e
     ce4:	2e2e2f72 	mcrcs	15, 1, r2, cr14, cr2, {3}
     ce8:	4950472f 	ldmdbmi	r0, {r0, r1, r2, r3, r5, r8, r9, sl, lr}^
     cec:	7244204f 	subvc	r2, r4, #79	; 0x4f
     cf0:	72657669 	rsbvc	r7, r5, #110100480	; 0x6900000
     cf4:	2f2e2e00 	svccs	0x002e2e00
     cf8:	2f637253 	svccs	0x00637253
     cfc:	2f4c4148 	svccs	0x004c4148
     d00:	2044434c 	subcs	r4, r4, ip, asr #6
     d04:	76697244 	strbtvc	r7, [r9], -r4, asr #4
     d08:	2e007265 	cdpcs	2, 0, cr7, cr0, cr5, {3}
     d0c:	72532f2e 	subsvc	r2, r3, #46, 30	; 0xb8
     d10:	41482f63 	cmpmi	r8, r3, ror #30
     d14:	434c2f4c 	movtmi	r2, #53068	; 0xcf4c
     d18:	72442044 	subvc	r2, r4, #68	; 0x44
     d1c:	72657669 	rsbvc	r7, r5, #110100480	; 0x6900000
     d20:	2f2e2e2f 	svccs	0x002e2e2f
     d24:	4c2f2e2e 	stcmi	14, cr2, [pc], #-184	; c74 <_Min_Stack_Size+0x874>
     d28:	2e004249 	cdpcs	2, 0, cr4, cr0, cr9, {2}
     d2c:	72532f2e 	subsvc	r2, r3, #46, 30	; 0xb8
     d30:	41482f63 	cmpmi	r8, r3, ror #30
     d34:	434c2f4c 	movtmi	r2, #53068	; 0xcf4c
     d38:	72442044 	subvc	r2, r4, #68	; 0x44
     d3c:	72657669 	rsbvc	r7, r5, #110100480	; 0x6900000
     d40:	2f2e2e2f 	svccs	0x002e2e2f
     d44:	4d2f2e2e 	stcmi	14, cr2, [pc, #-184]!	; c94 <_Min_Stack_Size+0x894>
     d48:	2f4c4143 	svccs	0x004c4143
     d4c:	4f495047 	svcmi	0x00495047
     d50:	69724420 	ldmdbvs	r2!, {r5, sl, lr}^
     d54:	00726576 	rsbseq	r6, r2, r6, ror r5
     d58:	535c3a43 	cmppl	ip, #274432	; 0x43000
     d5c:	54535c54 	ldrbpl	r5, [r3], #-3156	; 0xfffff3ac
     d60:	4332334d 	teqmi	r2, #872415233	; 0x34000001
     d64:	49656275 	stmdbmi	r5!, {r0, r2, r4, r5, r6, r9, sp, lr}^
     d68:	315f4544 	cmpcc	pc, r4, asr #10
     d6c:	2e31312e 	rsfcssp	f3, f1, #0.5
     d70:	54535c32 	ldrbpl	r5, [r3], #-3122	; 0xfffff3ce
     d74:	4332334d 	teqmi	r2, #872415233	; 0x34000001
     d78:	49656275 	stmdbmi	r5!, {r0, r2, r4, r5, r6, r9, sp, lr}^
     d7c:	705c4544 	subsvc	r4, ip, r4, asr #10
     d80:	6967756c 	stmdbvs	r7!, {r2, r3, r5, r6, r8, sl, ip, sp, lr}^
     d84:	635c736e 	cmpvs	ip, #-1207959551	; 0xb8000001
     d88:	732e6d6f 			; <UNDEFINED> instruction: 0x732e6d6f
     d8c:	74732e74 	ldrbtvc	r2, [r3], #-3700	; 0xfffff18c
     d90:	6332336d 	teqvs	r2, #-1275068415	; 0xb4000001
     d94:	2e656275 	mcrcs	2, 3, r6, cr5, cr5, {3}
     d98:	2e656469 	cdpcs	4, 6, cr6, cr5, cr9, {3}
     d9c:	2e75636d 	cdpcs	3, 7, cr6, cr5, cr13, {3}
     da0:	65747865 	ldrbvs	r7, [r4, #-2149]!	; 0xfffff79b
     da4:	6c616e72 	stclvs	14, cr6, [r1], #-456	; 0xfffffe38
     da8:	6c6f6f74 	stclvs	15, cr6, [pc], #-464	; be0 <_Min_Stack_Size+0x7e0>
     dac:	6e672e73 	mcrvs	14, 3, r2, cr7, cr3, {3}
     db0:	6f742d75 	svcvs	0x00742d75
     db4:	2d736c6f 	ldclcs	12, cr6, [r3, #-444]!	; 0xfffffe44
     db8:	2d726f66 	ldclcs	15, cr6, [r2, #-408]!	; 0xfffffe68
     dbc:	336d7473 	cmncc	sp, #1929379840	; 0x73000000
     dc0:	31312e32 	teqcc	r1, r2, lsr lr
     dc4:	722e332e 	eorvc	r3, lr, #-1207959552	; 0xb8000000
     dc8:	2e316c65 	cdpcs	12, 3, cr6, cr1, cr5, {3}
     dcc:	336e6977 	cmncc	lr, #1949696	; 0x1dc000
     dd0:	2e315f32 	mrccs	15, 1, r5, cr1, cr2, {1}
     dd4:	2e312e31 	mrccs	14, 1, r2, cr1, cr1, {1}
     dd8:	33323032 	teqcc	r2, #50	; 0x32
     ddc:	33313930 	teqcc	r1, #48, 18	; 0xc0000
     de0:	36323631 			; <UNDEFINED> instruction: 0x36323631
     de4:	6f6f745c 	svcvs	0x006f745c
     de8:	625c736c 	subsvs	r7, ip, #108, 6	; 0xb0000001
     dec:	2e2f6e69 	cdpcs	14, 2, cr6, cr15, cr9, {3}
     df0:	696c2f2e 	stmdbvs	ip!, {r1, r2, r3, r5, r8, r9, sl, fp, sp}^
     df4:	63672f62 	cmnvs	r7, #392	; 0x188
     df8:	72612f63 	rsbvc	r2, r1, #396	; 0x18c
     dfc:	6f6e2d6d 	svcvs	0x006e2d6d
     e00:	652d656e 	strvs	r6, [sp, #-1390]!	; 0xfffffa92
     e04:	2f696261 	svccs	0x00696261
     e08:	332e3131 			; <UNDEFINED> instruction: 0x332e3131
     e0c:	2e2f312e 	sufcsep	f3, f7, #0.5
     e10:	2e2e2f2e 	cdpcs	15, 2, cr2, cr14, cr14, {1}
     e14:	2f2e2e2f 	svccs	0x002e2e2f
     e18:	612f2e2e 			; <UNDEFINED> instruction: 0x612f2e2e
     e1c:	6e2d6d72 	mcrvs	13, 1, r6, cr13, cr2, {3}
     e20:	2d656e6f 	stclcs	14, cr6, [r5, #-444]!	; 0xfffffe44
     e24:	69626165 	stmdbvs	r2!, {r0, r2, r5, r6, r8, sp, lr}^
     e28:	636e692f 	cmnvs	lr, #770048	; 0xbc000
     e2c:	6564756c 	strbvs	r7, [r4, #-1388]!	; 0xfffffa94
     e30:	5c3a4300 	ldcpl	3, cr4, [sl], #-0
     e34:	535c5453 	cmppl	ip, #1392508928	; 0x53000000
     e38:	32334d54 	eorscc	r4, r3, #84, 26	; 0x1500
     e3c:	65627543 	strbvs	r7, [r2, #-1347]!	; 0xfffffabd
     e40:	5f454449 	svcpl	0x00454449
     e44:	31312e31 	teqcc	r1, r1, lsr lr
     e48:	535c322e 	cmppl	ip, #-536870910	; 0xe0000002
     e4c:	32334d54 	eorscc	r4, r3, #84, 26	; 0x1500
     e50:	65627543 	strbvs	r7, [r2, #-1347]!	; 0xfffffabd
     e54:	5c454449 	cfstrdpl	mvd4, [r5], {73}	; 0x49
     e58:	67756c70 			; <UNDEFINED> instruction: 0x67756c70
     e5c:	5c736e69 	ldclpl	14, cr6, [r3], #-420	; 0xfffffe5c
     e60:	2e6d6f63 	cdpcs	15, 6, cr6, cr13, cr3, {3}
     e64:	732e7473 			; <UNDEFINED> instruction: 0x732e7473
     e68:	32336d74 	eorscc	r6, r3, #116, 26	; 0x1d00
     e6c:	65627563 	strbvs	r7, [r2, #-1379]!	; 0xfffffa9d
     e70:	6564692e 	strbvs	r6, [r4, #-2350]!	; 0xfffff6d2
     e74:	75636d2e 	strbvc	r6, [r3, #-3374]!	; 0xfffff2d2
     e78:	7478652e 	ldrbtvc	r6, [r8], #-1326	; 0xfffffad2
     e7c:	616e7265 	cmnvs	lr, r5, ror #4
     e80:	6f6f746c 	svcvs	0x006f746c
     e84:	672e736c 	strvs	r7, [lr, -ip, ror #6]!
     e88:	742d756e 	strtvc	r7, [sp], #-1390	; 0xfffffa92
     e8c:	736c6f6f 	cmnvc	ip, #444	; 0x1bc
     e90:	726f662d 	rsbvc	r6, pc, #47185920	; 0x2d00000
     e94:	6d74732d 	ldclvs	3, cr7, [r4, #-180]!	; 0xffffff4c
     e98:	312e3233 			; <UNDEFINED> instruction: 0x312e3233
     e9c:	2e332e31 	mrccs	14, 1, r2, cr3, cr1, {1}
     ea0:	316c6572 	smccc	50770	; 0xc652
     ea4:	6e69772e 	cdpvs	7, 6, cr7, cr9, cr14, {1}
     ea8:	315f3233 	cmpcc	pc, r3, lsr r2	; <UNPREDICTABLE>
     eac:	312e312e 			; <UNDEFINED> instruction: 0x312e312e
     eb0:	3230322e 	eorscc	r3, r0, #-536870910	; 0xe0000002
     eb4:	31393033 	teqcc	r9, r3, lsr r0
     eb8:	32363133 	eorscc	r3, r6, #-1073741812	; 0xc000000c
     ebc:	6f745c36 	svcvs	0x00745c36
     ec0:	5c736c6f 	ldclpl	12, cr6, [r3], #-444	; 0xfffffe44
     ec4:	2f6e6962 	svccs	0x006e6962
     ec8:	612f2e2e 			; <UNDEFINED> instruction: 0x612f2e2e
     ecc:	6e2d6d72 	mcrvs	13, 1, r6, cr13, cr2, {3}
     ed0:	2d656e6f 	stclcs	14, cr6, [r5, #-444]!	; 0xfffffe44
     ed4:	69626165 	stmdbvs	r2!, {r0, r2, r5, r6, r8, sp, lr}^
     ed8:	636e692f 	cmnvs	lr, #770048	; 0xbc000
     edc:	6564756c 	strbvs	r7, [r4, #-1388]!	; 0xfffffa94
     ee0:	77656e2f 	strbvc	r6, [r5, -pc, lsr #28]!
     ee4:	2d62696c 			; <UNDEFINED> instruction: 0x2d62696c
     ee8:	6f6e616e 	svcvs	0x006e616e
     eec:	5c3a4300 	ldcpl	3, cr4, [sl], #-0
     ef0:	535c5453 	cmppl	ip, #1392508928	; 0x53000000
     ef4:	32334d54 	eorscc	r4, r3, #84, 26	; 0x1500
     ef8:	65627543 	strbvs	r7, [r2, #-1347]!	; 0xfffffabd
     efc:	5f454449 	svcpl	0x00454449
     f00:	31312e31 	teqcc	r1, r1, lsr lr
     f04:	535c322e 	cmppl	ip, #-536870910	; 0xe0000002
     f08:	32334d54 	eorscc	r4, r3, #84, 26	; 0x1500
     f0c:	65627543 	strbvs	r7, [r2, #-1347]!	; 0xfffffabd
     f10:	5c454449 	cfstrdpl	mvd4, [r5], {73}	; 0x49
     f14:	67756c70 			; <UNDEFINED> instruction: 0x67756c70
     f18:	5c736e69 	ldclpl	14, cr6, [r3], #-420	; 0xfffffe5c
     f1c:	2e6d6f63 	cdpcs	15, 6, cr6, cr13, cr3, {3}
     f20:	732e7473 			; <UNDEFINED> instruction: 0x732e7473
     f24:	32336d74 	eorscc	r6, r3, #116, 26	; 0x1d00
     f28:	65627563 	strbvs	r7, [r2, #-1379]!	; 0xfffffa9d
     f2c:	6564692e 	strbvs	r6, [r4, #-2350]!	; 0xfffff6d2
     f30:	75636d2e 	strbvc	r6, [r3, #-3374]!	; 0xfffff2d2
     f34:	7478652e 	ldrbtvc	r6, [r8], #-1326	; 0xfffffad2
     f38:	616e7265 	cmnvs	lr, r5, ror #4
     f3c:	6f6f746c 	svcvs	0x006f746c
     f40:	672e736c 	strvs	r7, [lr, -ip, ror #6]!
     f44:	742d756e 	strtvc	r7, [sp], #-1390	; 0xfffffa92
     f48:	736c6f6f 	cmnvc	ip, #444	; 0x1bc
     f4c:	726f662d 	rsbvc	r6, pc, #47185920	; 0x2d00000
     f50:	6d74732d 	ldclvs	3, cr7, [r4, #-180]!	; 0xffffff4c
     f54:	312e3233 			; <UNDEFINED> instruction: 0x312e3233
     f58:	2e332e31 	mrccs	14, 1, r2, cr3, cr1, {1}
     f5c:	316c6572 	smccc	50770	; 0xc652
     f60:	6e69772e 	cdpvs	7, 6, cr7, cr9, cr14, {1}
     f64:	315f3233 	cmpcc	pc, r3, lsr r2	; <UNPREDICTABLE>
     f68:	312e312e 			; <UNDEFINED> instruction: 0x312e312e
     f6c:	3230322e 	eorscc	r3, r0, #-536870910	; 0xe0000002
     f70:	31393033 	teqcc	r9, r3, lsr r0
     f74:	32363133 	eorscc	r3, r6, #-1073741812	; 0xc000000c
     f78:	6f745c36 	svcvs	0x00745c36
     f7c:	5c736c6f 	ldclpl	12, cr6, [r3], #-444	; 0xfffffe44
     f80:	2f6e6962 	svccs	0x006e6962
     f84:	6c2f2e2e 	stcvs	14, cr2, [pc], #-184	; ed4 <_Min_Stack_Size+0xad4>
     f88:	672f6269 	strvs	r6, [pc, -r9, ror #4]!
     f8c:	612f6363 			; <UNDEFINED> instruction: 0x612f6363
     f90:	6e2d6d72 	mcrvs	13, 1, r6, cr13, cr2, {3}
     f94:	2d656e6f 	stclcs	14, cr6, [r5, #-444]!	; 0xfffffe44
     f98:	69626165 	stmdbvs	r2!, {r0, r2, r5, r6, r8, sp, lr}^
     f9c:	2e31312f 	rsfcssp	f3, f1, #10.0
     fa0:	2f312e33 	svccs	0x00312e33
     fa4:	2e2f2e2e 	cdpcs	14, 2, cr2, cr15, cr14, {1}
     fa8:	2e2e2f2e 	cdpcs	15, 2, cr2, cr14, cr14, {1}
     fac:	2f2e2e2f 	svccs	0x002e2e2f
     fb0:	2d6d7261 	sfmcs	f7, 2, [sp, #-388]!	; 0xfffffe7c
     fb4:	656e6f6e 	strbvs	r6, [lr, #-3950]!	; 0xfffff092
     fb8:	6261652d 	rsbvs	r6, r1, #188743680	; 0xb400000
     fbc:	6e692f69 	cdpvs	15, 6, cr2, cr9, cr9, {3}
     fc0:	64756c63 	ldrbtvs	r6, [r5], #-3171	; 0xfffff39d
     fc4:	79732f65 	ldmdbvc	r3!, {r0, r2, r5, r6, r8, r9, sl, fp, sp}^
     fc8:	3a430073 	bcc	10c119c <_Min_Stack_Size+0x10c0d9c>
     fcc:	5c54535c 	mrrcpl	3, 5, r5, r4, cr12
     fd0:	334d5453 	movtcc	r5, #54355	; 0xd453
     fd4:	62754332 	rsbsvs	r4, r5, #-939524096	; 0xc8000000
     fd8:	45444965 	strbmi	r4, [r4, #-2405]	; 0xfffff69b
     fdc:	312e315f 			; <UNDEFINED> instruction: 0x312e315f
     fe0:	5c322e31 	ldcpl	14, cr2, [r2], #-196	; 0xffffff3c
     fe4:	334d5453 	movtcc	r5, #54355	; 0xd453
     fe8:	62754332 	rsbsvs	r4, r5, #-939524096	; 0xc8000000
     fec:	45444965 	strbmi	r4, [r4, #-2405]	; 0xfffff69b
     ff0:	756c705c 	strbvc	r7, [ip, #-92]!	; 0xffffffa4
     ff4:	736e6967 	cmnvc	lr, #1687552	; 0x19c000
     ff8:	6d6f635c 	stclvs	3, cr6, [pc, #-368]!	; e90 <_Min_Stack_Size+0xa90>
     ffc:	2e74732e 	cdpcs	3, 7, cr7, cr4, cr14, {1}
    1000:	336d7473 	cmncc	sp, #1929379840	; 0x73000000
    1004:	62756332 	rsbsvs	r6, r5, #-939524096	; 0xc8000000
    1008:	64692e65 	strbtvs	r2, [r9], #-3685	; 0xfffff19b
    100c:	636d2e65 	cmnvs	sp, #1616	; 0x650
    1010:	78652e75 	stmdavc	r5!, {r0, r2, r4, r5, r6, r9, sl, fp, sp}^
    1014:	6e726574 	mrcvs	5, 3, r6, cr2, cr4, {3}
    1018:	6f746c61 	svcvs	0x00746c61
    101c:	2e736c6f 	cdpcs	12, 7, cr6, cr3, cr15, {3}
    1020:	2d756e67 	ldclcs	14, cr6, [r5, #-412]!	; 0xfffffe64
    1024:	6c6f6f74 	stclvs	15, cr6, [pc], #-464	; e5c <_Min_Stack_Size+0xa5c>
    1028:	6f662d73 	svcvs	0x00662d73
    102c:	74732d72 	ldrbtvc	r2, [r3], #-3442	; 0xfffff28e
    1030:	2e32336d 	cdpcs	3, 3, cr3, cr2, cr13, {3}
    1034:	332e3131 			; <UNDEFINED> instruction: 0x332e3131
    1038:	6c65722e 	sfmvs	f7, 2, [r5], #-184	; 0xffffff48
    103c:	69772e31 	ldmdbvs	r7!, {r0, r4, r5, r9, sl, fp, sp}^
    1040:	5f32336e 	svcpl	0x0032336e
    1044:	2e312e31 	mrccs	14, 1, r2, cr1, cr1, {1}
    1048:	30322e31 	eorscc	r2, r2, r1, lsr lr
    104c:	39303332 	ldmdbcc	r0!, {r1, r4, r5, r8, r9, ip, sp}
    1050:	36313331 			; <UNDEFINED> instruction: 0x36313331
    1054:	745c3632 	ldrbvc	r3, [ip], #-1586	; 0xfffff9ce
    1058:	736c6f6f 	cmnvc	ip, #444	; 0x1bc
    105c:	6e69625c 	mcrvs	2, 3, r6, cr9, cr12, {2}
    1060:	2f2e2e2f 	svccs	0x002e2e2f
    1064:	2f62696c 	svccs	0x0062696c
    1068:	2f636367 	svccs	0x00636367
    106c:	2d6d7261 	sfmcs	f7, 2, [sp, #-388]!	; 0xfffffe7c
    1070:	656e6f6e 	strbvs	r6, [lr, #-3950]!	; 0xfffff092
    1074:	6261652d 	rsbvs	r6, r1, #188743680	; 0xb400000
    1078:	31312f69 	teqcc	r1, r9, ror #30
    107c:	312e332e 			; <UNDEFINED> instruction: 0x312e332e
    1080:	2f2e2e2f 	svccs	0x002e2e2f
    1084:	2e2f2e2e 	cdpcs	14, 2, cr2, cr15, cr14, {1}
    1088:	2e2e2f2e 	cdpcs	15, 2, cr2, cr14, cr14, {1}
    108c:	6d72612f 	ldfvse	f6, [r2, #-188]!	; 0xffffff44
    1090:	6e6f6e2d 	cdpvs	14, 6, cr6, cr15, cr13, {1}
    1094:	61652d65 	cmnvs	r5, r5, ror #26
    1098:	692f6962 	stmdbvs	pc!, {r1, r5, r6, r8, fp, sp, lr}	; <UNPREDICTABLE>
    109c:	756c636e 	strbvc	r6, [ip, #-878]!	; 0xfffffc92
    10a0:	6d2f6564 	cfstr32vs	mvfx6, [pc, #-400]!	; f18 <_Min_Stack_Size+0xb18>
    10a4:	69686361 	stmdbvs	r8!, {r0, r5, r6, r8, r9, sp, lr}^
    10a8:	4300656e 	movwmi	r6, #1390	; 0x56e
    10ac:	54535c3a 	ldrbpl	r5, [r3], #-3130	; 0xfffff3c6
    10b0:	4d54535c 	ldclmi	3, cr5, [r4, #-368]	; 0xfffffe90
    10b4:	75433233 	strbvc	r3, [r3, #-563]	; 0xfffffdcd
    10b8:	44496562 	strbmi	r6, [r9], #-1378	; 0xfffffa9e
    10bc:	2e315f45 	cdpcs	15, 3, cr5, cr1, cr5, {2}
    10c0:	322e3131 	eorcc	r3, lr, #1073741836	; 0x4000000c
    10c4:	4d54535c 	ldclmi	3, cr5, [r4, #-368]	; 0xfffffe90
    10c8:	75433233 	strbvc	r3, [r3, #-563]	; 0xfffffdcd
    10cc:	44496562 	strbmi	r6, [r9], #-1378	; 0xfffffa9e
    10d0:	6c705c45 	ldclvs	12, cr5, [r0], #-276	; 0xfffffeec
    10d4:	6e696775 	mcrvs	7, 3, r6, cr9, cr5, {3}
    10d8:	6f635c73 	svcvs	0x00635c73
    10dc:	74732e6d 	ldrbtvc	r2, [r3], #-3693	; 0xfffff193
    10e0:	6d74732e 	ldclvs	3, cr7, [r4, #-184]!	; 0xffffff48
    10e4:	75633233 	strbvc	r3, [r3, #-563]!	; 0xfffffdcd
    10e8:	692e6562 	stmdbvs	lr!, {r1, r5, r6, r8, sl, sp, lr}
    10ec:	6d2e6564 	cfstr32vs	mvfx6, [lr, #-400]!	; 0xfffffe70
    10f0:	652e7563 	strvs	r7, [lr, #-1379]!	; 0xfffffa9d
    10f4:	72657478 	rsbvc	r7, r5, #120, 8	; 0x78000000
    10f8:	746c616e 	strbtvc	r6, [ip], #-366	; 0xfffffe92
    10fc:	736c6f6f 	cmnvc	ip, #444	; 0x1bc
    1100:	756e672e 	strbvc	r6, [lr, #-1838]!	; 0xfffff8d2
    1104:	6f6f742d 	svcvs	0x006f742d
    1108:	662d736c 	strtvs	r7, [sp], -ip, ror #6
    110c:	732d726f 			; <UNDEFINED> instruction: 0x732d726f
    1110:	32336d74 	eorscc	r6, r3, #116, 26	; 0x1d00
    1114:	2e31312e 	rsfcssp	f3, f1, #0.5
    1118:	65722e33 	ldrbvs	r2, [r2, #-3635]!	; 0xfffff1cd
    111c:	772e316c 	strvc	r3, [lr, -ip, ror #2]!
    1120:	32336e69 	eorscc	r6, r3, #1680	; 0x690
    1124:	312e315f 			; <UNDEFINED> instruction: 0x312e315f
    1128:	322e312e 	eorcc	r3, lr, #-2147483637	; 0x8000000b
    112c:	30333230 	eorscc	r3, r3, r0, lsr r2
    1130:	31333139 	teqcc	r3, r9, lsr r1
    1134:	5c363236 	lfmpl	f3, 4, [r6], #-216	; 0xffffff28
    1138:	6c6f6f74 	stclvs	15, cr6, [pc], #-464	; f70 <_Min_Stack_Size+0xb70>
    113c:	69625c73 	stmdbvs	r2!, {r0, r1, r4, r5, r6, sl, fp, ip, lr}^
    1140:	2e2e2f6e 	cdpcs	15, 2, cr2, cr14, cr14, {3}
    1144:	62696c2f 	rsbvs	r6, r9, #12032	; 0x2f00
    1148:	6363672f 	cmnvs	r3, #12320768	; 0xbc0000
    114c:	6d72612f 	ldfvse	f6, [r2, #-188]!	; 0xffffff44
    1150:	6e6f6e2d 	cdpvs	14, 6, cr6, cr15, cr13, {1}
    1154:	61652d65 	cmnvs	r5, r5, ror #26
    1158:	312f6962 			; <UNDEFINED> instruction: 0x312f6962
    115c:	2e332e31 	mrccs	14, 1, r2, cr3, cr1, {1}
    1160:	6e692f31 	mcrvs	15, 3, r2, cr9, cr1, {1}
    1164:	64756c63 	ldrbtvs	r6, [r5], #-3171	; 0xfffff39d
    1168:	2e2e0065 	cdpcs	0, 2, cr0, cr14, cr5, {3}
    116c:	6372532f 	cmnvs	r2, #-1140850688	; 0xbc000000
    1170:	4c41482f 	mcrrmi	8, 2, r4, r1, cr15
    1174:	79654b2f 	stmdbvc	r5!, {r0, r1, r2, r3, r5, r8, r9, fp, lr}^
    1178:	20646170 	rsbcs	r6, r4, r0, ror r1
    117c:	76697244 	strbtvc	r7, [r9], -r4, asr #4
    1180:	2e007265 	cdpcs	2, 0, cr7, cr0, cr5, {3}
    1184:	72532f2e 	subsvc	r2, r3, #46, 30	; 0xb8
    1188:	41482f63 	cmpmi	r8, r3, ror #30
    118c:	654b2f4c 	strbvs	r2, [fp, #-3916]	; 0xfffff0b4
    1190:	64617079 	strbtvs	r7, [r1], #-121	; 0xffffff87
    1194:	69724420 	ldmdbvs	r2!, {r5, sl, lr}^
    1198:	2f726576 	svccs	0x00726576
    119c:	2e2f2e2e 	cdpcs	14, 2, cr2, cr15, cr14, {1}
    11a0:	494c2f2e 	stmdbmi	ip, {r1, r2, r3, r5, r8, r9, sl, fp, sp}^
    11a4:	2e2e0042 	cdpcs	0, 2, cr0, cr14, cr2, {2}
    11a8:	6372532f 	cmnvs	r2, #-1140850688	; 0xbc000000
    11ac:	4c41482f 	mcrrmi	8, 2, r4, r1, cr15
    11b0:	79654b2f 	stmdbvc	r5!, {r0, r1, r2, r3, r5, r8, r9, fp, lr}^
    11b4:	20646170 	rsbcs	r6, r4, r0, ror r1
    11b8:	76697244 	strbtvc	r7, [r9], -r4, asr #4
    11bc:	2e2f7265 	cdpcs	2, 2, cr7, cr15, cr5, {3}
    11c0:	2e2e2f2e 	cdpcs	15, 2, cr2, cr14, cr14, {1}
    11c4:	41434d2f 	cmpmi	r3, pc, lsr #26
    11c8:	50472f4c 	subpl	r2, r7, ip, asr #30
    11cc:	44204f49 	strtmi	r4, [r0], #-3913	; 0xfffff0b7
    11d0:	65766972 	ldrbvs	r6, [r6, #-2418]!	; 0xfffff68e
    11d4:	6d000072 	stcvs	0, cr0, [r0, #-456]	; 0xfffffe38
    11d8:	2e6e6961 	vnmulcs.f16	s13, s28, s3	; <UNPREDICTABLE>
    11dc:	00010063 	andeq	r0, r1, r3, rrx
    11e0:	616c5000 	cmnvs	ip, r0
    11e4:	726f6674 	rsbvc	r6, pc, #116, 12	; 0x7400000
    11e8:	79545f6d 	ldmdbvc	r4, {r0, r2, r3, r5, r6, r8, r9, sl, fp, ip, lr}^
    11ec:	2e736570 	mrccs	5, 3, r6, cr3, cr0, {3}
    11f0:	00020068 	andeq	r0, r2, r8, rrx
    11f4:	4d545300 	ldclmi	3, cr5, [r4, #-0]
    11f8:	31463233 	cmpcc	r6, r3, lsr r2
    11fc:	36783330 			; <UNDEFINED> instruction: 0x36783330
    1200:	6d654d5f 	stclvs	13, cr4, [r5, #-380]!	; 0xfffffe84
    1204:	2e70614d 	rpwcssm	f6, f0, #5.0
    1208:	00020068 	andeq	r0, r2, r8, rrx
    120c:	54584500 	ldrbpl	r4, [r8], #-1280	; 0xfffffb00
    1210:	6e695f49 	cdpvs	15, 6, cr5, cr9, cr9, {2}
    1214:	66726574 			; <UNDEFINED> instruction: 0x66726574
    1218:	2e656361 	cdpcs	3, 6, cr6, cr5, cr1, {3}
    121c:	00030068 	andeq	r0, r3, r8, rrx
    1220:	69745500 	ldmdbvs	r4!, {r8, sl, ip, lr}^
    1224:	682e736c 	stmdavs	lr!, {r2, r3, r5, r6, r8, r9, ip, sp, lr}
    1228:	00000200 	andeq	r0, r0, r0, lsl #4
    122c:	4f495047 	svcmi	0x00495047
    1230:	746e695f 	strbtvc	r6, [lr], #-2399	; 0xfffff6a1
    1234:	61667265 	cmnvs	r6, r5, ror #4
    1238:	682e6563 	stmdavs	lr!, {r0, r1, r5, r6, r8, sl, sp, lr}
    123c:	00000400 	andeq	r0, r0, r0, lsl #8
    1240:	74616c50 	strbtvc	r6, [r1], #-3152	; 0xfffff3b0
    1244:	6d726f66 	ldclvs	15, cr6, [r2, #-408]!	; 0xfffffe68
    1248:	7079545f 	rsbsvc	r5, r9, pc, asr r4
    124c:	682e7365 	stmdavs	lr!, {r0, r2, r5, r6, r8, r9, ip, sp, lr}
    1250:	00000500 	andeq	r0, r0, r0, lsl #10
    1254:	6c697455 	cfstrdvs	mvd7, [r9], #-340	; 0xfffffeac
    1258:	00682e73 	rsbeq	r2, r8, r3, ror lr
    125c:	53000005 	movwpl	r0, #5
    1260:	32334d54 	eorscc	r4, r3, #84, 26	; 0x1500
    1264:	33303146 	teqcc	r0, #-2147483631	; 0x80000011
    1268:	4d5f3678 	ldclmi	6, cr3, [pc, #-480]	; 1090 <_Min_Stack_Size+0xc90>
    126c:	614d6d65 	cmpvs	sp, r5, ror #26
    1270:	00682e70 	rsbeq	r2, r8, r0, ror lr
    1274:	53000005 	movwpl	r0, #5
    1278:	32334d54 	eorscc	r4, r3, #84, 26	; 0x1500
    127c:	33303146 	teqcc	r0, #-2147483631	; 0x80000011
    1280:	4d5f3678 	ldclmi	6, cr3, [pc, #-480]	; 10a8 <_Min_Stack_Size+0xca8>
    1284:	614d6d65 	cmpvs	sp, r5, ror #26
    1288:	00682e70 	rsbeq	r2, r8, r0, ror lr
    128c:	47000006 	strmi	r0, [r0, -r6]
    1290:	5f4f4950 	svcpl	0x004f4950
    1294:	65746e69 	ldrbvs	r6, [r4, #-3689]!	; 0xfffff197
    1298:	63616672 	cmnvs	r1, #119537664	; 0x7200000
    129c:	00682e65 	rsbeq	r2, r8, r5, ror #28
    12a0:	55000007 	strpl	r0, [r0, #-7]
    12a4:	54524153 	ldrbpl	r4, [r2], #-339	; 0xfffffead
    12a8:	746e695f 	strbtvc	r6, [lr], #-2399	; 0xfffff6a1
    12ac:	61667265 	cmnvs	r6, r5, ror #4
    12b0:	682e6563 	stmdavs	lr!, {r0, r1, r5, r6, r8, sl, sp, lr}
    12b4:	00000800 	andeq	r0, r0, r0, lsl #16
    12b8:	74616c50 	strbtvc	r6, [r1], #-3152	; 0xfffff3b0
    12bc:	6d726f66 	ldclvs	15, cr6, [r2, #-408]!	; 0xfffffe68
    12c0:	7079545f 	rsbsvc	r5, r9, pc, asr r4
    12c4:	682e7365 	stmdavs	lr!, {r0, r2, r5, r6, r8, r9, ip, sp, lr}
    12c8:	00000900 	andeq	r0, r0, r0, lsl #18
    12cc:	6c697455 	cfstrdvs	mvd7, [r9], #-340	; 0xfffffeac
    12d0:	00682e73 	rsbeq	r2, r8, r3, ror lr
    12d4:	53000009 	movwpl	r0, #9
    12d8:	32334d54 	eorscc	r4, r3, #84, 26	; 0x1500
    12dc:	33303146 	teqcc	r0, #-2147483631	; 0x80000011
    12e0:	4d5f3678 	ldclmi	6, cr3, [pc, #-480]	; 1108 <_Min_Stack_Size+0xd08>
    12e4:	614d6d65 	cmpvs	sp, r5, ror #26
    12e8:	00682e70 	rsbeq	r2, r8, r0, ror lr
    12ec:	52000009 	andpl	r0, r0, #9
    12f0:	695f4343 	ldmdbvs	pc, {r0, r1, r6, r8, r9, lr}^	; <UNPREDICTABLE>
    12f4:	7265746e 	rsbvc	r7, r5, #1845493760	; 0x6e000000
    12f8:	65636166 	strbvs	r6, [r3, #-358]!	; 0xfffffe9a
    12fc:	0a00682e 	beq	1b3bc <_Min_Stack_Size+0x1afbc>
    1300:	6c500000 	mravs	r0, r0, acc0
    1304:	6f667461 	svcvs	0x00667461
    1308:	545f6d72 	ldrbpl	r6, [pc], #-3442	; 1310 <_Min_Stack_Size+0xf10>
    130c:	73657079 	cmnvc	r5, #121	; 0x79
    1310:	0b00682e 	bleq	1b3d0 <_Min_Stack_Size+0x1afd0>
    1314:	74550000 	ldrbvc	r0, [r5], #-0
    1318:	2e736c69 	cdpcs	12, 7, cr6, cr3, cr9, {3}
    131c:	000b0068 	andeq	r0, fp, r8, rrx
    1320:	4d545300 	ldclmi	3, cr5, [r4, #-0]
    1324:	31463233 	cmpcc	r6, r3, lsr r2
    1328:	36783330 			; <UNDEFINED> instruction: 0x36783330
    132c:	6d654d5f 	stclvs	13, cr4, [r5, #-380]!	; 0xfffffe84
    1330:	2e70614d 	rpwcssm	f6, f0, #5.0
    1334:	000b0068 	andeq	r0, fp, r8, rrx
    1338:	49504700 	ldmdbmi	r0, {r8, r9, sl, lr}^
    133c:	6e695f4f 	cdpvs	15, 6, cr5, cr9, cr15, {2}
    1340:	66726574 			; <UNDEFINED> instruction: 0x66726574
    1344:	2e656361 	cdpcs	3, 6, cr6, cr5, cr1, {3}
    1348:	000c0068 	andeq	r0, ip, r8, rrx
    134c:	44434c00 	strbmi	r4, [r3], #-3072	; 0xfffff400
    1350:	746e695f 	strbtvc	r6, [lr], #-2399	; 0xfffff6a1
    1354:	61667265 	cmnvs	r6, r5, ror #4
    1358:	682e6563 	stmdavs	lr!, {r0, r1, r5, r6, r8, sl, sp, lr}
    135c:	00000d00 	andeq	r0, r0, r0, lsl #26
    1360:	74616c50 	strbtvc	r6, [r1], #-3152	; 0xfffff3b0
    1364:	6d726f66 	ldclvs	15, cr6, [r2, #-408]!	; 0xfffffe68
    1368:	7079545f 	rsbsvc	r5, r9, pc, asr r4
    136c:	682e7365 	stmdavs	lr!, {r0, r2, r5, r6, r8, r9, ip, sp, lr}
    1370:	00000e00 	andeq	r0, r0, r0, lsl #28
    1374:	6c697455 	cfstrdvs	mvd7, [r9], #-340	; 0xfffffeac
    1378:	00682e73 	rsbeq	r2, r8, r3, ror lr
    137c:	4700000e 	strmi	r0, [r0, -lr]
    1380:	5f4f4950 	svcpl	0x004f4950
    1384:	65746e69 	ldrbvs	r6, [r4, #-3689]!	; 0xfffff197
    1388:	63616672 	cmnvs	r1, #119537664	; 0x7200000
    138c:	00682e65 	rsbeq	r2, r8, r5, ror #28
    1390:	7300000f 	movwvc	r0, #15
    1394:	6f696474 	svcvs	0x00696474
    1398:	1000682e 	andne	r6, r0, lr, lsr #16
    139c:	615f0000 	cmpvs	pc, r0
    13a0:	2e69736e 	cdpcs	3, 6, cr7, cr9, cr14, {3}
    13a4:	00100068 	andseq	r0, r0, r8, rrx
    13a8:	77656e00 	strbvc	r6, [r5, -r0, lsl #28]!
    13ac:	2e62696c 	vnmulcs.f16	s13, s4, s25	; <UNPREDICTABLE>
    13b0:	00110068 	andseq	r0, r1, r8, rrx
    13b4:	656e5f00 	strbvs	r5, [lr, #-3840]!	; 0xfffff100
    13b8:	62696c77 	rsbvs	r6, r9, #30464	; 0x7700
    13bc:	7265765f 	rsbvc	r7, r5, #99614720	; 0x5f00000
    13c0:	6e6f6973 			; <UNDEFINED> instruction: 0x6e6f6973
    13c4:	1000682e 	andne	r6, r0, lr, lsr #16
    13c8:	6f630000 	svcvs	0x00630000
    13cc:	6769666e 	strbvs	r6, [r9, -lr, ror #12]!
    13d0:	1200682e 	andne	r6, r0, #3014656	; 0x2e0000
    13d4:	65690000 	strbvs	r0, [r9, #-0]!
    13d8:	70666565 	rsbvc	r6, r6, r5, ror #10
    13dc:	1300682e 	movwne	r6, #2094	; 0x82e
    13e0:	65660000 	strbvs	r0, [r6, #-0]!
    13e4:	72757461 	rsbsvc	r7, r5, #1627389952	; 0x61000000
    13e8:	682e7365 	stmdavs	lr!, {r0, r2, r5, r6, r8, r9, ip, sp, lr}
    13ec:	00001200 	andeq	r1, r0, r0, lsl #4
    13f0:	66656463 	strbtvs	r6, [r5], -r3, ror #8
    13f4:	00682e73 	rsbeq	r2, r8, r3, ror lr
    13f8:	5f000012 	svcpl	0x00000012
    13fc:	61666564 	cmnvs	r6, r4, ror #10
    1400:	5f746c75 	svcpl	0x00746c75
    1404:	65707974 	ldrbvs	r7, [r0, #-2420]!	; 0xfffff68c
    1408:	00682e73 	rsbeq	r2, r8, r3, ror lr
    140c:	73000013 	movwvc	r0, #19
    1410:	65646474 	strbvs	r6, [r4, #-1140]!	; 0xfffffb8c
    1414:	00682e66 	rsbeq	r2, r8, r6, ror #28
    1418:	73000014 	movwvc	r0, #20
    141c:	72616474 	rsbvc	r6, r1, #116, 8	; 0x74000000
    1420:	00682e67 	rsbeq	r2, r8, r7, ror #28
    1424:	72000014 	andvc	r0, r0, #20
    1428:	746e6565 	strbtvc	r6, [lr], #-1381	; 0xfffffa9b
    142c:	1200682e 	andne	r6, r0, #3014656	; 0x2e0000
    1430:	745f0000 	ldrbvc	r0, [pc], #-0	; 1438 <_Min_Stack_Size+0x1038>
    1434:	73657079 	cmnvc	r5, #121	; 0x79
    1438:	1200682e 	andne	r6, r0, #3014656	; 0x2e0000
    143c:	745f0000 	ldrbvc	r0, [pc], #-0	; 1444 <_Min_Stack_Size+0x1044>
    1440:	73657079 	cmnvc	r5, #121	; 0x79
    1444:	1300682e 	movwne	r6, #2094	; 0x82e
    1448:	6f6c0000 	svcvs	0x006c0000
    144c:	682e6b63 	stmdavs	lr!, {r0, r1, r5, r6, r8, r9, fp, sp, lr}
    1450:	00001200 	andeq	r1, r0, r0, lsl #4
    1454:	65737361 	ldrbvs	r7, [r3, #-865]!	; 0xfffffc9f
    1458:	682e7472 	stmdavs	lr!, {r1, r4, r5, r6, sl, ip, sp, lr}
    145c:	00001000 	andeq	r1, r0, r0
    1460:	69647473 	stmdbvs	r4!, {r0, r1, r4, r5, r6, sl, ip, sp, lr}^
    1464:	00682e6f 	rsbeq	r2, r8, pc, ror #28
    1468:	4c000012 	stcmi	0, cr0, [r0], {18}
    146c:	705f4443 	subsvc	r4, pc, r3, asr #8
    1470:	61766972 	cmnvs	r6, r2, ror r9
    1474:	682e6574 	stmdavs	lr!, {r2, r4, r5, r6, r8, sl, sp, lr}
    1478:	00000d00 	andeq	r0, r0, r0, lsl #26
    147c:	7079654b 	rsbsvc	r6, r9, fp, asr #10
    1480:	695f6461 	ldmdbvs	pc, {r0, r5, r6, sl, sp, lr}^	; <UNPREDICTABLE>
    1484:	7265746e 	rsbvc	r7, r5, #1845493760	; 0x6e000000
    1488:	65636166 	strbvs	r6, [r3, #-358]!	; 0xfffffe9a
    148c:	1500682e 	strne	r6, [r0, #-2094]	; 0xfffff7d2
    1490:	6c500000 	mravs	r0, r0, acc0
    1494:	6f667461 	svcvs	0x00667461
    1498:	545f6d72 	ldrbpl	r6, [pc], #-3442	; 14a0 <_Min_Stack_Size+0x10a0>
    149c:	73657079 	cmnvc	r5, #121	; 0x79
    14a0:	1600682e 	strne	r6, [r0], -lr, lsr #16
    14a4:	74550000 	ldrbvc	r0, [r5], #-0
    14a8:	2e736c69 	cdpcs	12, 7, cr6, cr3, cr9, {3}
    14ac:	00160068 	andseq	r0, r6, r8, rrx
    14b0:	49504700 	ldmdbmi	r0, {r8, r9, sl, lr}^
    14b4:	6e695f4f 	cdpvs	15, 6, cr5, cr9, cr15, {2}
    14b8:	66726574 			; <UNDEFINED> instruction: 0x66726574
    14bc:	2e656361 	cdpcs	3, 6, cr6, cr5, cr1, {3}
    14c0:	00170068 	andseq	r0, r7, r8, rrx
    14c4:	01050000 	mrseq	r0, (UNDEF: 5)
    14c8:	00020500 	andeq	r0, r2, r0, lsl #10
    14cc:	03000000 	movweq	r0, #0
    14d0:	09050110 	stmdbeq	r5, {r4, r8}
    14d4:	2e02054c 	cfsh32cs	mvfx0, mvfx2, #44
    14d8:	05210a05 	streq	r0, [r1, #-2565]!	; 0xfffff5fb
    14dc:	19052e03 	stmdbne	r5, {r0, r1, r9, sl, fp, sp}
    14e0:	03040200 	movweq	r0, #16896	; 0x4200
    14e4:	00110520 	andseq	r0, r1, r0, lsr #10
    14e8:	3c010402 	cfstrscc	mvf0, [r1], {2}
    14ec:	02001905 	andeq	r1, r0, #81920	; 0x14000
    14f0:	053b0204 	ldreq	r0, [fp, #-516]!	; 0xfffffdfc
    14f4:	04020010 	streq	r0, [r2], #-16
    14f8:	01053c01 	tsteq	r5, r1, lsl #24
    14fc:	0006024c 	andeq	r0, r6, ip, asr #4
    1500:	01050101 	tsteq	r5, r1, lsl #2
    1504:	ec020500 	cfstr32	mvfx0, [r2], {-0}
    1508:	03080008 	movweq	r0, #32776	; 0x8008
    150c:	02050118 	andeq	r0, r5, #24, 2
    1510:	05686830 	strbeq	r6, [r8, #-2096]!	; 0xfffff7d0
    1514:	06026701 	streq	r6, [r2], -r1, lsl #14
    1518:	05010100 	streq	r0, [r1, #-256]	; 0xffffff00
    151c:	02050001 	andeq	r0, r5, #1
    1520:	08000920 	stmdaeq	r0, {r5, r8, fp}
    1524:	05012203 	streq	r2, [r1, #-515]	; 0xfffffdfd
    1528:	02052f0b 	andeq	r2, r5, #11, 30	; 0x2c
    152c:	054f3f3f 	strbeq	r3, [pc, #-3903]	; 5f5 <_Min_Stack_Size+0x1f5>
    1530:	09023e01 	stmdbeq	r2, {r0, r9, sl, fp, ip, sp}
    1534:	05010100 	streq	r0, [r1, #-256]	; 0xffffff00
    1538:	02050010 	andeq	r0, r5, #16
    153c:	08000950 	stmdaeq	r0, {r4, r6, r8, fp}
    1540:	05013203 	streq	r3, [r1, #-515]	; 0xfffffdfd
    1544:	12053e02 	andne	r3, r5, #2, 28
    1548:	67160533 			; <UNDEFINED> instruction: 0x67160533
    154c:	052f1805 	streq	r1, [pc, #-2053]!	; d4f <_Min_Stack_Size+0x94f>
    1550:	02052f10 	andeq	r2, r5, #16, 30	; 0x40
    1554:	590b052f 	stmdbpl	fp, {r0, r1, r2, r3, r5, r8, sl}
    1558:	3f400205 	svccc	0x00400205
    155c:	4206054f 	andmi	r0, r6, #331350016	; 0x13c00000
    1560:	052e0505 	streq	r0, [lr, #-1285]!	; 0xfffffafb
    1564:	0505300d 	streq	r3, [r5, #-13]
    1568:	000a023a 	andeq	r0, sl, sl, lsr r2
    156c:	00800101 	addeq	r0, r0, r1, lsl #2
    1570:	00030000 	andeq	r0, r3, r0
    1574:	00000039 	andeq	r0, r0, r9, lsr r0
    1578:	0efb0102 	cdpeq	1, 15, cr0, cr11, cr2, {0}
    157c:	0101000d 	tsteq	r1, sp
    1580:	00000101 	andeq	r0, r0, r1, lsl #2
    1584:	00000100 	andeq	r0, r0, r0, lsl #2
    1588:	2f2e2e01 	svccs	0x002e2e01
    158c:	72617453 	rsbvc	r7, r1, #1392508928	; 0x53000000
    1590:	00707574 	rsbseq	r7, r0, r4, ror r5
    1594:	61747300 	cmnvs	r4, r0, lsl #6
    1598:	70757472 	rsbsvc	r7, r5, r2, ror r4
    159c:	6d74735f 	ldclvs	3, cr7, [r4, #-380]!	; 0xfffffe84
    15a0:	31663233 	cmncc	r6, r3, lsr r2
    15a4:	36633330 			; <UNDEFINED> instruction: 0x36633330
    15a8:	732e7874 			; <UNDEFINED> instruction: 0x732e7874
    15ac:	00000100 	andeq	r0, r0, r0, lsl #2
    15b0:	02050000 	andeq	r0, r5, #0
    15b4:	080009b8 	stmdaeq	r0, {r3, r4, r5, r7, r8, fp}
    15b8:	21013903 	tstcs	r1, r3, lsl #18
    15bc:	21213122 			; <UNDEFINED> instruction: 0x21213122
    15c0:	21232121 			; <UNDEFINED> instruction: 0x21232121
    15c4:	21212321 			; <UNDEFINED> instruction: 0x21212321
    15c8:	21212123 			; <UNDEFINED> instruction: 0x21212123
    15cc:	21232123 			; <UNDEFINED> instruction: 0x21232123
    15d0:	03313023 	teqeq	r1, #35	; 0x23
    15d4:	2f342056 	svccs	0x00342056
    15d8:	2e0f032f 	cdpcs	3, 0, cr0, cr15, cr15, {1}
    15dc:	0002022f 	andeq	r0, r2, pc, lsr #4
    15e0:	05000101 	streq	r0, [r0, #-257]	; 0xfffffeff
    15e4:	000a0802 	andeq	r0, sl, r2, lsl #16
    15e8:	00f20308 	rscseq	r0, r2, r8, lsl #6
    15ec:	00010201 	andeq	r0, r1, r1, lsl #4
    15f0:	Address 0x00000000000015f0 is out of bounds.


Disassembly of section .debug_str:

00000000 <.debug_str>:
       0:	49545845 	ldmdbmi	r4, {r0, r2, r6, fp, ip, lr}^
       4:	4e49505f 	mcrmi	0, 2, r5, cr9, cr15, {2}
       8:	4e494c5f 	mcrmi	12, 2, r4, cr9, cr15, {2}
       c:	50313145 	eorspl	r3, r1, r5, asr #2
      10:	20313141 	eorscs	r3, r1, r1, asr #2
      14:	54584528 	ldrbpl	r4, [r8], #-1320	; 0xfffffad8
      18:	65535f49 	ldrbvs	r5, [r3, #-3913]	; 0xfffff0b7
      1c:	5f707574 	svcpl	0x00707574
      20:	457b2974 	ldrbmi	r2, [fp, #-2420]!	; 0xfffff68c
      24:	31495458 	cmpcc	r9, r8, asr r4
      28:	50472c31 	subpl	r2, r7, r1, lsr ip
      2c:	2c414f49 	mcrrcs	15, 4, r4, r1, cr9
      30:	4f495047 	svcmi	0x00495047
      34:	4e49505f 	mcrmi	0, 2, r5, cr9, cr15, {2}
      38:	7d31315f 	ldfvcs	f3, [r1, #-380]!	; 0xfffffe84
      3c:	54584500 	ldrbpl	r4, [r8], #-1280	; 0xfffffb00
      40:	49505f49 	ldmdbmi	r0, {r0, r3, r6, r8, r9, sl, fp, ip, lr}^
      44:	494c5f4e 	stmdbmi	ip, {r1, r2, r3, r6, r8, r9, sl, fp, ip, lr}^
      48:	3531454e 	ldrcc	r4, [r1, #-1358]!	; 0xfffffab2
      4c:	35314350 	ldrcc	r4, [r1, #-848]!	; 0xfffffcb0
      50:	58452820 	stmdapl	r5, {r5, fp, sp}^
      54:	535f4954 	cmppl	pc, #84, 18	; 0x150000
      58:	70757465 	rsbsvc	r7, r5, r5, ror #8
      5c:	7b29745f 	blvc	a5d1e0 <_Min_Stack_Size+0xa5cde0>
      60:	49545845 	ldmdbmi	r4, {r0, r2, r6, fp, ip, lr}^
      64:	472c3531 			; <UNDEFINED> instruction: 0x472c3531
      68:	434f4950 	movtmi	r4, #63824	; 0xf950
      6c:	4950472c 	ldmdbmi	r0, {r2, r3, r5, r8, r9, sl, lr}^
      70:	49505f4f 	ldmdbmi	r0, {r0, r1, r2, r3, r6, r8, r9, sl, fp, ip, lr}^
      74:	35315f4e 	ldrcc	r5, [r1, #-3918]!	; 0xfffff0b2
      78:	5f5f007d 	svcpl	0x005f007d
      7c:	49434544 	stmdbmi	r3, {r2, r6, r8, sl, lr}^
      80:	5f4c414d 	svcpl	0x004c414d
      84:	5f474944 	svcpl	0x00474944
      88:	3731205f 			; <UNDEFINED> instruction: 0x3731205f
      8c:	555f5f00 	ldrbpl	r5, [pc, #-3840]	; fffff194 <_estack+0xdfffc994>
      90:	465f4148 	ldrbmi	r4, [pc], -r8, asr #2
      94:	5f544942 	svcpl	0x00544942
      98:	0038205f 	eorseq	r2, r8, pc, asr r0
      9c:	52415f5f 	subpl	r5, r1, #380	; 0x17c
      a0:	45465f4d 	strbmi	r5, [r6, #-3917]	; 0xfffff0b3
      a4:	52555441 	subspl	r5, r5, #1090519040	; 0x41000000
      a8:	4c435f45 	mcrrmi	15, 4, r5, r3, cr5
      ac:	0031205a 	eorseq	r2, r1, sl, asr r0
      b0:	49545845 	ldmdbmi	r4, {r0, r2, r6, fp, ip, lr}^
      b4:	4154535f 	cmpmi	r4, pc, asr r3
      b8:	445f4554 	ldrbmi	r4, [pc], #-1364	; c0 <_Min_Heap_Size-0x140>
      bc:	42415349 	submi	r5, r1, #603979777	; 0x24000001
      c0:	3020454c 	eorcc	r4, r0, ip, asr #10
      c4:	465f5f00 	ldrbmi	r5, [pc], -r0, lsl #30
      c8:	3436544c 	ldrtcc	r5, [r6], #-1100	; 0xfffffbb4
      cc:	4e45445f 	mcrmi	4, 2, r4, cr5, cr15, {2}
      d0:	5f4d524f 	svcpl	0x004d524f
      d4:	5f4e494d 	svcpl	0x004e494d
      d8:	2e34205f 	mrccs	0, 1, r2, cr4, cr15, {2}
      dc:	36303439 			; <UNDEFINED> instruction: 0x36303439
      e0:	35343635 	ldrcc	r3, [r4, #-1589]!	; 0xfffff9cb
      e4:	32313438 	eorscc	r3, r1, #56, 8	; 0x38000000
      e8:	34353634 	ldrtcc	r3, [r5], #-1588	; 0xfffff9cc
      ec:	32332d65 	eorscc	r2, r3, #6464	; 0x1940
      f0:	34364634 	ldrtcc	r4, [r6], #-1588	; 0xfffff9cc
      f4:	535f5f00 	cmppl	pc, #0, 30
      f8:	4f455a49 	svcmi	0x00455a49
      fc:	4c465f46 	mcrrmi	15, 4, r5, r6, cr6
     100:	5f54414f 	svcpl	0x0054414f
     104:	0034205f 	eorseq	r2, r4, pc, asr r0
     108:	6e697576 	mcrvs	5, 3, r7, cr9, cr6, {3}
     10c:	5f323374 	svcpl	0x00323374
     110:	5f5f0074 	svcpl	0x005f0074
     114:	5f434347 	svcpl	0x00434347
     118:	4d4f5441 	cfstrdmi	mvd5, [pc, #-260]	; 1c <_Min_Heap_Size-0x1e4>
     11c:	575f4349 	ldrbpl	r4, [pc, -r9, asr #6]
     120:	52414843 	subpl	r4, r1, #4390912	; 0x430000
     124:	4c5f545f 	cfldrdmi	mvd5, [pc], {95}	; 0x5f
     128:	5f4b434f 	svcpl	0x004b434f
     12c:	45455246 	strbmi	r5, [r5, #-582]	; 0xfffffdba
     130:	5f003220 	svcpl	0x00003220
     134:	4148435f 	cmpmi	r8, pc, asr r3
     138:	4e555f52 	mrcmi	15, 2, r5, cr5, cr2, {2}
     13c:	4e474953 			; <UNDEFINED> instruction: 0x4e474953
     140:	5f5f4445 	svcpl	0x005f4445
     144:	45003120 	strmi	r3, [r0, #-288]	; 0xfffffee0
     148:	43495458 	movtmi	r5, #37976	; 0x9458
     14c:	43520052 	cmpmi	r2, #82	; 0x52
     150:	44415f43 	strbmi	r5, [r1], #-3907	; 0xfffff0bd
     154:	455f3343 	ldrbmi	r3, [pc, #-835]	; fffffe19 <_estack+0xdfffd619>
     158:	2029284e 	eorcs	r2, r9, lr, asr #16
     15c:	2d434352 	stclcs	3, cr4, [r3, #-328]	; 0xfffffeb8
     160:	4250413e 	subsmi	r4, r0, #-2147483633	; 0x8000000f
     164:	524e4532 	subpl	r4, lr, #209715200	; 0xc800000
     168:	203d7c20 	eorscs	r7, sp, r0, lsr #24
     16c:	3c3c3128 	ldfccs	f3, [ip], #-160	; 0xffffff60
     170:	00293531 	eoreq	r3, r9, r1, lsr r5
     174:	4c465f5f 	mcrrmi	15, 5, r5, r6, cr15
     178:	5f343654 	svcpl	0x00343654
     17c:	5f534148 	svcpl	0x00534148
     180:	49464e49 	stmdbmi	r6, {r0, r3, r6, r9, sl, fp, lr}^
     184:	5954494e 	ldmdbpl	r4, {r1, r2, r3, r6, r8, fp, lr}^
     188:	31205f5f 			; <UNDEFINED> instruction: 0x31205f5f
     18c:	4e414d00 	cdpmi	13, 4, cr4, cr1, cr0, {0}
     190:	53534954 	cmppl	r3, #84, 18	; 0x150000
     194:	554d5f41 	strbpl	r5, [sp, #-3905]	; 0xfffff0bf
     198:	3030314c 	eorscc	r3, r0, ip, asr #2
     19c:	43505f28 	cmpmi	r0, #40, 30	; 0xa0
     1a0:	5f2c4b4c 	svcpl	0x002c4b4c
     1a4:	44554142 	ldrbmi	r4, [r5], #-322	; 0xfffffebe
     1a8:	45544152 	ldrbmi	r4, [r4, #-338]	; 0xfffffeae
     1ac:	75282029 	strvc	r2, [r8, #-41]!	; 0xffffffd7
     1b0:	33746e69 	cmncc	r4, #1680	; 0x690
     1b4:	29745f32 	ldmdbcs	r4!, {r1, r4, r5, r8, r9, sl, fp, ip, lr}^
     1b8:	41535528 	cmpmi	r3, r8, lsr #10
     1bc:	49445452 	stmdbmi	r4, {r1, r4, r6, sl, ip, lr}^
     1c0:	505f2856 	subspl	r2, pc, r6, asr r8	; <UNPREDICTABLE>
     1c4:	2c4b4c43 	mcrrcs	12, 4, r4, fp, cr3
     1c8:	5541425f 	strbpl	r4, [r1, #-607]	; 0xfffffda1
     1cc:	54415244 	strbpl	r5, [r1], #-580	; 0xfffffdbc
     1d0:	312a2945 			; <UNDEFINED> instruction: 0x312a2945
     1d4:	00293030 	eoreq	r3, r9, r0, lsr r0
     1d8:	4c4c5f5f 	mcrrmi	15, 5, r5, ip, cr15
     1dc:	55434341 	strbpl	r4, [r3, #-833]	; 0xfffffcbf
     1e0:	494d5f4d 	stmdbmi	sp, {r0, r2, r3, r6, r8, r9, sl, fp, ip, lr}^
     1e4:	205f5f4e 	subscs	r5, pc, lr, asr #30
     1e8:	58302d28 	ldmdapl	r0!, {r3, r5, r8, sl, fp, sp}
     1ec:	31335031 	teqcc	r3, r1, lsr r0
     1f0:	2d4b4c4c 	stclcs	12, cr4, [fp, #-304]	; 0xfffffed0
     1f4:	50315830 	eorspl	r5, r1, r0, lsr r8
     1f8:	4c4c3133 	stfmie	f3, [ip], {51}	; 0x33
     1fc:	4500294b 	strmi	r2, [r0, #-2379]	; 0xfffff6b5
     200:	5f495458 	svcpl	0x00495458
     204:	5f4e4950 	svcpl	0x004e4950
     208:	454e494c 	strbmi	r4, [lr, #-2380]	; 0xfffff6b4
     20c:	39425039 	stmdbcc	r2, {r0, r3, r4, r5, ip, lr}^
     210:	58452820 	stmdapl	r5, {r5, fp, sp}^
     214:	535f4954 	cmppl	pc, #84, 18	; 0x150000
     218:	70757465 	rsbsvc	r7, r5, r5, ror #8
     21c:	7b29745f 	blvc	a5d3a0 <_Min_Stack_Size+0xa5cfa0>
     220:	49545845 	ldmdbmi	r4, {r0, r2, r6, fp, ip, lr}^
     224:	50472c39 	subpl	r2, r7, r9, lsr ip
     228:	2c424f49 	mcrrcs	15, 4, r4, r2, cr9
     22c:	4f495047 	svcmi	0x00495047
     230:	4e49505f 	mcrmi	0, 2, r5, cr9, cr15, {2}
     234:	007d395f 	rsbseq	r3, sp, pc, asr r9
     238:	49545845 	ldmdbmi	r4, {r0, r2, r6, fp, ip, lr}^
     23c:	4e49505f 	mcrmi	0, 2, r5, cr9, cr15, {2}
     240:	4e494c5f 	mcrmi	12, 2, r4, cr9, cr15, {2}
     244:	50323145 	eorspl	r3, r2, r5, asr #2
     248:	20323141 	eorscs	r3, r2, r1, asr #2
     24c:	54584528 	ldrbpl	r4, [r8], #-1320	; 0xfffffad8
     250:	65535f49 	ldrbvs	r5, [r3, #-3913]	; 0xfffff0b7
     254:	5f707574 	svcpl	0x00707574
     258:	457b2974 	ldrbmi	r2, [fp, #-2420]!	; 0xfffff68c
     25c:	31495458 	cmpcc	r9, r8, asr r4
     260:	50472c32 	subpl	r2, r7, r2, lsr ip
     264:	2c414f49 	mcrrcs	15, 4, r4, r1, cr9
     268:	4f495047 	svcmi	0x00495047
     26c:	4e49505f 	mcrmi	0, 2, r5, cr9, cr15, {2}
     270:	7d32315f 	ldfvcs	f3, [r2, #-380]!	; 0xfffffe84
     274:	505f5f00 	subspl	r5, pc, r0, lsl #30
     278:	49445254 	stmdbmi	r4, {r2, r4, r6, r9, ip, lr}^
     27c:	4d5f4646 	ldclmi	6, cr4, [pc, #-280]	; 16c <_Min_Heap_Size-0x94>
     280:	5f5f5841 	svcpl	0x005f5841
     284:	37783020 	ldrbcc	r3, [r8, -r0, lsr #32]!
     288:	66666666 	strbtvs	r6, [r6], -r6, ror #12
     28c:	00666666 	rsbeq	r6, r6, r6, ror #12
     290:	4f495047 	svcmi	0x00495047
     294:	524f505f 	subpl	r5, pc, #95	; 0x5f
     298:	4f4d5f54 	svcmi	0x004d5f54
     29c:	415f4544 	cmpmi	pc, r4, asr #10
     2a0:	5245544c 	subpl	r5, r5, #76, 8	; 0x4c000000
     2a4:	4554414e 	ldrbmi	r4, [r4, #-334]	; 0xfffffeb2
     2a8:	5355505f 	cmppl	r5, #95	; 0x5f
     2ac:	55505f48 	ldrbpl	r5, [r0, #-3912]	; 0xfffff0b8
     2b0:	315f4c4c 	cmpcc	pc, ip, asr #24
     2b4:	484d5f30 	stmdami	sp, {r4, r5, r8, r9, sl, fp, ip, lr}^
     2b8:	7830205a 	ldmdavc	r0!, {r1, r3, r4, r6, sp}
     2bc:	39393939 	ldmdbcc	r9!, {r0, r3, r4, r5, r8, fp, ip, sp}
     2c0:	39393939 	ldmdbcc	r9!, {r0, r3, r4, r5, r8, fp, ip, sp}
     2c4:	495f5f00 	ldmdbmi	pc, {r8, r9, sl, fp, ip, lr}^	; <UNPREDICTABLE>
     2c8:	414d544e 	cmpmi	sp, lr, asr #8
     2cc:	28435f58 	stmdacs	r3, {r3, r4, r6, r8, r9, sl, fp, ip, lr}^
     2d0:	63202963 			; <UNDEFINED> instruction: 0x63202963
     2d4:	20232320 	eorcs	r2, r3, r0, lsr #6
     2d8:	5f004c4c 	svcpl	0x00004c4c
     2dc:	4e49575f 	mcrmi	7, 2, r5, cr9, cr15, {2}
     2e0:	494d5f54 	stmdbmi	sp, {r2, r4, r6, r8, r9, sl, fp, ip, lr}^
     2e4:	205f5f4e 	subscs	r5, pc, lr, asr #30
     2e8:	4e005530 	cfmv64hrmi	mvdx0, r5
     2ec:	5f434956 	svcpl	0x00434956
     2f0:	33515249 	cmpcc	r1, #-1879048188	; 0x90000004
     2f4:	53555f37 	cmppl	r5, #55, 30	; 0xdc
     2f8:	31545241 	cmpcc	r4, r1, asr #4
     2fc:	5349445f 	movtpl	r4, #37983	; 0x945f
     300:	454c4241 	strbmi	r4, [ip, #-577]	; 0xfffffdbf
     304:	49564e20 	ldmdbmi	r6, {r5, r9, sl, fp, lr}^
     308:	43495f43 	movtmi	r5, #40771	; 0x9f43
     30c:	20315245 	eorscs	r5, r1, r5, asr #4
     310:	28203d7c 	stmdacs	r0!, {r2, r3, r4, r5, r6, r8, sl, fp, ip, sp}
     314:	353c3c31 	ldrcc	r3, [ip, #-3121]!	; 0xfffff3cf
     318:	5f003b29 	svcpl	0x00003b29
     31c:	544e495f 	strbpl	r4, [lr], #-2399	; 0xfffff6a1
     320:	5f58414d 	svcpl	0x0058414d
     324:	5f58414d 	svcpl	0x0058414d
     328:	7830205f 	ldmdavc	r0!, {r0, r1, r2, r3, r4, r6, sp}
     32c:	66666637 			; <UNDEFINED> instruction: 0x66666637
     330:	66666666 	strbtvs	r6, [r6], -r6, ror #12
     334:	66666666 	strbtvs	r6, [r6], -r6, ror #12
     338:	66666666 	strbtvs	r6, [r6], -r6, ror #12
     33c:	5f004c4c 	svcpl	0x00004c4c
     340:	5f51545f 	svcpl	0x0051545f
     344:	54494249 	strbpl	r4, [r9], #-585	; 0xfffffdb7
     348:	30205f5f 	eorcc	r5, r0, pc, asr pc
     34c:	465f5f00 	ldrbmi	r5, [pc], -r0, lsl #30
     350:	3436544c 	ldrtcc	r5, [r6], #-1100	; 0xfffffbb4
     354:	4345445f 	movtmi	r4, #21599	; 0x545f
     358:	4c414d49 	mcrrmi	13, 4, r4, r1, cr9
     35c:	4749445f 	smlsldmi	r4, r9, pc, r4	; <UNPREDICTABLE>
     360:	31205f5f 			; <UNDEFINED> instruction: 0x31205f5f
     364:	50470037 	subpl	r0, r7, r7, lsr r0
     368:	505f4f49 	subspl	r4, pc, r9, asr #30
     36c:	5f54524f 	svcpl	0x0054524f
     370:	45444f4d 	strbmi	r4, [r4, #-3917]	; 0xfffff0b3
     374:	54554f5f 	ldrbpl	r4, [r5], #-3935	; 0xfffff0a1
     378:	5f545550 	svcpl	0x00545550
     37c:	4e45504f 	cdpmi	0, 4, cr5, cr5, cr15, {2}
     380:	4152445f 	cmpmi	r2, pc, asr r4
     384:	315f4e49 	cmpcc	pc, r9, asr #28
     388:	484d5f30 	stmdami	sp, {r4, r5, r8, r9, sl, fp, ip, lr}^
     38c:	7830205a 	ldmdavc	r0!, {r1, r3, r4, r6, sp}
     390:	35353535 	ldrcc	r3, [r5, #-1333]!	; 0xfffffacb
     394:	35353535 	ldrcc	r3, [r5, #-1333]!	; 0xfffffacb
     398:	415f5f00 	cmpmi	pc, r0, lsl #30
     39c:	494d4f54 	stmdbmi	sp, {r2, r4, r6, r8, r9, sl, fp, lr}^
     3a0:	4f435f43 	svcmi	0x00435f43
     3a4:	4d55534e 	ldclmi	3, cr5, [r5, #-312]	; 0xfffffec8
     3a8:	00312045 	eorseq	r2, r1, r5, asr #32
     3ac:	4c555f5f 	mrrcmi	15, 5, r5, r5, cr15	; <UNPREDICTABLE>
     3b0:	55434341 	strbpl	r4, [r3, #-833]	; 0xfffffcbf
     3b4:	42465f4d 	submi	r5, r6, #308	; 0x134
     3b8:	5f5f5449 	svcpl	0x005f5449
     3bc:	00323320 	eorseq	r3, r2, r0, lsr #6
     3c0:	43575f5f 	cmpmi	r7, #380	; 0x17c
     3c4:	5f524148 	svcpl	0x00524148
     3c8:	5f58414d 	svcpl	0x0058414d
     3cc:	7830205f 	ldmdavc	r0!, {r0, r1, r2, r3, r4, r6, sp}
     3d0:	66666666 	strbtvs	r6, [r6], -r6, ror #12
     3d4:	66666666 	strbtvs	r6, [r6], -r6, ror #12
     3d8:	50470055 	subpl	r0, r7, r5, asr r0
     3dc:	5152495f 	cmppl	r2, pc, asr r9
     3e0:	6c61435f 	stclvs	3, cr4, [r1], #-380	; 0xfffffe84
     3e4:	6361426c 	cmnvs	r1, #108, 4	; 0xc0000006
     3e8:	6e75466b 	cdpvs	6, 7, cr4, cr5, cr11, {3}
     3ec:	43520063 	cmpmi	r2, #99	; 0x63
     3f0:	44415f43 	strbmi	r5, [r1], #-3907	; 0xfffff0bd
     3f4:	455f3243 	ldrbmi	r3, [pc, #-579]	; 1b9 <_Min_Heap_Size-0x47>
     3f8:	2029284e 	eorcs	r2, r9, lr, asr #16
     3fc:	2d434352 	stclcs	3, cr4, [r3, #-328]	; 0xfffffeb8
     400:	4250413e 	subsmi	r4, r0, #-2147483633	; 0x8000000f
     404:	524e4532 	subpl	r4, lr, #209715200	; 0xc800000
     408:	203d7c20 	eorscs	r7, sp, r0, lsr #24
     40c:	3c3c3128 	ldfccs	f3, [ip], #-160	; 0xffffff60
     410:	00293031 	eoreq	r3, r9, r1, lsr r0
     414:	49545845 	ldmdbmi	r4, {r0, r2, r6, fp, ip, lr}^
     418:	4e49505f 	mcrmi	0, 2, r5, cr9, cr15, {2}
     41c:	4e494c5f 	mcrmi	12, 2, r4, cr9, cr15, {2}
     420:	43503845 	cmpmi	r0, #4521984	; 0x450000
     424:	45282038 	strmi	r2, [r8, #-56]!	; 0xffffffc8
     428:	5f495458 	svcpl	0x00495458
     42c:	75746553 	ldrbvc	r6, [r4, #-1363]!	; 0xfffffaad
     430:	29745f70 	ldmdbcs	r4!, {r4, r5, r6, r8, r9, sl, fp, ip, lr}^
     434:	5458457b 	ldrbpl	r4, [r8], #-1403	; 0xfffffa85
     438:	472c3849 	strmi	r3, [ip, -r9, asr #16]!
     43c:	434f4950 	movtmi	r4, #63824	; 0xf950
     440:	4950472c 	ldmdbmi	r0, {r2, r3, r5, r8, r9, sl, lr}^
     444:	49505f4f 	ldmdbmi	r0, {r0, r1, r2, r3, r6, r8, r9, sl, fp, ip, lr}^
     448:	7d385f4e 	ldcvc	15, cr5, [r8, #-312]!	; 0xfffffec8
     44c:	54584500 	ldrbpl	r4, [r8], #-1280	; 0xfffffb00
     450:	52545f49 	subspl	r5, r4, #292	; 0x124
     454:	45474749 	strbmi	r4, [r7, #-1865]	; 0xfffff8b7
     458:	49525f52 	ldmdbmi	r2, {r1, r4, r6, r8, r9, sl, fp, ip, lr}^
     45c:	474e4953 	smlsldmi	r4, lr, r3, r9
     460:	5f003020 	svcpl	0x00003020
     464:	4c42445f 	cfstrdmi	mvd4, [r2], {95}	; 0x5f
     468:	58414d5f 	stmdapl	r1, {r0, r1, r2, r3, r4, r6, r8, sl, fp, lr}^
     46c:	5f30315f 	svcpl	0x0030315f
     470:	5f505845 	svcpl	0x00505845
     474:	3033205f 	eorscc	r2, r3, pc, asr r0
     478:	50470038 	subpl	r0, r7, r8, lsr r0
     47c:	505f4f49 	subspl	r4, pc, r9, asr #30
     480:	5f54524f 	svcpl	0x0054524f
     484:	45444f4d 	strbmi	r4, [r4, #-3917]	; 0xfffff0b3
     488:	544c415f 	strbpl	r4, [ip], #-351	; 0xfffffea1
     48c:	414e5245 	cmpmi	lr, r5, asr #4
     490:	4f5f4554 	svcmi	0x005f4554
     494:	5f4e4550 	svcpl	0x004e4550
     498:	49415244 	stmdbmi	r1, {r2, r6, r9, ip, lr}^
     49c:	30355f4e 	eorscc	r5, r5, lr, asr #30
     4a0:	5a484d5f 	bpl	1213a24 <_Min_Stack_Size+0x1213624>
     4a4:	46783020 	ldrbtmi	r3, [r8], -r0, lsr #32
     4a8:	46464646 	strbmi	r4, [r6], -r6, asr #12
     4ac:	00464646 	subeq	r4, r6, r6, asr #12
     4b0:	52465f5f 	subpl	r5, r6, #380	; 0x17c
     4b4:	5f544341 	svcpl	0x00544341
     4b8:	5f4e494d 	svcpl	0x004e494d
     4bc:	2d28205f 	stccs	0, cr2, [r8, #-380]!	; 0xfffffe84
     4c0:	52352e30 	eorspl	r2, r5, #48, 28	; 0x300
     4c4:	352e302d 	strcc	r3, [lr, #-45]!	; 0xffffffd3
     4c8:	5f002952 	svcpl	0x00002952
     4cc:	4c4c555f 	cfstr64mi	mvdx5, [ip], {95}	; 0x5f
     4d0:	55434341 	strbpl	r4, [r3, #-833]	; 0xfffffcbf
     4d4:	414d5f4d 	cmpmi	sp, sp, asr #30
     4d8:	205f5f58 	subscs	r5, pc, r8, asr pc	; <UNPREDICTABLE>
     4dc:	46465830 			; <UNDEFINED> instruction: 0x46465830
     4e0:	46464646 	strbmi	r4, [r6], -r6, asr #12
     4e4:	46464646 	strbmi	r4, [r6], -r6, asr #12
     4e8:	46464646 	strbmi	r4, [r6], -r6, asr #12
     4ec:	2d504646 	ldclcs	6, cr4, [r0, #-280]	; 0xfffffee8
     4f0:	4c553233 	lfmmi	f3, 2, [r5], {51}	; 0x33
     4f4:	5f004b4c 	svcpl	0x00004b4c
     4f8:	4153555f 	cmpmi	r3, pc, asr r5
     4fc:	4d554343 	ldclmi	3, cr4, [r5, #-268]	; 0xfffffef4
     500:	58414d5f 	stmdapl	r1, {r0, r1, r2, r3, r4, r6, r8, sl, fp, lr}^
     504:	30205f5f 	eorcc	r5, r0, pc, asr pc
     508:	46464658 			; <UNDEFINED> instruction: 0x46464658
     50c:	382d5046 	stmdacc	sp!, {r1, r2, r6, ip, lr}
     510:	004b4855 	subeq	r4, fp, r5, asr r8
     514:	46535f5f 	usaxmi	r5, r3, pc	; <UNPREDICTABLE>
     518:	54434152 	strbpl	r4, [r3], #-338	; 0xfffffeae
     51c:	4942465f 	stmdbmi	r2, {r0, r1, r2, r3, r4, r6, r9, sl, lr}^
     520:	205f5f54 	subscs	r5, pc, r4, asr pc	; <UNPREDICTABLE>
     524:	5f5f0037 	svcpl	0x005f0037
     528:	4d544e49 	ldclmi	14, cr4, [r4, #-292]	; 0xfffffedc
     52c:	575f5841 	ldrbpl	r5, [pc, -r1, asr #16]
     530:	48544449 	ldmdami	r4, {r0, r3, r6, sl, lr}^
     534:	36205f5f 	qsaxcc	r5, r0, pc	; <UNPREDICTABLE>
     538:	5f5f0034 	svcpl	0x005f0034
     53c:	5f4d5241 	svcpl	0x004d5241
     540:	54414546 	strbpl	r4, [r1], #-1350	; 0xfffffaba
     544:	5f455255 	svcpl	0x00455255
     548:	36314642 	ldrtcc	r4, [r1], -r2, asr #12
     54c:	4143535f 	cmpmi	r3, pc, asr r3
     550:	5f52414c 	svcpl	0x0052414c
     554:	54495241 	strbpl	r5, [r9], #-577	; 0xfffffdbf
     558:	54454d48 	strbpl	r4, [r5], #-3400	; 0xfffff2b8
     55c:	5f004349 	svcpl	0x00004349
     560:	5f51535f 	svcpl	0x0051535f
     564:	54494249 	strbpl	r4, [r9], #-585	; 0xfffffdb7
     568:	30205f5f 	eorcc	r5, r0, pc, asr pc
     56c:	4f5f5f00 	svcmi	0x005f5f00
     570:	52454452 	subpl	r4, r5, #1375731712	; 0x52000000
     574:	5044505f 	subpl	r5, r4, pc, asr r0
     578:	444e455f 	strbmi	r4, [lr], #-1375	; 0xfffffaa1
     57c:	5f4e4149 	svcpl	0x004e4149
     580:	3433205f 	ldrtcc	r2, [r3], #-95	; 0xffffffa1
     584:	5f003231 	svcpl	0x00003231
     588:	5a49535f 	bpl	125530c <_Min_Stack_Size+0x1254f0c>
     58c:	59545f45 	ldmdbpl	r4, {r0, r2, r6, r8, r9, sl, fp, ip, lr}^
     590:	5f5f4550 	svcpl	0x005f4550
     594:	736e7520 	cmnvc	lr, #32, 10	; 0x8000000
     598:	656e6769 	strbvs	r6, [lr, #-1897]!	; 0xfffff897
     59c:	6e692064 	cdpvs	0, 6, cr2, cr9, cr4, {3}
     5a0:	5f5f0074 	svcpl	0x005f0074
     5a4:	5f544c46 	svcpl	0x00544c46
     5a8:	5f534148 	svcpl	0x00534148
     5ac:	4f4e4544 	svcmi	0x004e4544
     5b0:	5f5f4d52 	svcpl	0x005f4d52
     5b4:	5f003120 	svcpl	0x00003120
     5b8:	544e495f 	strbpl	r4, [lr], #-2399	; 0xfffff6a1
     5bc:	59545f38 	ldmdbpl	r4, {r3, r4, r5, r8, r9, sl, fp, ip, lr}^
     5c0:	5f5f4550 	svcpl	0x005f4550
     5c4:	67697320 	strbvs	r7, [r9, -r0, lsr #6]!
     5c8:	2064656e 	rsbcs	r6, r4, lr, ror #10
     5cc:	72616863 	rsbvc	r6, r1, #6488064	; 0x630000
     5d0:	465f5f00 	ldrbmi	r5, [pc], -r0, lsl #30
     5d4:	3233544c 	eorscc	r5, r3, #76, 8	; 0x4c000000
     5d8:	4e494d5f 	mcrmi	13, 2, r4, cr9, cr15, {2}
     5dc:	31205f5f 			; <UNDEFINED> instruction: 0x31205f5f
     5e0:	3537312e 	ldrcc	r3, [r7, #-302]!	; 0xfffffed2
     5e4:	33343934 	teqcc	r4, #52, 18	; 0xd0000
     5e8:	32383035 	eorscc	r3, r8, #53	; 0x35
     5ec:	37383232 			; <UNDEFINED> instruction: 0x37383232
     5f0:	332d6535 			; <UNDEFINED> instruction: 0x332d6535
     5f4:	32334638 	eorscc	r4, r3, #56, 12	; 0x3800000
     5f8:	555f5f00 	ldrbpl	r5, [pc, #-3840]	; fffff700 <_estack+0xdfffcf00>
     5fc:	43434153 	movtmi	r4, #12627	; 0x3153
     600:	4d5f4d55 	ldclmi	13, cr4, [pc, #-340]	; 4b4 <_Min_Stack_Size+0xb4>
     604:	5f5f4e49 	svcpl	0x005f4e49
     608:	302e3020 	eorcc	r3, lr, r0, lsr #32
     60c:	004b4855 	subeq	r4, fp, r5, asr r8
     610:	4c465f5f 	mcrrmi	15, 5, r5, r6, cr15
     614:	5f323354 	svcpl	0x00323354
     618:	49434544 	stmdbmi	r3, {r2, r6, r8, sl, lr}^
     61c:	5f4c414d 	svcpl	0x004c414d
     620:	5f474944 	svcpl	0x00474944
     624:	0039205f 	eorseq	r2, r9, pc, asr r0
     628:	5f434352 	svcpl	0x00434352
     62c:	5f525750 	svcpl	0x00525750
     630:	29284e45 	stmdbcs	r8!, {r0, r2, r6, r9, sl, fp, lr}
     634:	43435220 	movtmi	r5, #12832	; 0x3220
     638:	50413e2d 	subpl	r3, r1, sp, lsr #28
     63c:	4e453142 	dvfmism	f3, f5, f2
     640:	3d7c2052 	ldclcc	0, cr2, [ip, #-328]!	; 0xfffffeb8
     644:	3c312820 	ldccc	8, cr2, [r1], #-128	; 0xffffff80
     648:	2938323c 	ldmdbcs	r8!, {r2, r3, r4, r5, r9, ip, sp}
     64c:	4c5f5f00 	mrrcmi	15, 0, r5, pc, cr0	; <UNPREDICTABLE>
     650:	5f4c4244 	svcpl	0x004c4244
     654:	5f4e494d 	svcpl	0x004e494d
     658:	5f505845 	svcpl	0x00505845
     65c:	2d28205f 	stccs	0, cr2, [r8, #-380]!	; 0xfffffe84
     660:	31323031 	teqcc	r2, r1, lsr r0
     664:	5f5f0029 	svcpl	0x005f0029
     668:	4c42444c 	cfstrdmi	mvd4, [r2], {76}	; 0x4c
     66c:	4e414d5f 	mcrmi	13, 2, r4, cr1, cr15, {2}
     670:	49445f54 	stmdbmi	r4, {r2, r4, r6, r8, r9, sl, fp, ip, lr}^
     674:	205f5f47 	subscs	r5, pc, r7, asr #30
     678:	47003335 	smladxmi	r0, r5, r3, r3
     67c:	5f4f4950 	svcpl	0x004f4950
     680:	54524f50 	ldrbpl	r4, [r2], #-3920	; 0xfffff0b0
     684:	54415453 	strbpl	r5, [r1], #-1107	; 0xfffffbad
     688:	49485f45 	stmdbmi	r8, {r0, r2, r6, r8, r9, sl, fp, ip, lr}^
     68c:	30204847 	eorcc	r4, r0, r7, asr #16
     690:	66666678 			; <UNDEFINED> instruction: 0x66666678
     694:	50470066 	subpl	r0, r7, r6, rrx
     698:	505f4f49 	subspl	r4, pc, r9, asr #30
     69c:	315f4e49 	cmpcc	pc, r9, asr #28
     6a0:	28282034 	stmdacs	r8!, {r2, r4, r5, sp}
     6a4:	746e6975 	strbtvc	r6, [lr], #-2421	; 0xfffff68b
     6a8:	29745f38 	ldmdbcs	r4!, {r3, r4, r5, r8, r9, sl, fp, ip, lr}^
     6ac:	00293431 	eoreq	r3, r9, r1, lsr r4
     6b0:	49555f5f 	ldmdbmi	r5, {r0, r1, r2, r3, r4, r6, r8, r9, sl, fp, ip, lr}^
     6b4:	5f38544e 	svcpl	0x0038544e
     6b8:	29632843 	stmdbcs	r3!, {r0, r1, r6, fp, sp}^
     6bc:	5f006320 	svcpl	0x00006320
     6c0:	544e495f 	strbpl	r4, [lr], #-2399	; 0xfffff6a1
     6c4:	545f3631 	ldrbpl	r3, [pc], #-1585	; 6cc <_Min_Stack_Size+0x2cc>
     6c8:	5f455059 	svcpl	0x00455059
     6cc:	6873205f 	ldmdavs	r3!, {r0, r1, r2, r3, r4, r6, sp}^
     6d0:	2074726f 	rsbscs	r7, r4, pc, ror #4
     6d4:	00746e69 	rsbseq	r6, r4, r9, ror #28
     6d8:	4c465f5f 	mcrrmi	15, 5, r5, r6, cr15
     6dc:	5f343654 	svcpl	0x00343654
     6e0:	5f58414d 	svcpl	0x0058414d
     6e4:	2e31205f 	mrccs	0, 1, r2, cr1, cr15, {2}
     6e8:	36373937 			; <UNDEFINED> instruction: 0x36373937
     6ec:	33313339 	teqcc	r1, #-469762048	; 0xe4000000
     6f0:	32363834 	eorscc	r3, r6, #52, 16	; 0x340000
     6f4:	37353133 			; <UNDEFINED> instruction: 0x37353133
     6f8:	30332b65 	eorscc	r2, r3, r5, ror #22
     6fc:	34364638 	ldrtcc	r4, [r6], #-1592	; 0xfffff9c8
     700:	475f5f00 	ldrbmi	r5, [pc, -r0, lsl #30]
     704:	485f4343 	ldmdami	pc, {r0, r1, r6, r8, r9, lr}^	; <UNPREDICTABLE>
     708:	5f455641 	svcpl	0x00455641
     70c:	434e5953 	movtmi	r5, #59731	; 0xe953
     710:	4d4f435f 	stclmi	3, cr4, [pc, #-380]	; 59c <_Min_Stack_Size+0x19c>
     714:	45524150 	ldrbmi	r4, [r2, #-336]	; 0xfffffeb0
     718:	444e415f 	strbmi	r4, [lr], #-351	; 0xfffffea1
     71c:	4157535f 	cmpmi	r7, pc, asr r3
     720:	20315f50 	eorscs	r5, r1, r0, asr pc
     724:	5f5f0031 	svcpl	0x005f0031
     728:	43445453 	movtmi	r5, #17491	; 0x4453
     72c:	534f485f 	movtpl	r4, #63583	; 0xf85f
     730:	5f444554 	svcpl	0x00444554
     734:	0031205f 	eorseq	r2, r1, pc, asr r0
     738:	4c555f5f 	mrrcmi	15, 5, r5, r5, cr15	; <UNPREDICTABLE>
     73c:	4152464c 	cmpmi	r2, ip, asr #12
     740:	465f5443 	ldrbmi	r5, [pc], -r3, asr #8
     744:	5f544942 	svcpl	0x00544942
     748:	3436205f 	ldrtcc	r2, [r6], #-95	; 0xffffffa1
     74c:	49504700 	ldmdbmi	r0, {r8, r9, sl, lr}^
     750:	2820454f 	stmdacs	r0!, {r0, r1, r2, r3, r6, r8, sl, lr}
     754:	49504728 	ldmdbmi	r0, {r3, r5, r8, r9, sl, lr}^
     758:	2a745f4f 	bcs	1d1849c <_Min_Stack_Size+0x1d1809c>
     75c:	49504729 	ldmdbmi	r0, {r0, r3, r5, r8, r9, sl, lr}^
     760:	425f454f 	subsmi	r4, pc, #331350016	; 0x13c00000
     764:	5f455341 	svcpl	0x00455341
     768:	45444441 	strbmi	r4, [r4, #-1089]	; 0xfffffbbf
     76c:	53534552 	cmppl	r3, #343932928	; 0x14800000
     770:	5f5f0029 	svcpl	0x005f0029
     774:	5f474953 	svcpl	0x00474953
     778:	4d4f5441 	cfstrdmi	mvd5, [pc, #-260]	; 67c <_Min_Stack_Size+0x27c>
     77c:	545f4349 	ldrbpl	r4, [pc], #-841	; 784 <_Min_Stack_Size+0x384>
     780:	5f455059 	svcpl	0x00455059
     784:	6e69205f 	mcrvs	0, 3, r2, cr9, cr15, {2}
     788:	5f500074 	svcpl	0x00500074
     78c:	5f515249 	svcpl	0x00515249
     790:	6c6c6143 	stfvse	f6, [ip], #-268	; 0xfffffef4
     794:	6b636142 	blvs	18d8ca4 <_Min_Stack_Size+0x18d88a4>
     798:	495f5f00 	ldmdbmi	pc, {r8, r9, sl, fp, ip, lr}^	; <UNPREDICTABLE>
     79c:	465f544e 	ldrbmi	r5, [pc], -lr, asr #8
     7a0:	36545341 	ldrbcc	r5, [r4], -r1, asr #6
     7a4:	59545f34 	ldmdbpl	r4, {r2, r4, r5, r8, r9, sl, fp, ip, lr}^
     7a8:	5f5f4550 	svcpl	0x005f4550
     7ac:	6e6f6c20 	cdpvs	12, 6, cr6, cr15, cr0, {1}
     7b0:	6f6c2067 	svcvs	0x006c2067
     7b4:	6920676e 	stmdbvs	r0!, {r1, r2, r3, r5, r6, r8, r9, sl, sp, lr}
     7b8:	5f00746e 	svcpl	0x0000746e
     7bc:	4d52415f 	ldfmie	f4, [r2, #-380]	; 0xfffffe84
     7c0:	4145465f 	cmpmi	r5, pc, asr r6
     7c4:	45525554 	ldrbmi	r5, [r2, #-1364]	; 0xfffffaac
     7c8:	504f435f 	subpl	r4, pc, pc, asr r3	; <UNPREDICTABLE>
     7cc:	20434f52 	subcs	r4, r3, r2, asr pc
     7d0:	47003531 	smladxmi	r0, r1, r5, r3
     7d4:	5f4f4950 	svcpl	0x004f4950
     7d8:	5f5f0074 	svcpl	0x005f0074
     7dc:	33544c46 	cmpcc	r4, #17920	; 0x4600
     7e0:	485f5832 	ldmdami	pc, {r1, r4, r5, fp, ip, lr}^	; <UNPREDICTABLE>
     7e4:	515f5341 	cmppl	pc, r1, asr #6
     7e8:	54454955 	strbpl	r4, [r5], #-2389	; 0xfffff6ab
     7ec:	4e414e5f 	mcrmi	14, 2, r4, cr1, cr15, {2}
     7f0:	31205f5f 			; <UNDEFINED> instruction: 0x31205f5f
     7f4:	535f5f00 	cmppl	pc, #0, 30
     7f8:	4f455a49 	svcmi	0x00455a49
     7fc:	4f4c5f46 	svcmi	0x004c5f46
     800:	4c5f474e 	mrrcmi	7, 4, r4, pc, cr14	; <UNPREDICTABLE>
     804:	5f474e4f 	svcpl	0x00474e4f
     808:	0038205f 	eorseq	r2, r8, pc, asr r0
     80c:	52535446 	subspl	r5, r3, #1174405120	; 0x46000000
     810:	465f5f00 	ldrbmi	r5, [pc], -r0, lsl #30
     814:	3233544c 	eorscc	r5, r3, #76, 8	; 0x4c000000
     818:	58414d5f 	stmdapl	r1, {r0, r1, r2, r3, r4, r6, r8, sl, fp, lr}^
     81c:	5f30315f 	svcpl	0x0030315f
     820:	5f505845 	svcpl	0x00505845
     824:	3833205f 	ldmdacc	r3!, {r0, r1, r2, r3, r4, r6, sp}
     828:	54584500 	ldrbpl	r4, [r8], #-1280	; 0xfffffb00
     82c:	49505f49 	ldmdbmi	r0, {r0, r3, r6, r8, r9, sl, fp, ip, lr}^
     830:	494c5f4e 	stmdbmi	ip, {r1, r2, r3, r6, r8, r9, sl, fp, ip, lr}^
     834:	5037454e 	eorspl	r4, r7, lr, asr #10
     838:	28203742 	stmdacs	r0!, {r1, r6, r8, r9, sl, ip, sp}
     83c:	49545845 	ldmdbmi	r4, {r0, r2, r6, fp, ip, lr}^
     840:	7465535f 	strbtvc	r5, [r5], #-863	; 0xfffffca1
     844:	745f7075 	ldrbvc	r7, [pc], #-117	; 84c <_Min_Stack_Size+0x44c>
     848:	58457b29 	stmdapl	r5, {r0, r3, r5, r8, r9, fp, ip, sp, lr}^
     84c:	2c374954 			; <UNDEFINED> instruction: 0x2c374954
     850:	4f495047 	svcmi	0x00495047
     854:	50472c42 	subpl	r2, r7, r2, asr #24
     858:	505f4f49 	subspl	r4, pc, r9, asr #30
     85c:	375f4e49 	ldrbcc	r4, [pc, -r9, asr #28]
     860:	5f5f007d 	svcpl	0x005f007d
     864:	52465355 	subpl	r5, r6, #1409286145	; 0x54000001
     868:	5f544341 	svcpl	0x00544341
     86c:	5f58414d 	svcpl	0x0058414d
     870:	5830205f 	ldmdapl	r0!, {r0, r1, r2, r3, r4, r6, sp}
     874:	2d504646 	ldclcs	6, cr4, [r0, #-280]	; 0xfffffee8
     878:	52485538 	subpl	r5, r8, #56, 10	; 0xe000000
     87c:	54584500 	ldrbpl	r4, [r8], #-1280	; 0xfffffb00
     880:	20303149 	eorscs	r3, r0, r9, asr #2
     884:	5f003031 	svcpl	0x00003031
     888:	4e49555f 	mcrmi	5, 2, r5, cr9, cr15, {2}
     88c:	52545054 	subspl	r5, r4, #84	; 0x54
     890:	58414d5f 	stmdapl	r1, {r0, r1, r2, r3, r4, r6, r8, sl, fp, lr}^
     894:	30205f5f 	eorcc	r5, r0, pc, asr pc
     898:	66666678 			; <UNDEFINED> instruction: 0x66666678
     89c:	66666666 	strbtvs	r6, [r6], -r6, ror #12
     8a0:	47005566 	strmi	r5, [r0, -r6, ror #10]
     8a4:	5f4f4950 	svcpl	0x004f4950
     8a8:	5f4e4950 	svcpl	0x004e4950
     8ac:	45444f4d 	strbmi	r4, [r4, #-3917]	; 0xfffff0b3
     8b0:	504e495f 	subpl	r4, lr, pc, asr r9
     8b4:	505f5455 	subspl	r5, pc, r5, asr r4	; <UNPREDICTABLE>
     8b8:	5f4c4c55 	svcpl	0x004c4c55
     8bc:	4e574f44 	cdpmi	15, 5, cr4, cr7, cr4, {2}
     8c0:	31623020 	cmncc	r2, r0, lsr #32
     8c4:	00303030 	eorseq	r3, r0, r0, lsr r0
     8c8:	4c465f5f 	mcrrmi	15, 5, r5, r6, cr15
     8cc:	5f323354 	svcpl	0x00323354
     8d0:	5f4e494d 	svcpl	0x004e494d
     8d4:	5f505845 	svcpl	0x00505845
     8d8:	2d28205f 	stccs	0, cr2, [r8, #-380]!	; 0xfffffe84
     8dc:	29353231 	ldmdbcs	r5!, {r0, r4, r5, r9, ip, sp}
     8e0:	41434d00 	cmpmi	r3, r0, lsl #26
     8e4:	58455f4c 	stmdapl	r5, {r2, r3, r6, r8, r9, sl, fp, ip, lr}^
     8e8:	475f4954 			; <UNDEFINED> instruction: 0x475f4954
     8ec:	5f4f4950 	svcpl	0x004f4950
     8f0:	61647055 	qdsubvs	r7, r5, r4
     8f4:	52006574 	andpl	r6, r0, #116, 10	; 0x1d000000
     8f8:	555f4343 	ldrbpl	r4, [pc, #-835]	; 5bd <_Min_Stack_Size+0x1bd>
     8fc:	54524153 	ldrbpl	r4, [r2], #-339	; 0xfffffead
     900:	45525f33 	ldrbmi	r5, [r2, #-3891]	; 0xfffff0cd
     904:	28544553 	ldmdacs	r4, {r0, r1, r4, r6, r8, sl, lr}^
     908:	43522029 	cmpmi	r2, #41	; 0x29
     90c:	413e2d43 	teqmi	lr, r3, asr #26
     910:	52314250 	eorspl	r4, r1, #80, 4
     914:	20525453 	subscs	r5, r2, r3, asr r4
     918:	28203d7c 	stmdacs	r0!, {r2, r3, r4, r5, r6, r8, sl, fp, ip, sp}
     91c:	313c3c31 	teqcc	ip, r1, lsr ip
     920:	4e002938 			; <UNDEFINED> instruction: 0x4e002938
     924:	5f434956 	svcpl	0x00434956
     928:	36515249 	ldrbcc	r5, [r1], -r9, asr #4
     92c:	5458455f 	ldrbpl	r4, [r8], #-1375	; 0xfffffaa1
     930:	445f3049 	ldrbmi	r3, [pc], #-73	; 938 <_Min_Stack_Size+0x538>
     934:	42415349 	submi	r5, r1, #603979777	; 0x24000001
     938:	4e20454c 	cfsh64mi	mvdx4, mvdx0, #44
     93c:	5f434956 	svcpl	0x00434956
     940:	52454349 	subpl	r4, r5, #603979777	; 0x24000001
     944:	3d7c2030 	ldclcc	0, cr2, [ip, #-192]!	; 0xffffff40
     948:	3c312820 	ldccc	8, cr2, [r1], #-128	; 0xffffff80
     94c:	3b29363c 	blcc	a4e244 <_Min_Stack_Size+0xa4de44>
     950:	555f5f00 	ldrbpl	r5, [pc, #-3840]	; fffffa58 <_estack+0xdfffd258>
     954:	4152464c 	cmpmi	r2, ip, asr #12
     958:	465f5443 	ldrbmi	r5, [pc], -r3, asr #8
     95c:	5f544942 	svcpl	0x00544942
     960:	3233205f 	eorscc	r2, r3, #95	; 0x5f
     964:	54584500 	ldrbpl	r4, [r8], #-1280	; 0xfffffb00
     968:	20323149 	eorscs	r3, r2, r9, asr #2
     96c:	5f003231 	svcpl	0x00003231
     970:	544c465f 	strbpl	r4, [ip], #-1631	; 0xfffff9a1
     974:	4d5f3436 	cfldrdmi	mvd3, [pc, #-216]	; 8a4 <_Min_Stack_Size+0x4a4>
     978:	315f4e49 	cmpcc	pc, r9, asr #28
     97c:	58455f30 	stmdapl	r5, {r4, r5, r8, r9, sl, fp, ip, lr}^
     980:	205f5f50 	subscs	r5, pc, r0, asr pc	; <UNPREDICTABLE>
     984:	30332d28 	eorscc	r2, r3, r8, lsr #26
     988:	5f002937 	svcpl	0x00002937
     98c:	554e475f 	strbpl	r4, [lr, #-1887]	; 0xfffff8a1
     990:	58455f43 	stmdapl	r5, {r0, r1, r6, r8, r9, sl, fp, ip, lr}^
     994:	54554345 	ldrbpl	r4, [r5], #-837	; 0xfffffcbb
     998:	5f4e4f49 	svcpl	0x004e4f49
     99c:	52414843 	subpl	r4, r1, #4390912	; 0x430000
     9a0:	5f544553 	svcpl	0x00544553
     9a4:	454d414e 	strbmi	r4, [sp, #-334]	; 0xfffffeb2
     9a8:	54552220 	ldrbpl	r2, [r5], #-544	; 0xfffffde0
     9ac:	22382d46 	eorscs	r2, r8, #4480	; 0x1180
     9b0:	495f5f00 	ldmdbmi	pc, {r8, r9, sl, fp, ip, lr}^	; <UNPREDICTABLE>
     9b4:	465f544e 	ldrbmi	r5, [pc], -lr, asr #8
     9b8:	36545341 	ldrbcc	r5, [r4], -r1, asr #6
     9bc:	49575f34 	ldmdbmi	r7, {r2, r4, r5, r8, r9, sl, fp, ip, lr}^
     9c0:	5f485444 	svcpl	0x00485444
     9c4:	3436205f 	ldrtcc	r2, [r6], #-95	; 0xffffffa1
     9c8:	49504700 	ldmdbmi	r0, {r8, r9, sl, lr}^
     9cc:	49505f4f 	ldmdbmi	r0, {r0, r1, r2, r3, r6, r8, r9, sl, fp, ip, lr}^
     9d0:	20345f4e 	eorscs	r5, r4, lr, asr #30
     9d4:	69752828 	ldmdbvs	r5!, {r3, r5, fp, sp}^
     9d8:	5f38746e 	svcpl	0x0038746e
     9dc:	29342974 	ldmdbcs	r4!, {r2, r4, r5, r6, r8, fp, sp}
     9e0:	49564e00 	ldmdbmi	r6, {r9, sl, fp, lr}^
     9e4:	52495f43 	subpl	r5, r9, #268	; 0x10c
     9e8:	5f303451 	svcpl	0x00303451
     9ec:	49545845 	ldmdbmi	r4, {r0, r2, r6, fp, ip, lr}^
     9f0:	315f3531 	cmpcc	pc, r1, lsr r5	; <UNPREDICTABLE>
     9f4:	49445f30 	stmdbmi	r4, {r4, r5, r8, r9, sl, fp, ip, lr}^
     9f8:	4c424153 	stfmie	f4, [r2], {83}	; 0x53
     9fc:	564e2045 	strbpl	r2, [lr], -r5, asr #32
     a00:	495f4349 	ldmdbmi	pc, {r0, r3, r6, r8, r9, lr}^	; <UNPREDICTABLE>
     a04:	31524543 	cmpcc	r2, r3, asr #10
     a08:	203d7c20 	eorscs	r7, sp, r0, lsr #24
     a0c:	3c3c3128 	ldfccs	f3, [ip], #-160	; 0xffffff60
     a10:	003b2938 	eorseq	r2, fp, r8, lsr r9
     a14:	49545845 	ldmdbmi	r4, {r0, r2, r6, fp, ip, lr}^
     a18:	4e49505f 	mcrmi	0, 2, r5, cr9, cr15, {2}
     a1c:	4e494c5f 	mcrmi	12, 2, r4, cr9, cr15, {2}
     a20:	43503645 	cmpmi	r0, #72351744	; 0x4500000
     a24:	45282036 	strmi	r2, [r8, #-54]!	; 0xffffffca
     a28:	5f495458 	svcpl	0x00495458
     a2c:	75746553 	ldrbvc	r6, [r4, #-1363]!	; 0xfffffaad
     a30:	29745f70 	ldmdbcs	r4!, {r4, r5, r6, r8, r9, sl, fp, ip, lr}^
     a34:	5458457b 	ldrbpl	r4, [r8], #-1403	; 0xfffffa85
     a38:	472c3649 	strmi	r3, [ip, -r9, asr #12]!
     a3c:	434f4950 	movtmi	r4, #63824	; 0xf950
     a40:	4950472c 	ldmdbmi	r0, {r2, r3, r5, r8, r9, sl, lr}^
     a44:	49505f4f 	ldmdbmi	r0, {r0, r1, r2, r3, r6, r8, r9, sl, fp, ip, lr}^
     a48:	7d365f4e 	ldcvc	15, cr5, [r6, #-312]!	; 0xfffffec8
     a4c:	474f5400 	strbmi	r5, [pc, -r0, lsl #8]
     a50:	5f454c47 	svcpl	0x00454c47
     a54:	28544942 	ldmdacs	r4, {r1, r6, r8, fp, lr}^
     a58:	2c474552 	cfstr64cs	mvdx4, [r7], {82}	; 0x52
     a5c:	29544942 	ldmdbcs	r4, {r1, r6, r8, fp, lr}^
     a60:	45522820 	ldrbmi	r2, [r2, #-2080]	; 0xfffff7e0
     a64:	3d5e2047 	ldclcc	0, cr2, [lr, #-284]	; 0xfffffee4
     a68:	3c312820 	ldccc	8, cr2, [r1], #-128	; 0xffffff80
     a6c:	5449423c 	strbpl	r4, [r9], #-572	; 0xfffffdc4
     a70:	5f002929 	svcpl	0x00002929
     a74:	544e495f 	strbpl	r4, [lr], #-2399	; 0xfffff6a1
     a78:	435f3233 	cmpmi	pc, #805306371	; 0x30000003
     a7c:	20296328 	eorcs	r6, r9, r8, lsr #6
     a80:	23232063 			; <UNDEFINED> instruction: 0x23232063
     a84:	5f004c20 	svcpl	0x00004c20
     a88:	5153555f 	cmppl	r3, pc, asr r5
     a8c:	4942465f 	stmdbmi	r2, {r0, r1, r2, r3, r4, r6, r9, sl, lr}^
     a90:	205f5f54 	subscs	r5, pc, r4, asr pc	; <UNPREDICTABLE>
     a94:	5f003233 	svcpl	0x00003233
     a98:	44524f5f 	ldrbmi	r4, [r2], #-3935	; 0xfffff0a1
     a9c:	425f5245 	subsmi	r5, pc, #1342177284	; 0x50000004
     aa0:	455f4749 	ldrbmi	r4, [pc, #-1865]	; 35f <_Min_Heap_Size+0x15f>
     aa4:	4149444e 	cmpmi	r9, lr, asr #8
     aa8:	205f5f4e 	subscs	r5, pc, lr, asr #30
     aac:	31323334 	teqcc	r2, r4, lsr r3
     ab0:	54584500 	ldrbpl	r4, [r8], #-1280	; 0xfffffb00
     ab4:	20343149 	eorscs	r3, r4, r9, asr #2
     ab8:	47003431 	smladxmi	r0, r1, r4, r3
     abc:	5f4f4950 	svcpl	0x004f4950
     ac0:	54524f50 	ldrbpl	r4, [r2], #-3920	; 0xfffff0b0
     ac4:	444f4d5f 	strbmi	r4, [pc], #-3423	; acc <_Min_Stack_Size+0x6cc>
     ac8:	554f5f45 	strbpl	r5, [pc, #-3909]	; fffffb8b <_estack+0xdfffd38b>
     acc:	54555054 	ldrbpl	r5, [r5], #-84	; 0xffffffac
     ad0:	5355505f 	cmppl	r5, #95	; 0x5f
     ad4:	55505f48 	ldrbpl	r5, [r0, #-3912]	; 0xfffff0b8
     ad8:	355f4c4c 	ldrbcc	r4, [pc, #-3148]	; fffffe94 <_estack+0xdfffd694>
     adc:	484d5f30 	stmdami	sp, {r4, r5, r8, r9, sl, fp, ip, lr}^
     ae0:	7830205a 	ldmdavc	r0!, {r1, r3, r4, r6, sp}
     ae4:	33333333 	teqcc	r3, #-872415232	; 0xcc000000
     ae8:	33333333 	teqcc	r3, #-872415232	; 0xcc000000
     aec:	43435200 	movtmi	r5, #12800	; 0x3200
     af0:	4d49545f 	cfstrdmi	mvd5, [r9, #-380]	; 0xfffffe84
     af4:	455f3031 	ldrbmi	r3, [pc, #-49]	; acb <_Min_Stack_Size+0x6cb>
     af8:	2029284e 	eorcs	r2, r9, lr, asr #16
     afc:	2d434352 	stclcs	3, cr4, [r3, #-328]	; 0xfffffeb8
     b00:	4250413e 	subsmi	r4, r0, #-2147483633	; 0x8000000f
     b04:	524e4532 	subpl	r4, lr, #209715200	; 0xc800000
     b08:	203d7c20 	eorscs	r7, sp, r0, lsr #24
     b0c:	3c3c3128 	ldfccs	f3, [ip], #-160	; 0xffffff60
     b10:	00293032 	eoreq	r3, r9, r2, lsr r0
     b14:	4f495047 	svcmi	0x00495047
     b18:	524f505f 	subpl	r5, pc, #95	; 0x5f
     b1c:	4f4d5f54 	svcmi	0x004d5f54
     b20:	415f4544 	cmpmi	pc, r4, asr #10
     b24:	5245544c 	subpl	r5, r5, #76, 8	; 0x4c000000
     b28:	4554414e 	ldrbmi	r4, [r4, #-334]	; 0xfffffeb2
     b2c:	5355505f 	cmppl	r5, #95	; 0x5f
     b30:	55505f48 	ldrbpl	r5, [r0, #-3912]	; 0xfffff0b8
     b34:	355f4c4c 	ldrbcc	r4, [pc, #-3148]	; fffffef0 <_estack+0xdfffd6f0>
     b38:	484d5f30 	stmdami	sp, {r4, r5, r8, r9, sl, fp, ip, lr}^
     b3c:	7830205a 	ldmdavc	r0!, {r1, r3, r4, r6, sp}
     b40:	42424242 	submi	r4, r2, #536870916	; 0x20000004
     b44:	42424242 	submi	r4, r2, #536870916	; 0x20000004
     b48:	54584500 	ldrbpl	r4, [r8], #-1280	; 0xfffffb00
     b4c:	49505f49 	ldmdbmi	r0, {r0, r3, r6, r8, r9, sl, fp, ip, lr}^
     b50:	494c5f4e 	stmdbmi	ip, {r1, r2, r3, r6, r8, r9, sl, fp, ip, lr}^
     b54:	3331454e 	teqcc	r1, #327155712	; 0x13800000
     b58:	33314450 	teqcc	r1, #80, 8	; 0x50000000
     b5c:	58452820 	stmdapl	r5, {r5, fp, sp}^
     b60:	535f4954 	cmppl	pc, #84, 18	; 0x150000
     b64:	70757465 	rsbsvc	r7, r5, r5, ror #8
     b68:	7b29745f 	blvc	a5dcec <_Min_Stack_Size+0xa5d8ec>
     b6c:	49545845 	ldmdbmi	r4, {r0, r2, r6, fp, ip, lr}^
     b70:	472c3331 			; <UNDEFINED> instruction: 0x472c3331
     b74:	444f4950 	strbmi	r4, [pc], #-2384	; b7c <_Min_Stack_Size+0x77c>
     b78:	4950472c 	ldmdbmi	r0, {r2, r3, r5, r8, r9, sl, lr}^
     b7c:	49505f4f 	ldmdbmi	r0, {r0, r1, r2, r3, r6, r8, r9, sl, fp, ip, lr}^
     b80:	33315f4e 	teqcc	r1, #312	; 0x138
     b84:	5f5f007d 	svcpl	0x005f007d
     b88:	5f514855 	svcpl	0x00514855
     b8c:	54494246 	strbpl	r4, [r9], #-582	; 0xfffffdba
     b90:	31205f5f 			; <UNDEFINED> instruction: 0x31205f5f
     b94:	5f5f0036 	svcpl	0x005f0036
     b98:	36544c46 	ldrbcc	r4, [r4], -r6, asr #24
     b9c:	494d5f34 	stmdbmi	sp, {r2, r4, r5, r8, r9, sl, fp, ip, lr}^
     ba0:	58455f4e 	stmdapl	r5, {r1, r2, r3, r6, r8, r9, sl, fp, ip, lr}^
     ba4:	205f5f50 	subscs	r5, pc, r0, asr pc	; <UNPREDICTABLE>
     ba8:	30312d28 	eorscc	r2, r1, r8, lsr #26
     bac:	00293132 	eoreq	r3, r9, r2, lsr r1
     bb0:	54505f5f 	ldrbpl	r5, [r0], #-3935	; 0xfffff0a1
     bb4:	46494452 			; <UNDEFINED> instruction: 0x46494452
     bb8:	49575f46 	ldmdbmi	r7, {r1, r2, r6, r8, r9, sl, fp, ip, lr}^
     bbc:	5f485444 	svcpl	0x00485444
     bc0:	3233205f 	eorscc	r2, r3, #95	; 0x5f
     bc4:	555f5f00 	ldrbpl	r5, [pc, #-3840]	; fffffccc <_estack+0xdfffd4cc>
     bc8:	5f544e49 	svcpl	0x00544e49
     bcc:	54534146 	ldrbpl	r4, [r3], #-326	; 0xfffffeba
     bd0:	414d5f38 	cmpmi	sp, r8, lsr pc
     bd4:	205f5f58 	subscs	r5, pc, r8, asr pc	; <UNPREDICTABLE>
     bd8:	66667830 			; <UNDEFINED> instruction: 0x66667830
     bdc:	66666666 	strbtvs	r6, [r6], -r6, ror #12
     be0:	00556666 	subseq	r6, r5, r6, ror #12
     be4:	414c5f5f 	cmpmi	ip, pc, asr pc
     be8:	4d554343 	ldclmi	3, cr4, [r5, #-268]	; 0xfffffef4
     bec:	4942495f 	stmdbmi	r2, {r0, r1, r2, r3, r4, r6, r8, fp, lr}^
     bf0:	205f5f54 	subscs	r5, pc, r4, asr pc	; <UNPREDICTABLE>
     bf4:	4e003233 	mcrmi	2, 0, r3, cr0, cr3, {1}
     bf8:	5f434956 	svcpl	0x00434956
     bfc:	39515249 	ldmdbcc	r1, {r0, r3, r6, r9, ip, lr}^
     c00:	5458455f 	ldrbpl	r4, [r8], #-1375	; 0xfffffaa1
     c04:	455f3349 	ldrbmi	r3, [pc, #-841]	; 8c3 <_Min_Stack_Size+0x4c3>
     c08:	4c42414e 	stfmie	f4, [r2], {78}	; 0x4e
     c0c:	564e2045 	strbpl	r2, [lr], -r5, asr #32
     c10:	495f4349 	ldmdbmi	pc, {r0, r3, r6, r8, r9, lr}^	; <UNPREDICTABLE>
     c14:	30524553 	subscc	r4, r2, r3, asr r5
     c18:	203d7c20 	eorscs	r7, sp, r0, lsr #24
     c1c:	3c3c3128 	ldfccs	f3, [ip], #-160	; 0xffffff60
     c20:	003b2939 	eorseq	r2, fp, r9, lsr r9
     c24:	4e495f5f 	mcrmi	15, 2, r5, cr9, cr15, {2}
     c28:	41465f54 	cmpmi	r6, r4, asr pc
     c2c:	36315453 			; <UNDEFINED> instruction: 0x36315453
     c30:	4449575f 	strbmi	r5, [r9], #-1887	; 0xfffff8a1
     c34:	5f5f4854 	svcpl	0x005f4854
     c38:	00323320 	eorseq	r3, r2, r0, lsr #6
     c3c:	49545845 	ldmdbmi	r4, {r0, r2, r6, fp, ip, lr}^
     c40:	5341425f 	movtpl	r4, #4703	; 0x125f
     c44:	44415f45 	strbmi	r5, [r1], #-3909	; 0xfffff0bb
     c48:	45524544 	ldrbmi	r4, [r2, #-1348]	; 0xfffffabc
     c4c:	30205353 	eorcc	r5, r0, r3, asr r3
     c50:	30303478 	eorscc	r3, r0, r8, ror r4
     c54:	30343031 	eorscc	r3, r4, r1, lsr r0
     c58:	004c5530 	subeq	r5, ip, r0, lsr r5
     c5c:	46565f5f 	usaxmi	r5, r6, pc	; <UNPREDICTABLE>
     c60:	50465f50 	subpl	r5, r6, r0, asr pc
     c64:	31205f5f 			; <UNDEFINED> instruction: 0x31205f5f
     c68:	4c5f5f00 	mrrcmi	15, 0, r5, pc, cr0	; <UNPREDICTABLE>
     c6c:	4152464c 	cmpmi	r2, ip, asr #12
     c70:	4d5f5443 	cfldrdmi	mvd5, [pc, #-268]	; b6c <_Min_Stack_Size+0x76c>
     c74:	5f5f4e49 	svcpl	0x005f4e49
     c78:	302d2820 	eorcc	r2, sp, r0, lsr #16
     c7c:	4c4c352e 	cfstr64mi	mvdx3, [ip], {46}	; 0x2e
     c80:	2e302d52 	mrccs	13, 1, r2, cr0, cr2, {2}
     c84:	524c4c35 	subpl	r4, ip, #13568	; 0x3500
     c88:	58450029 	stmdapl	r5, {r0, r3, r5}^
     c8c:	505f4954 	subspl	r4, pc, r4, asr r9	; <UNPREDICTABLE>
     c90:	4c5f4e49 	mrrcmi	14, 4, r4, pc, cr9	; <UNPREDICTABLE>
     c94:	31454e49 	cmpcc	r5, r9, asr #28
     c98:	31445034 	cmpcc	r4, r4, lsr r0
     c9c:	45282034 	strmi	r2, [r8, #-52]!	; 0xffffffcc
     ca0:	5f495458 	svcpl	0x00495458
     ca4:	75746553 	ldrbvc	r6, [r4, #-1363]!	; 0xfffffaad
     ca8:	29745f70 	ldmdbcs	r4!, {r4, r5, r6, r8, r9, sl, fp, ip, lr}^
     cac:	5458457b 	ldrbpl	r4, [r8], #-1403	; 0xfffffa85
     cb0:	2c343149 	ldfcss	f3, [r4], #-292	; 0xfffffedc
     cb4:	4f495047 	svcmi	0x00495047
     cb8:	50472c44 	subpl	r2, r7, r4, asr #24
     cbc:	505f4f49 	subspl	r4, pc, r9, asr #30
     cc0:	315f4e49 	cmpcc	pc, r9, asr #28
     cc4:	5f007d34 	svcpl	0x00007d34
     cc8:	4e49555f 	mcrmi	5, 2, r5, cr9, cr15, {2}
     ccc:	41465f54 	cmpmi	r6, r4, asr pc
     cd0:	36315453 			; <UNDEFINED> instruction: 0x36315453
     cd4:	58414d5f 	stmdapl	r1, {r0, r1, r2, r3, r4, r6, r8, sl, fp, lr}^
     cd8:	30205f5f 	eorcc	r5, r0, pc, asr pc
     cdc:	66666678 			; <UNDEFINED> instruction: 0x66666678
     ce0:	66666666 	strbtvs	r6, [r6], -r6, ror #12
     ce4:	5f005566 	svcpl	0x00005566
     ce8:	544e495f 	strbpl	r4, [lr], #-2399	; 0xfffff6a1
     cec:	5f525450 	svcpl	0x00525450
     cf0:	5f58414d 	svcpl	0x0058414d
     cf4:	7830205f 	ldmdavc	r0!, {r0, r1, r2, r3, r4, r6, sp}
     cf8:	66666637 			; <UNDEFINED> instruction: 0x66666637
     cfc:	66666666 	strbtvs	r6, [r6], -r6, ror #12
     d00:	414c4600 	cmpmi	ip, r0, lsl #12
     d04:	4d5f4853 	ldclmi	8, cr4, [pc, #-332]	; bc0 <_Min_Stack_Size+0x7c0>
     d08:	524f4d45 	subpl	r4, pc, #4416	; 0x1140
     d0c:	41425f59 	cmpmi	r2, r9, asr pc
     d10:	415f4553 	cmpmi	pc, r3, asr r5	; <UNPREDICTABLE>
     d14:	30204444 	eorcc	r4, r0, r4, asr #8
     d18:	30383078 	eorscc	r3, r8, r8, ror r0
     d1c:	30303030 	eorscc	r3, r0, r0, lsr r0
     d20:	004c5530 	subeq	r5, ip, r0, lsr r5
     d24:	4349564e 	movtmi	r5, #38478	; 0x964e
     d28:	5152495f 	cmppl	r2, pc, asr r9
     d2c:	555f3833 	ldrbpl	r3, [pc, #-2099]	; 501 <_Min_Stack_Size+0x101>
     d30:	54524153 	ldrbpl	r4, [r2], #-339	; 0xfffffead
     d34:	4e455f32 	mcrmi	15, 2, r5, cr5, cr2, {1}
     d38:	454c4241 	strbmi	r4, [ip, #-577]	; 0xfffffdbf
     d3c:	49564e20 	ldmdbmi	r6, {r5, r9, sl, fp, lr}^
     d40:	53495f43 	movtpl	r5, #40771	; 0x9f43
     d44:	20315245 	eorscs	r5, r1, r5, asr #4
     d48:	28203d7c 	stmdacs	r0!, {r2, r3, r4, r5, r6, r8, sl, fp, ip, sp}
     d4c:	363c3c31 			; <UNDEFINED> instruction: 0x363c3c31
     d50:	5f003b29 	svcpl	0x00003b29
     d54:	5246555f 	subpl	r5, r6, #398458880	; 0x17c00000
     d58:	5f544341 	svcpl	0x00544341
     d5c:	5f4e494d 	svcpl	0x004e494d
     d60:	2e30205f 	mrccs	0, 1, r2, cr0, cr15, {2}
     d64:	00525530 	subseq	r5, r2, r0, lsr r5
     d68:	4c465f5f 	mcrrmi	15, 5, r5, r6, cr15
     d6c:	58323354 	ldmdapl	r2!, {r2, r4, r6, r8, r9, ip, sp}
     d70:	5341485f 	movtpl	r4, #6239	; 0x185f
     d74:	464e495f 			; <UNDEFINED> instruction: 0x464e495f
     d78:	54494e49 	strbpl	r4, [r9], #-3657	; 0xfffff1b7
     d7c:	205f5f59 	subscs	r5, pc, r9, asr pc	; <UNPREDICTABLE>
     d80:	45440031 	strbmi	r0, [r4, #-49]	; 0xffffffcf
     d84:	20475542 	subcs	r5, r7, r2, asr #10
     d88:	58450031 	stmdapl	r5, {r0, r4, r5}^
     d8c:	505f4954 	subspl	r4, pc, r4, asr r9	; <UNPREDICTABLE>
     d90:	4c5f4e49 	mrrcmi	14, 4, r4, pc, cr9	; <UNPREDICTABLE>
     d94:	31454e49 	cmpcc	r5, r9, asr #28
     d98:	31425031 	cmpcc	r2, r1, lsr r0
     d9c:	45282031 	strmi	r2, [r8, #-49]!	; 0xffffffcf
     da0:	5f495458 	svcpl	0x00495458
     da4:	75746553 	ldrbvc	r6, [r4, #-1363]!	; 0xfffffaad
     da8:	29745f70 	ldmdbcs	r4!, {r4, r5, r6, r8, r9, sl, fp, ip, lr}^
     dac:	5458457b 	ldrbpl	r4, [r8], #-1403	; 0xfffffa85
     db0:	2c313149 	ldfcss	f3, [r1], #-292	; 0xfffffedc
     db4:	4f495047 	svcmi	0x00495047
     db8:	50472c42 	subpl	r2, r7, r2, asr #24
     dbc:	505f4f49 	subspl	r4, pc, r9, asr #30
     dc0:	315f4e49 	cmpcc	pc, r9, asr #28
     dc4:	45007d31 	strmi	r7, [r0, #-3377]	; 0xfffff2cf
     dc8:	5f495458 	svcpl	0x00495458
     dcc:	5f4e4950 	svcpl	0x004e4950
     dd0:	454e494c 	strbmi	r4, [lr, #-2380]	; 0xfffff6b4
     dd4:	35425035 	strbcc	r5, [r2, #-53]	; 0xffffffcb
     dd8:	58452820 	stmdapl	r5, {r5, fp, sp}^
     ddc:	535f4954 	cmppl	pc, #84, 18	; 0x150000
     de0:	70757465 	rsbsvc	r7, r5, r5, ror #8
     de4:	7b29745f 	blvc	a5df68 <_Min_Stack_Size+0xa5db68>
     de8:	49545845 	ldmdbmi	r4, {r0, r2, r6, fp, ip, lr}^
     dec:	50472c35 	subpl	r2, r7, r5, lsr ip
     df0:	2c424f49 	mcrrcs	15, 4, r4, r2, cr9
     df4:	4f495047 	svcmi	0x00495047
     df8:	4e49505f 	mcrmi	0, 2, r5, cr9, cr15, {2}
     dfc:	007d355f 	rsbseq	r3, sp, pc, asr r5
     e00:	4f495047 	svcmi	0x00495047
     e04:	524f505f 	subpl	r5, pc, #95	; 0x5f
     e08:	4f4d5f54 	svcmi	0x004d5f54
     e0c:	495f4544 	ldmdbmi	pc, {r2, r6, r8, sl, lr}^	; <UNPREDICTABLE>
     e10:	5455504e 	ldrbpl	r5, [r5], #-78	; 0xffffffb2
     e14:	4c55505f 	mrrcmi	0, 5, r5, r5, cr15	; <UNPREDICTABLE>
     e18:	50555f4c 	subspl	r5, r5, ip, asr #30
     e1c:	38783020 	ldmdacc	r8!, {r5, ip, sp}^
     e20:	38383838 	ldmdacc	r8!, {r3, r4, r5, fp, ip, sp}
     e24:	00383838 	eorseq	r3, r8, r8, lsr r8
     e28:	41555f5f 	cmpmi	r5, pc, asr pc
     e2c:	4d554343 	ldclmi	3, cr4, [r5, #-268]	; 0xfffffef4
     e30:	4942495f 	stmdbmi	r2, {r0, r1, r2, r3, r4, r6, r8, fp, lr}^
     e34:	205f5f54 	subscs	r5, pc, r4, asr pc	; <UNPREDICTABLE>
     e38:	47003631 	smladxmi	r0, r1, r6, r3
     e3c:	5f4f4950 	svcpl	0x004f4950
     e40:	5f4e4950 	svcpl	0x004e4950
     e44:	45444f4d 	strbmi	r4, [r4, #-3917]	; 0xfffff0b3
     e48:	544c415f 	strbpl	r4, [ip], #-351	; 0xfffffea1
     e4c:	414e5245 	cmpmi	lr, r5, asr #4
     e50:	4f5f4554 	svcmi	0x005f4554
     e54:	5f4e4550 	svcpl	0x004e4550
     e58:	49415244 	stmdbmi	r1, {r2, r6, r9, ip, lr}^
     e5c:	30315f4e 	eorscc	r5, r1, lr, asr #30
     e60:	5a484d5f 	bpl	12143e4 <_Min_Stack_Size+0x1213fe4>
     e64:	31623020 	cmncc	r2, r0, lsr #32
     e68:	00313031 	eorseq	r3, r1, r1, lsr r0
     e6c:	4e495f5f 	mcrmi	15, 2, r5, cr9, cr15, {2}
     e70:	41465f54 	cmpmi	r6, r4, asr pc
     e74:	34365453 	ldrtcc	r5, [r6], #-1107	; 0xfffffbad
     e78:	58414d5f 	stmdapl	r1, {r0, r1, r2, r3, r4, r6, r8, sl, fp, lr}^
     e7c:	30205f5f 	eorcc	r5, r0, pc, asr pc
     e80:	66663778 			; <UNDEFINED> instruction: 0x66663778
     e84:	66666666 	strbtvs	r6, [r6], -r6, ror #12
     e88:	66666666 	strbtvs	r6, [r6], -r6, ror #12
     e8c:	66666666 	strbtvs	r6, [r6], -r6, ror #12
     e90:	004c4c66 	subeq	r4, ip, r6, ror #24
     e94:	4c465f5f 	mcrrmi	15, 5, r5, r6, cr15
     e98:	58323354 	ldmdapl	r2!, {r2, r4, r6, r8, r9, ip, sp}
     e9c:	4345445f 	movtmi	r4, #21599	; 0x545f
     ea0:	4c414d49 	mcrrmi	13, 4, r4, r1, cr9
     ea4:	4749445f 	smlsldmi	r4, r9, pc, r4	; <UNPREDICTABLE>
     ea8:	31205f5f 			; <UNDEFINED> instruction: 0x31205f5f
     eac:	5f5f0037 	svcpl	0x005f0037
     eb0:	5f4c4244 	svcpl	0x004c4244
     eb4:	5f4e494d 	svcpl	0x004e494d
     eb8:	2828205f 	stmdacs	r8!, {r0, r1, r2, r3, r4, r6, sp}
     ebc:	62756f64 	rsbsvs	r6, r5, #100, 30	; 0x190
     ec0:	3229656c 	eorcc	r6, r9, #108, 10	; 0x1b000000
     ec4:	3532322e 	ldrcc	r3, [r2, #-558]!	; 0xfffffdd2
     ec8:	38333730 	ldmdacc	r3!, {r4, r5, r8, r9, sl, ip, sp}
     ecc:	30353835 	eorscc	r3, r5, r5, lsr r8
     ed0:	31303237 	teqcc	r0, r7, lsr r2
     ed4:	332d6534 			; <UNDEFINED> instruction: 0x332d6534
     ed8:	294c3830 	stmdbcs	ip, {r4, r5, fp, ip, sp}^
     edc:	554e4700 	strbpl	r4, [lr, #-1792]	; 0xfffff900
     ee0:	31314320 	teqcc	r1, r0, lsr #6
     ee4:	2e313120 	rsfcssp	f3, f1, f0
     ee8:	20312e33 	eorscs	r2, r1, r3, lsr lr
     eec:	32323032 	eorscc	r3, r2, #50	; 0x32
     ef0:	32313730 	eorscc	r3, r1, #48, 14	; 0xc00000
     ef4:	636d2d20 	cmnvs	sp, #32, 26	; 0x800
     ef8:	633d7570 	teqvs	sp, #112, 10	; 0x1c000000
     efc:	6574726f 	ldrbvs	r7, [r4, #-623]!	; 0xfffffd91
     f00:	336d2d78 	cmncc	sp, #120, 26	; 0x1e00
     f04:	666d2d20 	strbtvs	r2, [sp], -r0, lsr #26
     f08:	74616f6c 	strbtvc	r6, [r1], #-3948	; 0xfffff094
     f0c:	6962612d 	stmdbvs	r2!, {r0, r2, r3, r5, r8, sp, lr}^
     f10:	666f733d 			; <UNDEFINED> instruction: 0x666f733d
     f14:	6d2d2074 	stcvs	0, cr2, [sp, #-464]!	; 0xfffffe30
     f18:	6d756874 	ldclvs	8, cr6, [r5, #-464]!	; 0xfffffe30
     f1c:	6d2d2062 	stcvs	0, cr2, [sp, #-392]!	; 0xfffffe78
     f20:	68637261 	stmdavs	r3!, {r0, r5, r6, r9, ip, sp, lr}^
     f24:	6d72613d 	ldfvse	f6, [r2, #-244]!	; 0xffffff0c
     f28:	6d2d3776 	stcvs	7, cr3, [sp, #-472]!	; 0xfffffe28
     f2c:	64672d20 	strbtvs	r2, [r7], #-3360	; 0xfffff2e0
     f30:	66726177 			; <UNDEFINED> instruction: 0x66726177
     f34:	2d20322d 	sfmcs	f3, 4, [r0, #-180]!	; 0xffffff4c
     f38:	2d203367 	stccs	3, cr3, [r0, #-412]!	; 0xfffffe64
     f3c:	2d20304f 	stccs	0, cr3, [r0, #-316]!	; 0xfffffec4
     f40:	3d647473 	cfstrdcc	mvd7, [r4, #-460]!	; 0xfffffe34
     f44:	31756e67 	cmncc	r5, r7, ror #28
     f48:	662d2031 			; <UNDEFINED> instruction: 0x662d2031
     f4c:	636e7566 	cmnvs	lr, #427819008	; 0x19800000
     f50:	6e6f6974 			; <UNDEFINED> instruction: 0x6e6f6974
     f54:	6365732d 	cmnvs	r5, #-1275068416	; 0xb4000000
     f58:	6e6f6974 			; <UNDEFINED> instruction: 0x6e6f6974
     f5c:	662d2073 			; <UNDEFINED> instruction: 0x662d2073
     f60:	61746164 	cmnvs	r4, r4, ror #2
     f64:	6365732d 	cmnvs	r5, #-1275068416	; 0xb4000000
     f68:	6e6f6974 			; <UNDEFINED> instruction: 0x6e6f6974
     f6c:	662d2073 			; <UNDEFINED> instruction: 0x662d2073
     f70:	63617473 	cmnvs	r1, #1929379840	; 0x73000000
     f74:	73752d6b 	cmnvc	r5, #6848	; 0x1ac0
     f78:	20656761 	rsbcs	r6, r5, r1, ror #14
     f7c:	7963662d 	stmdbvc	r3!, {r0, r2, r3, r5, r9, sl, sp, lr}^
     f80:	6d6f6c63 	stclvs	12, cr6, [pc, #-396]!	; dfc <_Min_Stack_Size+0x9fc>
     f84:	63697461 	cmnvs	r9, #1627389952	; 0x61000000
     f88:	6d6f632d 	stclvs	3, cr6, [pc, #-180]!	; edc <_Min_Stack_Size+0xadc>
     f8c:	78656c70 	stmdavc	r5!, {r4, r5, r6, sl, fp, sp, lr}^
     f90:	00797469 	rsbseq	r7, r9, r9, ror #8
     f94:	61647055 	qdsubvs	r7, r5, r4
     f98:	455f6574 	ldrbmi	r6, [pc, #-1396]	; a2c <_Min_Stack_Size+0x62c>
     f9c:	00495458 	subeq	r5, r9, r8, asr r4
     fa0:	46555f5f 	usaxmi	r5, r5, pc	; <UNPREDICTABLE>
     fa4:	54434152 	strbpl	r4, [r3], #-338	; 0xfffffeae
     fa8:	5350455f 	cmppl	r0, #398458880	; 0x17c00000
     fac:	4e4f4c49 	cdpmi	12, 4, cr4, cr15, cr9, {2}
     fb0:	30205f5f 	eorcc	r5, r0, pc, asr pc
     fb4:	2d503178 	ldfcse	f3, [r0, #-480]	; 0xfffffe20
     fb8:	52553631 	subspl	r3, r5, #51380224	; 0x3100000
     fbc:	415f5f00 	cmpmi	pc, r0, lsl #30
     fc0:	415f4d52 	cmpmi	pc, r2, asr sp	; <UNPREDICTABLE>
     fc4:	5f484352 	svcpl	0x00484352
     fc8:	5f5f4d37 	svcpl	0x005f4d37
     fcc:	5f003120 	svcpl	0x00003120
     fd0:	544e495f 	strbpl	r4, [lr], #-2399	; 0xfffff6a1
     fd4:	5341465f 	movtpl	r4, #5727	; 0x165f
     fd8:	545f3854 	ldrbpl	r3, [pc], #-2132	; fe0 <_Min_Stack_Size+0xbe0>
     fdc:	5f455059 	svcpl	0x00455059
     fe0:	6e69205f 	mcrvs	0, 3, r2, cr9, cr15, {2}
     fe4:	5f5f0074 	svcpl	0x005f0074
     fe8:	5f414455 	svcpl	0x00414455
     fec:	54494246 	strbpl	r4, [r9], #-582	; 0xfffffdba
     ff0:	33205f5f 			; <UNDEFINED> instruction: 0x33205f5f
     ff4:	5f5f0032 	svcpl	0x005f0032
     ff8:	43415355 	movtmi	r5, #4949	; 0x1355
     ffc:	5f4d5543 	svcpl	0x004d5543
    1000:	49535045 	ldmdbmi	r3, {r0, r2, r6, ip, lr}^
    1004:	5f4e4f4c 	svcpl	0x004e4f4c
    1008:	7830205f 	ldmdavc	r0!, {r0, r1, r2, r3, r4, r6, sp}
    100c:	382d5031 	stmdacc	sp!, {r0, r4, r5, ip, lr}
    1010:	004b4855 	subeq	r4, fp, r5, asr r8
    1014:	49555f5f 	ldmdbmi	r5, {r0, r1, r2, r3, r4, r6, r8, r9, sl, fp, ip, lr}^
    1018:	414d544e 	cmpmi	sp, lr, asr #8
    101c:	28435f58 	stmdacs	r3, {r3, r4, r6, r8, r9, sl, fp, ip, lr}^
    1020:	63202963 			; <UNDEFINED> instruction: 0x63202963
    1024:	20232320 	eorcs	r2, r3, r0, lsr #6
    1028:	004c4c55 	subeq	r4, ip, r5, asr ip
    102c:	49535f5f 	ldmdbmi	r3, {r0, r1, r2, r3, r4, r6, r8, r9, sl, fp, ip, lr}^
    1030:	464f455a 			; <UNDEFINED> instruction: 0x464f455a
    1034:	494f505f 	stmdbmi	pc, {r0, r1, r2, r3, r4, r6, ip, lr}^	; <UNPREDICTABLE>
    1038:	5245544e 	subpl	r5, r5, #1308622848	; 0x4e000000
    103c:	34205f5f 	strtcc	r5, [r0], #-3935	; 0xfffff0a1
    1040:	495f5f00 	ldmdbmi	pc, {r8, r9, sl, fp, ip, lr}^	; <UNPREDICTABLE>
    1044:	4c5f544e 	cfldrdmi	mvd5, [pc], {78}	; 0x4e
    1048:	54534145 	ldrbpl	r4, [r3], #-325	; 0xfffffebb
    104c:	59545f38 	ldmdbpl	r4, {r3, r4, r5, r8, r9, sl, fp, ip, lr}^
    1050:	5f5f4550 	svcpl	0x005f4550
    1054:	67697320 	strbvs	r7, [r9, -r0, lsr #6]!
    1058:	2064656e 	rsbcs	r6, r4, lr, ror #10
    105c:	72616863 	rsbvc	r6, r1, #6488064	; 0x630000
    1060:	54584500 	ldrbpl	r4, [r8], #-1280	; 0xfffffb00
    1064:	49505f49 	ldmdbmi	r0, {r0, r3, r6, r8, r9, sl, fp, ip, lr}^
    1068:	494c5f4e 	stmdbmi	ip, {r1, r2, r3, r6, r8, r9, sl, fp, ip, lr}^
    106c:	3231454e 	eorscc	r4, r1, #327155712	; 0x13800000
    1070:	32314250 	eorscc	r4, r1, #80, 4
    1074:	58452820 	stmdapl	r5, {r5, fp, sp}^
    1078:	535f4954 	cmppl	pc, #84, 18	; 0x150000
    107c:	70757465 	rsbsvc	r7, r5, r5, ror #8
    1080:	7b29745f 	blvc	a5e204 <_Min_Stack_Size+0xa5de04>
    1084:	49545845 	ldmdbmi	r4, {r0, r2, r6, fp, ip, lr}^
    1088:	472c3231 			; <UNDEFINED> instruction: 0x472c3231
    108c:	424f4950 	submi	r4, pc, #80, 18	; 0x140000
    1090:	4950472c 	ldmdbmi	r0, {r2, r3, r5, r8, r9, sl, lr}^
    1094:	49505f4f 	ldmdbmi	r0, {r0, r1, r2, r3, r6, r8, r9, sl, fp, ip, lr}^
    1098:	32315f4e 	eorscc	r5, r1, #312	; 0x138
    109c:	4352007d 	cmpmi	r2, #125	; 0x7d
    10a0:	4b425f43 	blmi	1098db4 <_Min_Stack_Size+0x10989b4>
    10a4:	4e455f50 	mcrmi	15, 2, r5, cr5, cr0, {2}
    10a8:	52202928 	eorpl	r2, r0, #40, 18	; 0xa0000
    10ac:	3e2d4343 	cdpcc	3, 2, cr4, cr13, cr3, {2}
    10b0:	31425041 	cmpcc	r2, r1, asr #32
    10b4:	20524e45 	subscs	r4, r2, r5, asr #28
    10b8:	28203d7c 	stmdacs	r0!, {r2, r3, r4, r5, r6, r8, sl, fp, ip, sp}
    10bc:	323c3c31 	eorscc	r3, ip, #12544	; 0x3100
    10c0:	5f002937 	svcpl	0x00002937
    10c4:	4343475f 	movtmi	r4, #14175	; 0x375f
    10c8:	4f54415f 	svcmi	0x0054415f
    10cc:	5f43494d 	svcpl	0x0043494d
    10d0:	4c4f4f42 	mcrrmi	15, 4, r4, pc, cr2
    10d4:	434f4c5f 	movtmi	r4, #64607	; 0xfc5f
    10d8:	52465f4b 	subpl	r5, r6, #300	; 0x12c
    10dc:	32204545 	eorcc	r4, r0, #289406976	; 0x11400000
    10e0:	54584500 	ldrbpl	r4, [r8], #-1280	; 0xfffffb00
    10e4:	49505f49 	ldmdbmi	r0, {r0, r3, r6, r8, r9, sl, fp, ip, lr}^
    10e8:	494c5f4e 	stmdbmi	ip, {r1, r2, r3, r6, r8, r9, sl, fp, ip, lr}^
    10ec:	5034454e 	eorspl	r4, r4, lr, asr #10
    10f0:	28203443 	stmdacs	r0!, {r0, r1, r6, sl, ip, sp}
    10f4:	49545845 	ldmdbmi	r4, {r0, r2, r6, fp, ip, lr}^
    10f8:	7465535f 	strbtvc	r5, [r5], #-863	; 0xfffffca1
    10fc:	745f7075 	ldrbvc	r7, [pc], #-117	; 1104 <_Min_Stack_Size+0xd04>
    1100:	58457b29 	stmdapl	r5, {r0, r3, r5, r8, r9, fp, ip, sp, lr}^
    1104:	2c344954 			; <UNDEFINED> instruction: 0x2c344954
    1108:	4f495047 	svcmi	0x00495047
    110c:	50472c43 	subpl	r2, r7, r3, asr #24
    1110:	505f4f49 	subspl	r4, pc, r9, asr #30
    1114:	345f4e49 	ldrbcc	r4, [pc], #-3657	; 111c <_Min_Stack_Size+0xd1c>
    1118:	5845007d 	stmdapl	r5, {r0, r2, r3, r4, r5, r6}^
    111c:	20394954 	eorscs	r4, r9, r4, asr r9
    1120:	5f5f0039 	svcpl	0x005f0039
    1124:	5f4d5241 	svcpl	0x004d5241
    1128:	4e4f454e 	cdpmi	5, 4, cr4, cr15, cr14, {2}
    112c:	5f005f5f 	svcpl	0x00005f5f
    1130:	544c465f 	strbpl	r4, [ip], #-1631	; 0xfffff9a1
    1134:	4d5f3233 	lfmmi	f3, 2, [pc, #-204]	; 1070 <_Min_Stack_Size+0xc70>
    1138:	455f5841 	ldrbmi	r5, [pc, #-2113]	; 8ff <_Min_Stack_Size+0x4ff>
    113c:	5f5f5058 	svcpl	0x005f5058
    1140:	38323120 	ldmdacc	r2!, {r5, r8, ip, sp}
    1144:	545f5f00 	ldrbpl	r5, [pc], #-3840	; 114c <_Min_Stack_Size+0xd4c>
    1148:	424d5548 	submi	r5, sp, #72, 10	; 0x12000000
    114c:	544e495f 	strbpl	r4, [lr], #-2399	; 0xfffff6a1
    1150:	4f575245 	svcmi	0x00575245
    1154:	5f5f4b52 	svcpl	0x005f4b52
    1158:	5f003120 	svcpl	0x00003120
    115c:	4c4c555f 	cfstr64mi	mvdx5, [ip], {95}	; 0x5f
    1160:	43415246 	movtmi	r5, #4678	; 0x1246
    1164:	414d5f54 	cmpmi	sp, r4, asr pc
    1168:	205f5f58 	subscs	r5, pc, r8, asr pc	; <UNPREDICTABLE>
    116c:	46465830 			; <UNDEFINED> instruction: 0x46465830
    1170:	46464646 	strbmi	r4, [r6], -r6, asr #12
    1174:	46464646 	strbmi	r4, [r6], -r6, asr #12
    1178:	46464646 	strbmi	r4, [r6], -r6, asr #12
    117c:	2d504646 	ldclcs	6, cr4, [r0, #-280]	; 0xfffffee8
    1180:	4c553436 	cfldrdmi	mvd3, [r5], {54}	; 0x36
    1184:	5200524c 	andpl	r5, r0, #76, 4	; 0xc0000004
    1188:	00525354 	subseq	r5, r2, r4, asr r3
    118c:	4e475f5f 	mcrmi	15, 2, r5, cr7, cr15, {2}
    1190:	575f4355 			; <UNDEFINED> instruction: 0x575f4355
    1194:	5f454449 	svcpl	0x00454449
    1198:	43455845 	movtmi	r5, #22597	; 0x5845
    119c:	4f495455 	svcmi	0x00495455
    11a0:	48435f4e 	stmdami	r3, {r1, r2, r3, r6, r8, r9, sl, fp, ip, lr}^
    11a4:	45535241 	ldrbmi	r5, [r3, #-577]	; 0xfffffdbf
    11a8:	414e5f54 	cmpmi	lr, r4, asr pc
    11ac:	2220454d 	eorcs	r4, r0, #322961408	; 0x13400000
    11b0:	2d465455 	cfstrdcs	mvd5, [r6, #-340]	; 0xfffffeac
    11b4:	454c3233 	strbmi	r3, [ip, #-563]	; 0xfffffdcd
    11b8:	5f5f0022 	svcpl	0x005f0022
    11bc:	33544c46 	cmpcc	r4, #17920	; 0x4600
    11c0:	4d5f5832 	ldclmi	8, cr5, [pc, #-200]	; 1100 <_Min_Stack_Size+0xd00>
    11c4:	315f4e49 	cmpcc	pc, r9, asr #28
    11c8:	58455f30 	stmdapl	r5, {r4, r5, r8, r9, sl, fp, ip, lr}^
    11cc:	205f5f50 	subscs	r5, pc, r0, asr pc	; <UNPREDICTABLE>
    11d0:	30332d28 	eorscc	r2, r3, r8, lsr #26
    11d4:	5f002937 	svcpl	0x00002937
    11d8:	4148435f 	cmpmi	r8, pc, asr r3
    11dc:	5f323352 	svcpl	0x00323352
    11e0:	45505954 	ldrbmi	r5, [r0, #-2388]	; 0xfffff6ac
    11e4:	6c205f5f 	stcvs	15, cr5, [r0], #-380	; 0xfffffe84
    11e8:	20676e6f 	rsbcs	r6, r7, pc, ror #28
    11ec:	69736e75 	ldmdbvs	r3!, {r0, r2, r4, r5, r6, r9, sl, fp, sp, lr}^
    11f0:	64656e67 	strbtvs	r6, [r5], #-3687	; 0xfffff199
    11f4:	746e6920 	strbtvc	r6, [lr], #-2336	; 0xfffff6e0
    11f8:	415f5f00 	cmpmi	pc, r0, lsl #30
    11fc:	465f4d52 			; <UNDEFINED> instruction: 0x465f4d52
    1200:	55544145 	ldrbpl	r4, [r4, #-325]	; 0xfffffebb
    1204:	465f4552 			; <UNDEFINED> instruction: 0x465f4552
    1208:	5f363150 	svcpl	0x00363150
    120c:	54434556 	strbpl	r4, [r3], #-1366	; 0xfffffaaa
    1210:	415f524f 	cmpmi	pc, pc, asr #4
    1214:	48544952 	ldmdami	r4, {r1, r4, r6, r8, fp, lr}^
    1218:	4954454d 	ldmdbmi	r4, {r0, r2, r3, r6, r8, sl, lr}^
    121c:	5f5f0043 	svcpl	0x005f0043
    1220:	5f4c4244 	svcpl	0x004c4244
    1224:	495f5349 	ldmdbmi	pc, {r0, r3, r6, r8, r9, ip, lr}^	; <UNPREDICTABLE>
    1228:	365f4345 	ldrbcc	r4, [pc], -r5, asr #6
    122c:	39353530 	ldmdbcc	r5!, {r4, r5, r8, sl, ip, sp}
    1230:	32205f5f 	eorcc	r5, r0, #380	; 0x17c
    1234:	555f5f00 	ldrbpl	r5, [pc, #-3840]	; 33c <_Min_Heap_Size+0x13c>
    1238:	5f544e49 	svcpl	0x00544e49
    123c:	54534146 	ldrbpl	r4, [r3], #-326	; 0xfffffeba
    1240:	4d5f3233 	lfmmi	f3, 2, [pc, #-204]	; 117c <_Min_Stack_Size+0xd7c>
    1244:	5f5f5841 	svcpl	0x005f5841
    1248:	66783020 	ldrbtvs	r3, [r8], -r0, lsr #32
    124c:	66666666 	strbtvs	r6, [r6], -r6, ror #12
    1250:	55666666 	strbpl	r6, [r6, #-1638]!	; 0xfffff99a
    1254:	465f5f00 	ldrbmi	r5, [pc], -r0, lsl #30
    1258:	4d5f544c 	cfldrdmi	mvd5, [pc, #-304]	; 1130 <_Min_Stack_Size+0xd30>
    125c:	455f5841 	ldrbmi	r5, [pc, #-2113]	; a23 <_Min_Stack_Size+0x623>
    1260:	5f5f5058 	svcpl	0x005f5058
    1264:	38323120 	ldmdacc	r2!, {r5, r8, ip, sp}
    1268:	535f5f00 	cmppl	pc, #0, 30
    126c:	4f455a49 	svcmi	0x00455a49
    1270:	4f4c5f46 	svcmi	0x004c5f46
    1274:	5f5f474e 	svcpl	0x005f474e
    1278:	45003420 	strmi	r3, [r0, #-1056]	; 0xfffffbe0
    127c:	20495458 	subcs	r5, r9, r8, asr r4
    1280:	58452828 	stmdapl	r5, {r3, r5, fp, sp}^
    1284:	745f4954 	ldrbvc	r4, [pc], #-2388	; 128c <_Min_Stack_Size+0xe8c>
    1288:	5845292a 	stmdapl	r5, {r1, r3, r5, r8, fp, sp}^
    128c:	425f4954 	subsmi	r4, pc, #84, 18	; 0x150000
    1290:	5f455341 	svcpl	0x00455341
    1294:	45444441 	strbmi	r4, [r4, #-1089]	; 0xfffffbbf
    1298:	53534552 	cmppl	r3, #343932928	; 0x14800000
    129c:	5f5f0029 	svcpl	0x005f0029
    12a0:	455a4953 	ldrbmi	r4, [sl, #-2387]	; 0xfffff6ad
    12a4:	445f464f 	ldrbmi	r4, [pc], #-1615	; 12ac <_Min_Stack_Size+0xeac>
    12a8:	4c42554f 	cfstr64mi	mvdx5, [r2], {79}	; 0x4f
    12ac:	205f5f45 	subscs	r5, pc, r5, asr #30
    12b0:	5f5f0038 	svcpl	0x005f0038
    12b4:	5f544e49 	svcpl	0x00544e49
    12b8:	5341454c 	movtpl	r4, #5452	; 0x154c
    12bc:	5f323354 	svcpl	0x00323354
    12c0:	54444957 	strbpl	r4, [r4], #-2391	; 0xfffff6a9
    12c4:	205f5f48 	subscs	r5, pc, r8, asr #30
    12c8:	5f003233 	svcpl	0x00003233
    12cc:	544c465f 	strbpl	r4, [ip], #-1631	; 0xfffff9a1
    12d0:	5f583233 	svcpl	0x00583233
    12d4:	5f4e494d 	svcpl	0x004e494d
    12d8:	5f505845 	svcpl	0x00505845
    12dc:	2d28205f 	stccs	0, cr2, [r8, #-380]!	; 0xfffffe84
    12e0:	31323031 	teqcc	r2, r1, lsr r0
    12e4:	50470029 	subpl	r0, r7, r9, lsr #32
    12e8:	505f4f49 	subspl	r4, pc, r9, asr #30
    12ec:	375f4e49 	ldrbcc	r4, [pc, -r9, asr #28]
    12f0:	75282820 	strvc	r2, [r8, #-2080]!	; 0xfffff7e0
    12f4:	38746e69 	ldmdacc	r4!, {r0, r3, r5, r6, r9, sl, fp, sp, lr}^
    12f8:	3729745f 			; <UNDEFINED> instruction: 0x3729745f
    12fc:	58450029 	stmdapl	r5, {r0, r3, r5}^
    1300:	505f4954 	subspl	r4, pc, r4, asr r9	; <UNPREDICTABLE>
    1304:	4c5f4e49 	mrrcmi	14, 4, r4, pc, cr9	; <UNPREDICTABLE>
    1308:	32454e49 	subcc	r4, r5, #1168	; 0x490
    130c:	20324450 	eorscs	r4, r2, r0, asr r4
    1310:	54584528 	ldrbpl	r4, [r8], #-1320	; 0xfffffad8
    1314:	65535f49 	ldrbvs	r5, [r3, #-3913]	; 0xfffff0b7
    1318:	5f707574 	svcpl	0x00707574
    131c:	457b2974 	ldrbmi	r2, [fp, #-2420]!	; 0xfffff68c
    1320:	32495458 	subcc	r5, r9, #88, 8	; 0x58000000
    1324:	4950472c 	ldmdbmi	r0, {r2, r3, r5, r8, r9, sl, lr}^
    1328:	472c444f 	strmi	r4, [ip, -pc, asr #8]!
    132c:	5f4f4950 	svcpl	0x004f4950
    1330:	5f4e4950 	svcpl	0x004e4950
    1334:	5f007d32 	svcpl	0x00007d32
    1338:	4154555f 	cmpmi	r4, pc, asr r5
    133c:	4942465f 	stmdbmi	r2, {r0, r1, r2, r3, r4, r6, r9, sl, lr}^
    1340:	205f5f54 	subscs	r5, pc, r4, asr pc	; <UNPREDICTABLE>
    1344:	5f003436 	svcpl	0x00003436
    1348:	544c465f 	strbpl	r4, [ip], #-1631	; 0xfffff9a1
    134c:	4345445f 	movtmi	r4, #21599	; 0x545f
    1350:	4c414d49 	mcrrmi	13, 4, r4, r1, cr9
    1354:	4749445f 	smlsldmi	r4, r9, pc, r4	; <UNPREDICTABLE>
    1358:	39205f5f 	stmdbcc	r0!, {r0, r1, r2, r3, r4, r6, r8, r9, sl, fp, ip, lr}
    135c:	49504700 	ldmdbmi	r0, {r8, r9, sl, lr}^
    1360:	49505f4f 	ldmdbmi	r0, {r0, r1, r2, r3, r6, r8, r9, sl, fp, ip, lr}^
    1364:	20305f4e 	eorscs	r5, r0, lr, asr #30
    1368:	69752828 	ldmdbvs	r5!, {r3, r5, fp, sp}^
    136c:	5f38746e 	svcpl	0x0038746e
    1370:	29302974 	ldmdbcs	r0!, {r2, r4, r5, r6, r8, fp, sp}
    1374:	495f5f00 	ldmdbmi	pc, {r8, r9, sl, fp, ip, lr}^	; <UNPREDICTABLE>
    1378:	4c5f544e 	cfldrdmi	mvd5, [pc], {78}	; 0x4e
    137c:	54534145 	ldrbpl	r4, [r3], #-325	; 0xfffffebb
    1380:	4d5f3233 	lfmmi	f3, 2, [pc, #-204]	; 12bc <_Min_Stack_Size+0xebc>
    1384:	5f5f5841 	svcpl	0x005f5841
    1388:	37783020 	ldrbcc	r3, [r8, -r0, lsr #32]!
    138c:	66666666 	strbtvs	r6, [r6], -r6, ror #12
    1390:	4c666666 	stclmi	6, cr6, [r6], #-408	; 0xfffffe68
    1394:	6e697500 	cdpvs	5, 6, cr7, cr9, cr0, {0}
    1398:	745f3874 	ldrbvc	r3, [pc], #-2164	; 13a0 <_Min_Stack_Size+0xfa0>
    139c:	475f5f00 	ldrbmi	r5, [pc, -r0, lsl #30]
    13a0:	5f43554e 	svcpl	0x0043554e
    13a4:	43445453 	movtmi	r5, #17491	; 0x4453
    13a8:	4c4e495f 	mcrrmi	9, 5, r4, lr, cr15	; <UNPREDICTABLE>
    13ac:	5f454e49 	svcpl	0x00454e49
    13b0:	0031205f 	eorseq	r2, r1, pc, asr r0
    13b4:	5f434352 	svcpl	0x00434352
    13b8:	314d4954 	cmpcc	sp, r4, asr r9
    13bc:	284e455f 	stmdacs	lr, {r0, r1, r2, r3, r4, r6, r8, sl, lr}^
    13c0:	43522029 	cmpmi	r2, #41	; 0x29
    13c4:	413e2d43 	teqmi	lr, r3, asr #26
    13c8:	45324250 	ldrmi	r4, [r2, #-592]!	; 0xfffffdb0
    13cc:	7c20524e 	sfmvc	f5, 4, [r0], #-312	; 0xfffffec8
    13d0:	3128203d 			; <UNDEFINED> instruction: 0x3128203d
    13d4:	31313c3c 	teqcc	r1, ip, lsr ip
    13d8:	53550029 	cmppl	r5, #41	; 0x29
    13dc:	31545241 	cmpcc	r4, r1, asr #4
    13e0:	55282820 	strpl	r2, [r8, #-2080]!	; 0xfffff7e0
    13e4:	54524153 	ldrbpl	r4, [r2], #-339	; 0xfffffead
    13e8:	292a745f 	stmdbcs	sl!, {r0, r1, r2, r3, r4, r6, sl, ip, sp, lr}
    13ec:	52415355 	subpl	r5, r1, #1409286145	; 0x54000001
    13f0:	425f3154 	subsmi	r3, pc, #84, 2
    13f4:	5f455341 	svcpl	0x00455341
    13f8:	45444441 	strbmi	r4, [r4, #-1089]	; 0xfffffbbf
    13fc:	53534552 	cmppl	r3, #343932928	; 0x14800000
    1400:	5f5f0029 	svcpl	0x005f0029
    1404:	43415246 	movtmi	r5, #4678	; 0x1246
    1408:	42465f54 	submi	r5, r6, #84, 30	; 0x150
    140c:	5f5f5449 	svcpl	0x005f5449
    1410:	00353120 	eorseq	r3, r5, r0, lsr #2
    1414:	4c4c5f5f 	mcrrmi	15, 5, r5, ip, cr15
    1418:	55434341 	strbpl	r4, [r3, #-833]	; 0xfffffcbf
    141c:	50455f4d 	subpl	r5, r5, sp, asr #30
    1420:	4f4c4953 	svcmi	0x004c4953
    1424:	205f5f4e 	subscs	r5, pc, lr, asr #30
    1428:	50317830 	eorspl	r7, r1, r0, lsr r8
    142c:	4c31332d 	ldcmi	3, cr3, [r1], #-180	; 0xffffff4c
    1430:	5f004b4c 	svcpl	0x00004b4c
    1434:	554e475f 	strbpl	r4, [lr, #-1887]	; 0xfffff8a1
    1438:	41505f43 	cmpmi	r0, r3, asr #30
    143c:	4c484354 	mcrrmi	3, 5, r4, r8, cr4
    1440:	4c455645 	mcrrmi	6, 4, r5, r5, cr5
    1444:	31205f5f 			; <UNDEFINED> instruction: 0x31205f5f
    1448:	475f5f00 	ldrbmi	r5, [pc, -r0, lsl #30]
    144c:	415f4343 	cmpmi	pc, r3, asr #6
    1450:	494d4f54 	stmdbmi	sp, {r2, r4, r6, r8, r9, sl, fp, lr}^
    1454:	48435f43 	stmdami	r3, {r0, r1, r6, r8, r9, sl, fp, ip, lr}^
    1458:	32335241 	eorscc	r5, r3, #268435460	; 0x10000004
    145c:	4c5f545f 	cfldrdmi	mvd5, [pc], {95}	; 0x5f
    1460:	5f4b434f 	svcpl	0x004b434f
    1464:	45455246 	strbmi	r5, [r5, #-582]	; 0xfffffdba
    1468:	5f003220 	svcpl	0x00003220
    146c:	4e49555f 	mcrmi	5, 2, r5, cr9, cr15, {2}
    1470:	454c5f54 	strbmi	r5, [ip, #-3924]	; 0xfffff0ac
    1474:	31545341 	cmpcc	r4, r1, asr #6
    1478:	414d5f36 	cmpmi	sp, r6, lsr pc
    147c:	205f5f58 	subscs	r5, pc, r8, asr pc	; <UNPREDICTABLE>
    1480:	66667830 			; <UNDEFINED> instruction: 0x66667830
    1484:	5f006666 	svcpl	0x00006666
    1488:	5245565f 	subpl	r5, r5, #99614720	; 0x5f00000
    148c:	4e4f4953 			; <UNDEFINED> instruction: 0x4e4f4953
    1490:	22205f5f 	eorcs	r5, r0, #380	; 0x17c
    1494:	332e3131 			; <UNDEFINED> instruction: 0x332e3131
    1498:	3220312e 	eorcc	r3, r0, #-2147483637	; 0x8000000b
    149c:	30323230 	eorscc	r3, r2, r0, lsr r2
    14a0:	22323137 	eorscs	r3, r2, #-1073741811	; 0xc000000d
    14a4:	415f5f00 	cmpmi	pc, r0, lsl #30
    14a8:	415f4d52 	cmpmi	pc, r2, asr sp	; <UNPREDICTABLE>
    14ac:	5f484352 	svcpl	0x00484352
    14b0:	464f5250 			; <UNDEFINED> instruction: 0x464f5250
    14b4:	20454c49 	subcs	r4, r5, r9, asr #24
    14b8:	52003737 	andpl	r3, r0, #14417920	; 0xdc0000
    14bc:	555f4343 	ldrbpl	r4, [pc, #-835]	; 1181 <_Min_Stack_Size+0xd81>
    14c0:	34545241 	ldrbcc	r5, [r4], #-577	; 0xfffffdbf
    14c4:	284e455f 	stmdacs	lr, {r0, r1, r2, r3, r4, r6, r8, sl, lr}^
    14c8:	43522029 	cmpmi	r2, #41	; 0x29
    14cc:	413e2d43 	teqmi	lr, r3, asr #26
    14d0:	45314250 	ldrmi	r4, [r1, #-592]!	; 0xfffffdb0
    14d4:	7c20524e 	sfmvc	f5, 4, [r0], #-312	; 0xfffffec8
    14d8:	3128203d 			; <UNDEFINED> instruction: 0x3128203d
    14dc:	39313c3c 	ldmdbcc	r1!, {r2, r3, r4, r5, sl, fp, ip, sp}
    14e0:	5f5f0029 	svcpl	0x005f0029
    14e4:	465f5153 			; <UNDEFINED> instruction: 0x465f5153
    14e8:	5f544942 	svcpl	0x00544942
    14ec:	3133205f 	teqcc	r3, pc, asr r0
    14f0:	465f5f00 	ldrbmi	r5, [pc], -r0, lsl #30
    14f4:	3436544c 	ldrtcc	r5, [r6], #-1100	; 0xfffffbb4
    14f8:	58414d5f 	stmdapl	r1, {r0, r1, r2, r3, r4, r6, r8, sl, fp, lr}^
    14fc:	5f30315f 	svcpl	0x0030315f
    1500:	5f505845 	svcpl	0x00505845
    1504:	3033205f 	eorscc	r2, r3, pc, asr r0
    1508:	50470038 	subpl	r0, r7, r8, lsr r0
    150c:	5f444f49 	svcpl	0x00444f49
    1510:	45534142 	ldrbmi	r4, [r3, #-322]	; 0xfffffebe
    1514:	4444415f 	strbmi	r4, [r4], #-351	; 0xfffffea1
    1518:	53455245 	movtpl	r5, #21061	; 0x5245
    151c:	78302053 	ldmdavc	r0!, {r0, r1, r4, r6, sp}
    1520:	31303034 	teqcc	r0, r4, lsr r0
    1524:	30303431 	eorscc	r3, r0, r1, lsr r4
    1528:	52004c55 	andpl	r4, r0, #21760	; 0x5500
    152c:	52455345 	subpl	r5, r5, #335544321	; 0x14000001
    1530:	30444556 	subcc	r4, r4, r6, asr r5
    1534:	43435200 	movtmi	r5, #12800	; 0x3200
    1538:	4153555f 	cmpmi	r3, pc, asr r5
    153c:	5f325452 	svcpl	0x00325452
    1540:	45534552 	ldrbmi	r4, [r3, #-1362]	; 0xfffffaae
    1544:	20292854 	eorcs	r2, r9, r4, asr r8
    1548:	2d434352 	stclcs	3, cr4, [r3, #-328]	; 0xfffffeb8
    154c:	4250413e 	subsmi	r4, r0, #-2147483633	; 0x8000000f
    1550:	54535231 	ldrbpl	r5, [r3], #-561	; 0xfffffdcf
    1554:	3d7c2052 	ldclcc	0, cr2, [ip, #-328]!	; 0xfffffeb8
    1558:	3c312820 	ldccc	8, cr2, [r1], #-128	; 0xffffff80
    155c:	2937313c 	ldmdbcs	r7!, {r2, r3, r4, r5, r8, ip, sp}
    1560:	535f5f00 	cmppl	pc, #0, 30
    1564:	5f434454 	svcpl	0x00434454
    1568:	5f465455 	svcpl	0x00465455
    156c:	5f5f3233 	svcpl	0x005f3233
    1570:	45003120 	strmi	r3, [r0, #-288]	; 0xfffffee0
    1574:	5f495458 	svcpl	0x00495458
    1578:	5f4e4950 	svcpl	0x004e4950
    157c:	454e494c 	strbmi	r4, [lr, #-2380]	; 0xfffff6b4
    1580:	32435032 	subcc	r5, r3, #50	; 0x32
    1584:	58452820 	stmdapl	r5, {r5, fp, sp}^
    1588:	535f4954 	cmppl	pc, #84, 18	; 0x150000
    158c:	70757465 	rsbsvc	r7, r5, r5, ror #8
    1590:	7b29745f 	blvc	a5e714 <_Min_Stack_Size+0xa5e314>
    1594:	49545845 	ldmdbmi	r4, {r0, r2, r6, fp, ip, lr}^
    1598:	50472c32 	subpl	r2, r7, r2, lsr ip
    159c:	2c434f49 	mcrrcs	15, 4, r4, r3, cr9
    15a0:	4f495047 	svcmi	0x00495047
    15a4:	4e49505f 	mcrmi	0, 2, r5, cr9, cr15, {2}
    15a8:	007d325f 	rsbseq	r3, sp, pc, asr r2
    15ac:	4c465f5f 	mcrrmi	15, 5, r5, r6, cr15
    15b0:	58323354 	ldmdapl	r2!, {r2, r4, r6, r8, r9, ip, sp}
    15b4:	4e45445f 	mcrmi	4, 2, r4, cr5, cr15, {2}
    15b8:	5f4d524f 	svcpl	0x004d524f
    15bc:	5f4e494d 	svcpl	0x004e494d
    15c0:	2e34205f 	mrccs	0, 1, r2, cr4, cr15, {2}
    15c4:	36303439 			; <UNDEFINED> instruction: 0x36303439
    15c8:	35343635 	ldrcc	r3, [r4, #-1589]!	; 0xfffff9cb
    15cc:	32313438 	eorscc	r3, r1, #56, 8	; 0x38000000
    15d0:	34353634 	ldrtcc	r3, [r5], #-1588	; 0xfffff9cc
    15d4:	32332d65 	eorscc	r2, r3, #6464	; 0x1940
    15d8:	32334634 	eorscc	r4, r3, #52, 12	; 0x3400000
    15dc:	5f5f0078 	svcpl	0x005f0078
    15e0:	5f544c46 	svcpl	0x00544c46
    15e4:	5f58414d 	svcpl	0x0058414d
    15e8:	455f3031 	ldrbmi	r3, [pc, #-49]	; 15bf <_Min_Stack_Size+0x11bf>
    15ec:	5f5f5058 	svcpl	0x005f5058
    15f0:	00383320 	eorseq	r3, r8, r0, lsr #6
    15f4:	52465f5f 	subpl	r5, r6, #380	; 0x17c
    15f8:	5f544341 	svcpl	0x00544341
    15fc:	5f58414d 	svcpl	0x0058414d
    1600:	5830205f 	ldmdapl	r0!, {r0, r1, r2, r3, r4, r6, sp}
    1604:	46464637 			; <UNDEFINED> instruction: 0x46464637
    1608:	35312d50 	ldrcc	r2, [r1, #-3408]!	; 0xfffff2b0
    160c:	5f5f0052 	svcpl	0x005f0052
    1610:	54524853 	ldrbpl	r4, [r2], #-2131	; 0xfffff7ad
    1614:	4449575f 	strbmi	r5, [r9], #-1887	; 0xfffff8a1
    1618:	5f5f4854 	svcpl	0x005f4854
    161c:	00363120 	eorseq	r3, r6, r0, lsr #2
    1620:	4349564e 	movtmi	r5, #38478	; 0x964e
    1624:	414e455f 	cmpmi	lr, pc, asr r5
    1628:	00454c42 	subeq	r4, r5, r2, asr #24
    162c:	49545845 	ldmdbmi	r4, {r0, r2, r6, fp, ip, lr}^
    1630:	4e49505f 	mcrmi	0, 2, r5, cr9, cr15, {2}
    1634:	4e494c5f 	mcrmi	12, 2, r4, cr9, cr15, {2}
    1638:	42503645 	subsmi	r3, r0, #72351744	; 0x4500000
    163c:	45282036 	strmi	r2, [r8, #-54]!	; 0xffffffca
    1640:	5f495458 	svcpl	0x00495458
    1644:	75746553 	ldrbvc	r6, [r4, #-1363]!	; 0xfffffaad
    1648:	29745f70 	ldmdbcs	r4!, {r4, r5, r6, r8, r9, sl, fp, ip, lr}^
    164c:	5458457b 	ldrbpl	r4, [r8], #-1403	; 0xfffffa85
    1650:	472c3649 	strmi	r3, [ip, -r9, asr #12]!
    1654:	424f4950 	submi	r4, pc, #80, 18	; 0x140000
    1658:	4950472c 	ldmdbmi	r0, {r2, r3, r5, r8, r9, sl, lr}^
    165c:	49505f4f 	ldmdbmi	r0, {r0, r1, r2, r3, r6, r8, r9, sl, fp, ip, lr}^
    1660:	7d365f4e 	ldcvc	15, cr5, [r6, #-312]!	; 0xfffffec8
    1664:	495f5f00 	ldmdbmi	pc, {r8, r9, sl, fp, ip, lr}^	; <UNPREDICTABLE>
    1668:	465f544e 	ldrbmi	r5, [pc], -lr, asr #8
    166c:	33545341 	cmpcc	r4, #67108865	; 0x4000001
    1670:	414d5f32 	cmpmi	sp, r2, lsr pc
    1674:	205f5f58 	subscs	r5, pc, r8, asr pc	; <UNPREDICTABLE>
    1678:	66377830 			; <UNDEFINED> instruction: 0x66377830
    167c:	66666666 	strbtvs	r6, [r6], -r6, ror #12
    1680:	5f006666 	svcpl	0x00006666
    1684:	4f54415f 	svcmi	0x0054415f
    1688:	5f43494d 	svcpl	0x0043494d
    168c:	5f514553 	svcpl	0x00514553
    1690:	20545343 	subscs	r5, r4, r3, asr #6
    1694:	50470035 	subpl	r0, r7, r5, lsr r0
    1698:	505f4f49 	subspl	r4, pc, r9, asr #30
    169c:	5f54524f 	svcpl	0x0054524f
    16a0:	45444f4d 	strbmi	r4, [r4, #-3917]	; 0xfffff0b3
    16a4:	504e495f 	subpl	r4, lr, pc, asr r9
    16a8:	465f5455 			; <UNDEFINED> instruction: 0x465f5455
    16ac:	54414f4c 	strbpl	r4, [r1], #-3916	; 0xfffff0b4
    16b0:	20474e49 	subcs	r4, r7, r9, asr #28
    16b4:	34347830 	ldrtcc	r7, [r4], #-2096	; 0xfffff7d0
    16b8:	34343434 	ldrtcc	r3, [r4], #-1076	; 0xfffffbcc
    16bc:	4e003434 	cfmvdhrmi	mvd0, r3
    16c0:	5f434956 	svcpl	0x00434956
    16c4:	52454349 	subpl	r4, r5, #603979777	; 0x24000001
    16c8:	282a2031 	stmdacs	sl!, {r0, r4, r5, sp}
    16cc:	6e697576 	mcrvs	5, 3, r7, cr9, cr6, {3}
    16d0:	5f323374 	svcpl	0x00323374
    16d4:	28292a74 	stmdacs	r9!, {r2, r4, r5, r6, r9, fp, sp}
    16d8:	4349564e 	movtmi	r5, #38478	; 0x964e
    16dc:	5341425f 	movtpl	r4, #4703	; 0x125f
    16e0:	44415f45 	strbmi	r5, [r1], #-3909	; 0xfffff0bb
    16e4:	45524544 	ldrbmi	r4, [r2, #-1348]	; 0xfffffabc
    16e8:	302b5353 	eorcc	r5, fp, r3, asr r3
    16ec:	34383078 	ldrtcc	r3, [r8], #-120	; 0xffffff88
    16f0:	53550029 	cmppl	r5, #41	; 0x29
    16f4:	33545241 	cmpcc	r4, #268435460	; 0x10000004
    16f8:	5341425f 	movtpl	r4, #4703	; 0x125f
    16fc:	44415f45 	strbmi	r5, [r1], #-3909	; 0xfffff0bb
    1700:	45524544 	ldrbmi	r4, [r2, #-1348]	; 0xfffffabc
    1704:	30205353 	eorcc	r5, r0, r3, asr r3
    1708:	30303478 	eorscc	r3, r0, r8, ror r4
    170c:	30383431 	eorscc	r3, r8, r1, lsr r4
    1710:	004c5530 	subeq	r5, ip, r0, lsr r5
    1714:	51545f5f 	cmppl	r4, pc, asr pc
    1718:	4942465f 	stmdbmi	r2, {r0, r1, r2, r3, r4, r6, r9, sl, lr}^
    171c:	205f5f54 	subscs	r5, pc, r4, asr pc	; <UNPREDICTABLE>
    1720:	00373231 	eorseq	r3, r7, r1, lsr r2
    1724:	444c5f5f 	strbmi	r5, [ip], #-3935	; 0xfffff0a1
    1728:	4d5f4c42 	ldclmi	12, cr4, [pc, #-264]	; 1628 <_Min_Stack_Size+0x1228>
    172c:	455f5841 	ldrbmi	r5, [pc, #-2113]	; ef3 <_Min_Stack_Size+0xaf3>
    1730:	5f5f5058 	svcpl	0x005f5058
    1734:	32303120 	eorscc	r3, r0, #32, 2
    1738:	58450034 	stmdapl	r5, {r2, r4, r5}^
    173c:	505f4954 	subspl	r4, pc, r4, asr r9	; <UNPREDICTABLE>
    1740:	4c5f4e49 	mrrcmi	14, 4, r4, pc, cr9	; <UNPREDICTABLE>
    1744:	31454e49 	cmpcc	r5, r9, asr #28
    1748:	31415033 	cmpcc	r1, r3, lsr r0
    174c:	45282033 	strmi	r2, [r8, #-51]!	; 0xffffffcd
    1750:	5f495458 	svcpl	0x00495458
    1754:	75746553 	ldrbvc	r6, [r4, #-1363]!	; 0xfffffaad
    1758:	29745f70 	ldmdbcs	r4!, {r4, r5, r6, r8, r9, sl, fp, ip, lr}^
    175c:	5458457b 	ldrbpl	r4, [r8], #-1403	; 0xfffffa85
    1760:	2c333149 	ldfcss	f3, [r3], #-292	; 0xfffffedc
    1764:	4f495047 	svcmi	0x00495047
    1768:	50472c41 	subpl	r2, r7, r1, asr #24
    176c:	505f4f49 	subspl	r4, pc, r9, asr #30
    1770:	315f4e49 	cmpcc	pc, r9, asr #28
    1774:	5f007d33 	svcpl	0x00007d33
    1778:	5a49535f 	bpl	12564fc <_Min_Stack_Size+0x12560fc>
    177c:	5f464f45 	svcpl	0x00464f45
    1780:	524f4853 	subpl	r4, pc, #5439488	; 0x530000
    1784:	205f5f54 	subscs	r5, pc, r4, asr pc	; <UNPREDICTABLE>
    1788:	5f5f0032 	svcpl	0x005f0032
    178c:	414c4c55 	cmpmi	ip, r5, asr ip
    1790:	4d554343 	ldclmi	3, cr4, [r5, #-268]	; 0xfffffef4
    1794:	4942465f 	stmdbmi	r2, {r0, r1, r2, r3, r4, r6, r9, sl, lr}^
    1798:	205f5f54 	subscs	r5, pc, r4, asr pc	; <UNPREDICTABLE>
    179c:	45003233 	strmi	r3, [r0, #-563]	; 0xfffffdcd
    17a0:	5f495458 	svcpl	0x00495458
    17a4:	5f4e4950 	svcpl	0x004e4950
    17a8:	454e494c 	strbmi	r4, [lr, #-2380]	; 0xfffff6b4
    17ac:	32415032 	subcc	r5, r1, #50	; 0x32
    17b0:	58452820 	stmdapl	r5, {r5, fp, sp}^
    17b4:	535f4954 	cmppl	pc, #84, 18	; 0x150000
    17b8:	70757465 	rsbsvc	r7, r5, r5, ror #8
    17bc:	7b29745f 	blvc	a5e940 <_Min_Stack_Size+0xa5e540>
    17c0:	49545845 	ldmdbmi	r4, {r0, r2, r6, fp, ip, lr}^
    17c4:	50472c32 	subpl	r2, r7, r2, lsr ip
    17c8:	2c414f49 	mcrrcs	15, 4, r4, r1, cr9
    17cc:	4f495047 	svcmi	0x00495047
    17d0:	4e49505f 	mcrmi	0, 2, r5, cr9, cr15, {2}
    17d4:	007d325f 	rsbseq	r3, sp, pc, asr r2
    17d8:	6f6f425f 	svcvs	0x006f425f
    17dc:	4352006c 	cmpmi	r2, #108	; 0x6c
    17e0:	50475f43 	subpl	r5, r7, r3, asr #30
    17e4:	5f434f49 	svcpl	0x00434f49
    17e8:	29284e45 	stmdbcs	r8!, {r0, r2, r6, r9, sl, fp, lr}
    17ec:	43435220 	movtmi	r5, #12832	; 0x3220
    17f0:	50413e2d 	subpl	r3, r1, sp, lsr #28
    17f4:	4e453242 	cdpmi	2, 4, cr3, cr5, cr2, {2}
    17f8:	3d7c2052 	ldclcc	0, cr2, [ip, #-328]!	; 0xfffffeb8
    17fc:	3c312820 	ldccc	8, cr2, [r1], #-128	; 0xffffff80
    1800:	0029343c 	eoreq	r3, r9, ip, lsr r4
    1804:	4f494641 	svcmi	0x00494641
    1808:	5341425f 	movtpl	r4, #4703	; 0x125f
    180c:	44415f45 	strbmi	r5, [r1], #-3909	; 0xfffff0bb
    1810:	45524544 	ldrbmi	r4, [r2, #-1348]	; 0xfffffabc
    1814:	30205353 	eorcc	r5, r0, r3, asr r3
    1818:	30303478 	eorscc	r3, r0, r8, ror r4
    181c:	30303031 	eorscc	r3, r0, r1, lsr r0
    1820:	004c5530 	subeq	r5, ip, r0, lsr r5
    1824:	414c5f5f 	cmpmi	ip, pc, asr pc
    1828:	4d554343 	ldclmi	3, cr4, [r5, #-268]	; 0xfffffef4
    182c:	5350455f 	cmppl	r0, #398458880	; 0x17c00000
    1830:	4e4f4c49 	cdpmi	12, 4, cr4, cr15, cr9, {2}
    1834:	30205f5f 	eorcc	r5, r0, pc, asr pc
    1838:	2d503178 	ldfcse	f3, [r0, #-480]	; 0xfffffe20
    183c:	4b4c3133 	blmi	130dd10 <_Min_Stack_Size+0x130d910>
    1840:	54584500 	ldrbpl	r4, [r8], #-1280	; 0xfffffb00
    1844:	49505f49 	ldmdbmi	r0, {r0, r3, r6, r8, r9, sl, fp, ip, lr}^
    1848:	494c5f4e 	stmdbmi	ip, {r1, r2, r3, r6, r8, r9, sl, fp, ip, lr}^
    184c:	5030454e 	eorspl	r4, r0, lr, asr #10
    1850:	28203044 	stmdacs	r0!, {r2, r6, ip, sp}
    1854:	49545845 	ldmdbmi	r4, {r0, r2, r6, fp, ip, lr}^
    1858:	7465535f 	strbtvc	r5, [r5], #-863	; 0xfffffca1
    185c:	745f7075 	ldrbvc	r7, [pc], #-117	; 1864 <_Min_Stack_Size+0x1464>
    1860:	58457b29 	stmdapl	r5, {r0, r3, r5, r8, r9, fp, ip, sp, lr}^
    1864:	2c304954 			; <UNDEFINED> instruction: 0x2c304954
    1868:	4f495047 	svcmi	0x00495047
    186c:	50472c44 	subpl	r2, r7, r4, asr #24
    1870:	505f4f49 	subspl	r4, pc, r9, asr #30
    1874:	305f4e49 	subscc	r4, pc, r9, asr #28
    1878:	5f5f007d 	svcpl	0x005f007d
    187c:	5f4c4244 	svcpl	0x004c4244
    1880:	49434544 	stmdbmi	r3, {r2, r6, r8, sl, lr}^
    1884:	5f4c414d 	svcpl	0x004c414d
    1888:	5f474944 	svcpl	0x00474944
    188c:	3731205f 			; <UNDEFINED> instruction: 0x3731205f
    1890:	41434d00 	cmpmi	r3, r0, lsl #26
    1894:	50475f4c 	subpl	r5, r7, ip, asr #30
    1898:	535f4f49 	cmppl	pc, #292	; 0x124
    189c:	69507465 	ldmdbvs	r0, {r0, r2, r5, r6, sl, ip, sp, lr}^
    18a0:	646f4d6e 	strbtvs	r4, [pc], #-3438	; 18a8 <_Min_Stack_Size+0x14a8>
    18a4:	5f5f0065 	svcpl	0x005f0065
    18a8:	47415250 	smlsldmi	r5, r1, r0, r2
    18ac:	525f414d 	subspl	r4, pc, #1073741843	; 0x40000013
    18b0:	46454445 	strbmi	r4, [r5], -r5, asr #8
    18b4:	5f454e49 	svcpl	0x00454e49
    18b8:	4e545845 	cdpmi	8, 5, cr5, cr4, cr5, {2}
    18bc:	20454d41 	subcs	r4, r5, r1, asr #26
    18c0:	5f5f0031 	svcpl	0x005f0031
    18c4:	41484357 	cmpmi	r8, r7, asr r3
    18c8:	59545f52 	ldmdbpl	r4, {r1, r4, r6, r8, r9, sl, fp, ip, lr}^
    18cc:	5f5f4550 	svcpl	0x005f4550
    18d0:	736e7520 	cmnvc	lr, #32, 10	; 0x8000000
    18d4:	656e6769 	strbvs	r6, [lr, #-1897]!	; 0xfffff897
    18d8:	6e692064 	cdpvs	0, 6, cr2, cr9, cr4, {3}
    18dc:	58450074 	stmdapl	r5, {r2, r4, r5, r6}^
    18e0:	5f344954 	svcpl	0x00344954
    18e4:	48515249 	ldmdami	r1, {r0, r3, r6, r9, ip, lr}^
    18e8:	6c646e61 	stclvs	14, cr6, [r4], #-388	; 0xfffffe7c
    18ec:	47007265 	strmi	r7, [r0, -r5, ror #4]
    18f0:	5f4f4950 	svcpl	0x004f4950
    18f4:	534e4950 	movtpl	r4, #59728	; 0xe950
    18f8:	45544154 	ldrbmi	r4, [r4, #-340]	; 0xfffffeac
    18fc:	574f4c5f 	smlsldpl	r4, pc, pc, ip	; <UNPREDICTABLE>
    1900:	47003020 	strmi	r3, [r0, -r0, lsr #32]
    1904:	5f4f4950 	svcpl	0x004f4950
    1908:	5f4e4950 	svcpl	0x004e4950
    190c:	45444f4d 	strbmi	r4, [r4, #-3917]	; 0xfffff0b3
    1910:	544c415f 	strbpl	r4, [ip], #-351	; 0xfffffea1
    1914:	414e5245 	cmpmi	lr, r5, asr #4
    1918:	505f4554 	subspl	r4, pc, r4, asr r5	; <UNPREDICTABLE>
    191c:	5f485355 	svcpl	0x00485355
    1920:	4c4c5550 	cfstr64mi	mvdx5, [ip], {80}	; 0x50
    1924:	5f30315f 	svcpl	0x0030315f
    1928:	205a484d 	subscs	r4, sl, sp, asr #16
    192c:	30316230 	eorscc	r6, r1, r0, lsr r2
    1930:	45003130 	strmi	r3, [r0, #-304]	; 0xfffffed0
    1934:	5f495458 	svcpl	0x00495458
    1938:	666e6f43 	strbtvs	r6, [lr], -r3, asr #30
    193c:	47006769 	strmi	r6, [r0, -r9, ror #14]
    1940:	5f4f4950 	svcpl	0x004f4950
    1944:	5f4e4950 	svcpl	0x004e4950
    1948:	45444f4d 	strbmi	r4, [r4, #-3917]	; 0xfffff0b3
    194c:	544c415f 	strbpl	r4, [ip], #-351	; 0xfffffea1
    1950:	414e5245 	cmpmi	lr, r5, asr #4
    1954:	4f5f4554 	svcmi	0x005f4554
    1958:	5f4e4550 	svcpl	0x004e4550
    195c:	49415244 	stmdbmi	r1, {r2, r6, r9, ip, lr}^
    1960:	5f325f4e 	svcpl	0x00325f4e
    1964:	205a484d 	subscs	r4, sl, sp, asr #16
    1968:	31316230 	teqcc	r1, r0, lsr r2
    196c:	45003031 	strmi	r3, [r0, #-49]	; 0xffffffcf
    1970:	5f495458 	svcpl	0x00495458
    1974:	5f4e4950 	svcpl	0x004e4950
    1978:	454e494c 	strbmi	r4, [lr, #-2380]	; 0xfffff6b4
    197c:	43503031 	cmpmi	r0, #49	; 0x31
    1980:	28203031 	stmdacs	r0!, {r0, r4, r5, ip, sp}
    1984:	49545845 	ldmdbmi	r4, {r0, r2, r6, fp, ip, lr}^
    1988:	7465535f 	strbtvc	r5, [r5], #-863	; 0xfffffca1
    198c:	745f7075 	ldrbvc	r7, [pc], #-117	; 1994 <_Min_Stack_Size+0x1594>
    1990:	58457b29 	stmdapl	r5, {r0, r3, r5, r8, r9, fp, ip, sp, lr}^
    1994:	30314954 	eorscc	r4, r1, r4, asr r9
    1998:	4950472c 	ldmdbmi	r0, {r2, r3, r5, r8, r9, sl, lr}^
    199c:	472c434f 	strmi	r4, [ip, -pc, asr #6]!
    19a0:	5f4f4950 	svcpl	0x004f4950
    19a4:	5f4e4950 	svcpl	0x004e4950
    19a8:	007d3031 	rsbseq	r3, sp, r1, lsr r0
    19ac:	46535f5f 	usaxmi	r5, r3, pc	; <UNPREDICTABLE>
    19b0:	54434152 	strbpl	r4, [r3], #-338	; 0xfffffeae
    19b4:	58414d5f 	stmdapl	r1, {r0, r1, r2, r3, r4, r6, r8, sl, fp, lr}^
    19b8:	30205f5f 	eorcc	r5, r0, pc, asr pc
    19bc:	50463758 	subpl	r3, r6, r8, asr r7
    19c0:	5248372d 	subpl	r3, r8, #11796480	; 0xb40000
    19c4:	54584500 	ldrbpl	r4, [r8], #-1280	; 0xfffffb00
    19c8:	49505f49 	ldmdbmi	r0, {r0, r3, r6, r8, r9, sl, fp, ip, lr}^
    19cc:	494c5f4e 	stmdbmi	ip, {r1, r2, r3, r6, r8, r9, sl, fp, ip, lr}^
    19d0:	5031454e 	eorspl	r4, r1, lr, asr #10
    19d4:	28203142 	stmdacs	r0!, {r1, r6, r8, ip, sp}
    19d8:	49545845 	ldmdbmi	r4, {r0, r2, r6, fp, ip, lr}^
    19dc:	7465535f 	strbtvc	r5, [r5], #-863	; 0xfffffca1
    19e0:	745f7075 	ldrbvc	r7, [pc], #-117	; 19e8 <_Min_Stack_Size+0x15e8>
    19e4:	58457b29 	stmdapl	r5, {r0, r3, r5, r8, r9, fp, ip, sp, lr}^
    19e8:	2c314954 			; <UNDEFINED> instruction: 0x2c314954
    19ec:	4f495047 	svcmi	0x00495047
    19f0:	50472c42 	subpl	r2, r7, r2, asr #24
    19f4:	505f4f49 	subspl	r4, pc, r9, asr #30
    19f8:	315f4e49 	cmpcc	pc, r9, asr #28
    19fc:	564e007d 			; <UNDEFINED> instruction: 0x564e007d
    1a00:	425f4349 	subsmi	r4, pc, #603979777	; 0x24000001
    1a04:	5f455341 	svcpl	0x00455341
    1a08:	45444441 	strbmi	r4, [r4, #-1089]	; 0xfffffbbf
    1a0c:	53534552 	cmppl	r3, #343932928	; 0x14800000
    1a10:	78302820 	ldmdavc	r0!, {r5, fp, sp}
    1a14:	30303045 	eorscc	r3, r0, r5, asr #32
    1a18:	30303145 	eorscc	r3, r0, r5, asr #2
    1a1c:	00294c55 	eoreq	r4, r9, r5, asr ip
    1a20:	5f434352 	svcpl	0x00434352
    1a24:	314d4954 	cmpcc	sp, r4, asr r9
    1a28:	4e455f31 	mcrmi	15, 2, r5, cr5, cr1, {1}
    1a2c:	52202928 	eorpl	r2, r0, #40, 18	; 0xa0000
    1a30:	3e2d4343 	cdpcc	3, 2, cr4, cr13, cr3, {2}
    1a34:	32425041 	subcc	r5, r2, #65	; 0x41
    1a38:	20524e45 	subscs	r4, r2, r5, asr #28
    1a3c:	28203d7c 	stmdacs	r0!, {r2, r3, r4, r5, r6, r8, sl, fp, ip, sp}
    1a40:	323c3c31 	eorscc	r3, ip, #12544	; 0x3100
    1a44:	5f002931 	svcpl	0x00002931
    1a48:	544c465f 	strbpl	r4, [ip], #-1631	; 0xfffff9a1
    1a4c:	4e494d5f 	mcrmi	13, 2, r4, cr9, cr15, {2}
    1a50:	31205f5f 			; <UNDEFINED> instruction: 0x31205f5f
    1a54:	3537312e 	ldrcc	r3, [r7, #-302]!	; 0xfffffed2
    1a58:	33343934 	teqcc	r4, #52, 18	; 0xd0000
    1a5c:	32383035 	eorscc	r3, r8, #53	; 0x35
    1a60:	37383232 			; <UNDEFINED> instruction: 0x37383232
    1a64:	332d6535 			; <UNDEFINED> instruction: 0x332d6535
    1a68:	5f004638 	svcpl	0x00004638
    1a6c:	5f41485f 	svcpl	0x0041485f
    1a70:	54494246 	strbpl	r4, [r9], #-582	; 0xfffffdba
    1a74:	37205f5f 			; <UNDEFINED> instruction: 0x37205f5f
    1a78:	465f5f00 	ldrbmi	r5, [pc], -r0, lsl #30
    1a7c:	43495044 	movtmi	r5, #36932	; 0x9044
    1a80:	5f005f5f 	svcpl	0x00005f5f
    1a84:	544c465f 	strbpl	r4, [ip], #-1631	; 0xfffff9a1
    1a88:	58414d5f 	stmdapl	r1, {r0, r1, r2, r3, r4, r6, r8, sl, fp, lr}^
    1a8c:	33205f5f 			; <UNDEFINED> instruction: 0x33205f5f
    1a90:	3230342e 	eorscc	r3, r0, #771751936	; 0x2e000000
    1a94:	34333238 	ldrtcc	r3, [r3], #-568	; 0xfffffdc8
    1a98:	38333636 	ldmdacc	r3!, {r1, r2, r4, r5, r9, sl, ip, sp}
    1a9c:	38383235 	ldmdacc	r8!, {r0, r2, r4, r5, r9, ip, sp}
    1aa0:	332b6536 			; <UNDEFINED> instruction: 0x332b6536
    1aa4:	5f004638 	svcpl	0x00004638
    1aa8:	544c465f 	strbpl	r4, [ip], #-1631	; 0xfffff9a1
    1aac:	495f3233 	ldmdbmi	pc, {r0, r1, r4, r5, r9, ip, sp}^	; <UNPREDICTABLE>
    1ab0:	45495f53 	strbmi	r5, [r9, #-3923]	; 0xfffff0ad
    1ab4:	30365f43 	eorscc	r5, r6, r3, asr #30
    1ab8:	5f393535 	svcpl	0x00393535
    1abc:	0032205f 	eorseq	r2, r2, pc, asr r0
    1ac0:	43415f5f 	movtmi	r5, #8031	; 0x1f5f
    1ac4:	5f4d5543 	svcpl	0x004d5543
    1ac8:	54494246 	strbpl	r4, [r9], #-582	; 0xfffffdba
    1acc:	31205f5f 			; <UNDEFINED> instruction: 0x31205f5f
    1ad0:	46410035 			; <UNDEFINED> instruction: 0x46410035
    1ad4:	745f4f49 	ldrbvc	r4, [pc], #-3913	; 1adc <_Min_Stack_Size+0x16dc>
    1ad8:	555f5f00 	ldrbpl	r5, [pc, #-3840]	; be0 <_Min_Stack_Size+0x7e0>
    1adc:	41524653 	cmpmi	r2, r3, asr r6
    1ae0:	495f5443 	ldmdbmi	pc, {r0, r1, r6, sl, ip, lr}^	; <UNPREDICTABLE>
    1ae4:	5f544942 	svcpl	0x00544942
    1ae8:	0030205f 	eorseq	r2, r0, pc, asr r0
    1aec:	4f495047 	svcmi	0x00495047
    1af0:	41425f45 	cmpmi	r2, r5, asr #30
    1af4:	415f4553 	cmpmi	pc, r3, asr r5	; <UNPREDICTABLE>
    1af8:	52454444 	subpl	r4, r5, #68, 8	; 0x44000000
    1afc:	20535345 	subscs	r5, r3, r5, asr #6
    1b00:	30347830 	eorscc	r7, r4, r0, lsr r8
    1b04:	38313130 	ldmdacc	r1!, {r4, r5, r8, ip, sp}
    1b08:	4c553030 	mrrcmi	0, 3, r3, r5, cr0
    1b0c:	49504700 	ldmdbmi	r0, {r8, r9, sl, lr}^
    1b10:	49505f4f 	ldmdbmi	r0, {r0, r1, r2, r3, r6, r8, r9, sl, fp, ip, lr}^
    1b14:	32315f4e 	eorscc	r5, r1, #312	; 0x138
    1b18:	75282820 	strvc	r2, [r8, #-2080]!	; 0xfffff7e0
    1b1c:	38746e69 	ldmdacc	r4!, {r0, r3, r5, r6, r9, sl, fp, sp, lr}^
    1b20:	3129745f 			; <UNDEFINED> instruction: 0x3129745f
    1b24:	45002932 	strmi	r2, [r0, #-2354]	; 0xfffff6ce
    1b28:	5f495458 	svcpl	0x00495458
    1b2c:	5f4e4950 	svcpl	0x004e4950
    1b30:	454e494c 	strbmi	r4, [lr, #-2380]	; 0xfffff6b4
    1b34:	43503131 	cmpmi	r0, #1073741836	; 0x4000000c
    1b38:	28203131 	stmdacs	r0!, {r0, r4, r5, r8, ip, sp}
    1b3c:	49545845 	ldmdbmi	r4, {r0, r2, r6, fp, ip, lr}^
    1b40:	7465535f 	strbtvc	r5, [r5], #-863	; 0xfffffca1
    1b44:	745f7075 	ldrbvc	r7, [pc], #-117	; 1b4c <_Min_Stack_Size+0x174c>
    1b48:	58457b29 	stmdapl	r5, {r0, r3, r5, r8, r9, fp, ip, sp, lr}^
    1b4c:	31314954 	teqcc	r1, r4, asr r9
    1b50:	4950472c 	ldmdbmi	r0, {r2, r3, r5, r8, r9, sl, lr}^
    1b54:	472c434f 	strmi	r4, [ip, -pc, asr #6]!
    1b58:	5f4f4950 	svcpl	0x004f4950
    1b5c:	5f4e4950 	svcpl	0x004e4950
    1b60:	007d3131 	rsbseq	r3, sp, r1, lsr r1
    1b64:	53555f5f 	cmppl	r5, #380	; 0x17c
    1b68:	43415246 	movtmi	r5, #4678	; 0x1246
    1b6c:	494d5f54 	stmdbmi	sp, {r2, r4, r6, r8, r9, sl, fp, ip, lr}^
    1b70:	205f5f4e 	subscs	r5, pc, lr, asr #30
    1b74:	55302e30 	ldrpl	r2, [r0, #-3632]!	; 0xfffff1d0
    1b78:	5f005248 	svcpl	0x00005248
    1b7c:	4d52415f 	ldfmie	f4, [r2, #-380]	; 0xfffffe84
    1b80:	4f454e5f 	svcmi	0x00454e5f
    1b84:	5f5f004e 	svcpl	0x005f004e
    1b88:	544e4955 	strbpl	r4, [lr], #-2389	; 0xfffff6ab
    1b8c:	414d5f38 	cmpmi	sp, r8, lsr pc
    1b90:	205f5f58 	subscs	r5, pc, r8, asr pc	; <UNPREDICTABLE>
    1b94:	66667830 			; <UNDEFINED> instruction: 0x66667830
    1b98:	49504700 	ldmdbmi	r0, {r8, r9, sl, lr}^
    1b9c:	49505f4f 	ldmdbmi	r0, {r0, r1, r2, r3, r6, r8, r9, sl, fp, ip, lr}^
    1ba0:	20335f4e 	eorscs	r5, r3, lr, asr #30
    1ba4:	69752828 	ldmdbvs	r5!, {r3, r5, fp, sp}^
    1ba8:	5f38746e 	svcpl	0x0038746e
    1bac:	29332974 	ldmdbcs	r3!, {r2, r4, r5, r6, r8, fp, sp}
    1bb0:	54584500 	ldrbpl	r4, [r8], #-1280	; 0xfffffb00
    1bb4:	69505f49 	ldmdbvs	r0, {r0, r3, r6, r8, r9, sl, fp, ip, lr}^
    1bb8:	6e6f436e 	cdpvs	3, 6, cr4, cr15, cr14, {3}
    1bbc:	5f676966 	svcpl	0x00676966
    1bc0:	52540074 	subspl	r0, r4, #116	; 0x74
    1bc4:	28204555 	stmdacs	r0!, {r0, r2, r4, r6, r8, sl, lr}
    1bc8:	6f6f6228 	svcvs	0x006f6228
    1bcc:	6e61656c 	cdpvs	5, 6, cr6, cr1, cr12, {3}
    1bd0:	00293129 	eoreq	r3, r9, r9, lsr #2
    1bd4:	42445f5f 	submi	r5, r4, #380	; 0x17c
    1bd8:	41485f4c 	cmpmi	r8, ip, asr #30
    1bdc:	45445f53 	strbmi	r5, [r4, #-3923]	; 0xfffff0ad
    1be0:	4d524f4e 	ldclmi	15, cr4, [r2, #-312]	; 0xfffffec8
    1be4:	31205f5f 			; <UNDEFINED> instruction: 0x31205f5f
    1be8:	43435200 	movtmi	r5, #12800	; 0x3200
    1bec:	4341445f 	movtmi	r4, #5215	; 0x145f
    1bf0:	284e455f 	stmdacs	lr, {r0, r1, r2, r3, r4, r6, r8, sl, lr}^
    1bf4:	43522029 	cmpmi	r2, #41	; 0x29
    1bf8:	413e2d43 	teqmi	lr, r3, asr #26
    1bfc:	45314250 	ldrmi	r4, [r1, #-592]!	; 0xfffffdb0
    1c00:	7c20524e 	sfmvc	f5, 4, [r0], #-312	; 0xfffffec8
    1c04:	3128203d 			; <UNDEFINED> instruction: 0x3128203d
    1c08:	39323c3c 	ldmdbcc	r2!, {r2, r3, r4, r5, sl, fp, ip, sp}
    1c0c:	46410029 	strbmi	r0, [r1], -r9, lsr #32
    1c10:	28204f49 	stmdacs	r0!, {r0, r3, r6, r8, r9, sl, fp, lr}
    1c14:	49464128 	stmdbmi	r6, {r3, r5, r8, lr}^
    1c18:	2a745f4f 	bcs	1d1995c <_Min_Stack_Size+0x1d1955c>
    1c1c:	49464129 	stmdbmi	r6, {r0, r3, r5, r8, lr}^
    1c20:	41425f4f 	cmpmi	r2, pc, asr #30
    1c24:	415f4553 	cmpmi	pc, r3, asr r5	; <UNPREDICTABLE>
    1c28:	52454444 	subpl	r4, r5, #68, 8	; 0x44000000
    1c2c:	29535345 	ldmdbcs	r3, {r0, r2, r6, r8, r9, ip, lr}^
    1c30:	445f5f00 	ldrbmi	r5, [pc], #-3840	; 1c38 <_Min_Stack_Size+0x1838>
    1c34:	42465f41 	submi	r5, r6, #260	; 0x104
    1c38:	5f5f5449 	svcpl	0x005f5449
    1c3c:	00313320 	eorseq	r3, r1, r0, lsr #6
    1c40:	58475f5f 	stmdapl	r7, {r0, r1, r2, r3, r4, r6, r8, r9, sl, fp, ip, lr}^
    1c44:	42415f58 	submi	r5, r1, #88, 30	; 0x160
    1c48:	45565f49 	ldrbmi	r5, [r6, #-3913]	; 0xfffff0b7
    1c4c:	4f495352 	svcmi	0x00495352
    1c50:	3031204e 	eorscc	r2, r1, lr, asr #32
    1c54:	5f003631 	svcpl	0x00003631
    1c58:	544e495f 	strbpl	r4, [lr], #-2399	; 0xfffff6a1
    1c5c:	41454c5f 	cmpmi	r5, pc, asr ip
    1c60:	36315453 			; <UNDEFINED> instruction: 0x36315453
    1c64:	58414d5f 	stmdapl	r1, {r0, r1, r2, r3, r4, r6, r8, sl, fp, lr}^
    1c68:	30205f5f 	eorcc	r5, r0, pc, asr pc
    1c6c:	66663778 			; <UNDEFINED> instruction: 0x66663778
    1c70:	5f5f0066 	svcpl	0x005f0066
    1c74:	5f544c46 	svcpl	0x00544c46
    1c78:	4f4e4544 	svcmi	0x004e4544
    1c7c:	4d5f4d52 	ldclmi	13, cr4, [pc, #-328]	; 1b3c <_Min_Stack_Size+0x173c>
    1c80:	5f5f4e49 	svcpl	0x005f4e49
    1c84:	342e3120 	strtcc	r3, [lr], #-288	; 0xfffffee0
    1c88:	39323130 	ldmdbcc	r2!, {r4, r5, r8, ip, sp}
    1c8c:	34363438 	ldrtcc	r3, [r6], #-1080	; 0xfffffbc8
    1c90:	38343233 	ldmdacc	r4!, {r0, r1, r4, r5, r9, ip, sp}
    1c94:	65313731 	ldrvs	r3, [r1, #-1841]!	; 0xfffff8cf
    1c98:	4635342d 	ldrtmi	r3, [r5], -sp, lsr #8
    1c9c:	50414d00 	subpl	r4, r1, r0, lsl #26
    1ca0:	45003252 	strmi	r3, [r0, #-594]	; 0xfffffdae
    1ca4:	5f495458 	svcpl	0x00495458
    1ca8:	5f4e4950 	svcpl	0x004e4950
    1cac:	454e494c 	strbmi	r4, [lr, #-2380]	; 0xfffff6b4
    1cb0:	39445039 	stmdbcc	r4, {r0, r3, r4, r5, ip, lr}^
    1cb4:	58452820 	stmdapl	r5, {r5, fp, sp}^
    1cb8:	535f4954 	cmppl	pc, #84, 18	; 0x150000
    1cbc:	70757465 	rsbsvc	r7, r5, r5, ror #8
    1cc0:	7b29745f 	blvc	a5ee44 <_Min_Stack_Size+0xa5ea44>
    1cc4:	49545845 	ldmdbmi	r4, {r0, r2, r6, fp, ip, lr}^
    1cc8:	50472c39 	subpl	r2, r7, r9, lsr ip
    1ccc:	2c444f49 	mcrrcs	15, 4, r4, r4, cr9
    1cd0:	4f495047 	svcmi	0x00495047
    1cd4:	4e49505f 	mcrmi	0, 2, r5, cr9, cr15, {2}
    1cd8:	007d395f 	rsbseq	r3, sp, pc, asr r9
    1cdc:	49555f5f 	ldmdbmi	r5, {r0, r1, r2, r3, r4, r6, r8, r9, sl, fp, ip, lr}^
    1ce0:	3233544e 	eorscc	r5, r3, #1308622848	; 0x4e000000
    1ce4:	6328435f 			; <UNDEFINED> instruction: 0x6328435f
    1ce8:	20632029 	rsbcs	r2, r3, r9, lsr #32
    1cec:	55202323 	strpl	r2, [r0, #-803]!	; 0xfffffcdd
    1cf0:	5845004c 	stmdapl	r5, {r2, r3, r6}^
    1cf4:	505f4954 	subspl	r4, pc, r4, asr r9	; <UNPREDICTABLE>
    1cf8:	4c5f4e49 	mrrcmi	14, 4, r4, pc, cr9	; <UNPREDICTABLE>
    1cfc:	30454e49 	subcc	r4, r5, r9, asr #28
    1d00:	20304150 	eorscs	r4, r0, r0, asr r1
    1d04:	54584528 	ldrbpl	r4, [r8], #-1320	; 0xfffffad8
    1d08:	65535f49 	ldrbvs	r5, [r3, #-3913]	; 0xfffff0b7
    1d0c:	5f707574 	svcpl	0x00707574
    1d10:	457b2974 	ldrbmi	r2, [fp, #-2420]!	; 0xfffff68c
    1d14:	30495458 	subcc	r5, r9, r8, asr r4
    1d18:	4950472c 	ldmdbmi	r0, {r2, r3, r5, r8, r9, sl, lr}^
    1d1c:	472c414f 	strmi	r4, [ip, -pc, asr #2]!
    1d20:	5f4f4950 	svcpl	0x004f4950
    1d24:	5f4e4950 	svcpl	0x004e4950
    1d28:	5f007d30 	svcpl	0x00007d30
    1d2c:	4341555f 	movtmi	r5, #5471	; 0x155f
    1d30:	5f4d5543 	svcpl	0x004d5543
    1d34:	5f4e494d 	svcpl	0x004e494d
    1d38:	2e30205f 	mrccs	0, 1, r2, cr0, cr15, {2}
    1d3c:	004b5530 	subeq	r5, fp, r0, lsr r5
    1d40:	5f434e49 	svcpl	0x00434e49
    1d44:	334d5453 	movtcc	r5, #54355	; 0xd453
    1d48:	30314632 	eorscc	r4, r1, r2, lsr r6
    1d4c:	5f365833 	svcpl	0x00365833
    1d50:	5f4d454d 	svcpl	0x004d454d
    1d54:	5f50414d 	svcpl	0x0050414d
    1d58:	00205f48 	eoreq	r5, r0, r8, asr #30
    1d5c:	4c465f5f 	mcrrmi	15, 5, r5, r6, cr15
    1d60:	50455f54 	subpl	r5, r5, r4, asr pc
    1d64:	4f4c4953 	svcmi	0x004c4953
    1d68:	205f5f4e 	subscs	r5, pc, lr, asr #30
    1d6c:	39312e31 	ldmdbcc	r1!, {r0, r4, r5, r9, sl, fp, sp}
    1d70:	32393032 	eorscc	r3, r9, #50	; 0x32
    1d74:	35353938 	ldrcc	r3, [r5, #-2360]!	; 0xfffff6c8
    1d78:	31383730 	teqcc	r8, r0, lsr r7
    1d7c:	2d653532 	cfstr64cs	mvdx3, [r5, #-200]!	; 0xffffff38
    1d80:	47004637 	smladxmi	r0, r7, r6, r4
    1d84:	5f4f4950 	svcpl	0x004f4950
    1d88:	5f4e4950 	svcpl	0x004e4950
    1d8c:	45444f4d 	strbmi	r4, [r4, #-3917]	; 0xfffff0b3
    1d90:	544c415f 	strbpl	r4, [ip], #-351	; 0xfffffea1
    1d94:	414e5245 	cmpmi	lr, r5, asr #4
    1d98:	495f4554 	ldmdbmi	pc, {r2, r4, r6, r8, sl, lr}^	; <UNPREDICTABLE>
    1d9c:	5455504e 	ldrbpl	r5, [r5], #-78	; 0xffffffb2
    1da0:	30623020 	rsbcc	r3, r2, r0, lsr #32
    1da4:	00303031 	eorseq	r3, r0, r1, lsr r0
    1da8:	43475f5f 	movtmi	r5, #32607	; 0x7f5f
    1dac:	54415f43 	strbpl	r5, [r1], #-3907	; 0xfffff0bd
    1db0:	43494d4f 	movtmi	r4, #40271	; 0x9d4f
    1db4:	4f48535f 	svcmi	0x0048535f
    1db8:	4c5f5452 	cfldrdmi	mvd5, [pc], {82}	; 0x52
    1dbc:	5f4b434f 	svcpl	0x004b434f
    1dc0:	45455246 	strbmi	r5, [r5, #-582]	; 0xfffffdba
    1dc4:	52003220 	andpl	r3, r0, #32, 4
    1dc8:	475f4343 	ldrbmi	r4, [pc, -r3, asr #6]
    1dcc:	414f4950 	cmpmi	pc, r0, asr r9	; <UNPREDICTABLE>
    1dd0:	284e455f 	stmdacs	lr, {r0, r1, r2, r3, r4, r6, r8, sl, lr}^
    1dd4:	43522029 	cmpmi	r2, #41	; 0x29
    1dd8:	413e2d43 	teqmi	lr, r3, asr #26
    1ddc:	45324250 	ldrmi	r4, [r2, #-592]!	; 0xfffffdb0
    1de0:	7c20524e 	sfmvc	f5, 4, [r0], #-312	; 0xfffffec8
    1de4:	3128203d 			; <UNDEFINED> instruction: 0x3128203d
    1de8:	29323c3c 	ldmdbcs	r2!, {r2, r3, r4, r5, sl, fp, ip, sp}
    1dec:	41535500 	cmpmi	r3, r0, lsl #10
    1df0:	49445452 	stmdbmi	r4, {r1, r4, r6, sl, ip, lr}^
    1df4:	505f2856 	subspl	r2, pc, r6, asr r8	; <UNPREDICTABLE>
    1df8:	2c4b4c43 	mcrrcs	12, 4, r4, fp, cr3
    1dfc:	5541425f 	strbpl	r4, [r1, #-607]	; 0xfffffda1
    1e00:	54415244 	strbpl	r5, [r1], #-580	; 0xfffffdbc
    1e04:	28202945 	stmdacs	r0!, {r0, r2, r6, r8, fp, sp}
    1e08:	746e6975 	strbtvc	r6, [lr], #-2421	; 0xfffff68b
    1e0c:	745f3233 	ldrbvc	r3, [pc], #-563	; 1e14 <_Min_Stack_Size+0x1a14>
    1e10:	505f2829 	subspl	r2, pc, r9, lsr #16
    1e14:	2f4b4c43 	svccs	0x004b4c43
    1e18:	41425f28 	cmpmi	r2, r8, lsr #30
    1e1c:	41524455 	cmpmi	r2, r5, asr r4
    1e20:	312a4554 			; <UNDEFINED> instruction: 0x312a4554
    1e24:	00292936 	eoreq	r2, r9, r6, lsr r9
    1e28:	54505f5f 	ldrbpl	r5, [r0], #-3935	; 0xfffff0a1
    1e2c:	46494452 			; <UNDEFINED> instruction: 0x46494452
    1e30:	59545f46 	ldmdbpl	r4, {r1, r2, r6, r8, r9, sl, fp, ip, lr}^
    1e34:	5f5f4550 	svcpl	0x005f4550
    1e38:	746e6920 	strbtvc	r6, [lr], #-2336	; 0xfffff6e0
    1e3c:	54584500 	ldrbpl	r4, [r8], #-1280	; 0xfffffb00
    1e40:	494c5f49 	stmdbmi	ip, {r0, r3, r6, r8, r9, sl, fp, ip, lr}^
    1e44:	5f00454e 	svcpl	0x0000454e
    1e48:	4d52415f 	ldfmie	f4, [r2, #-380]	; 0xfffffe84
    1e4c:	4352415f 	cmpmi	r2, #-1073741801	; 0xc0000017
    1e50:	53495f48 	movtpl	r5, #40776	; 0x9f48
    1e54:	48545f41 	ldmdami	r4, {r0, r6, r8, r9, sl, fp, ip, lr}^
    1e58:	00424d55 	subeq	r4, r2, r5, asr sp
    1e5c:	52415f5f 	subpl	r5, r1, #380	; 0x17c
    1e60:	45465f4d 	strbmi	r5, [r6, #-3917]	; 0xfffff0b3
    1e64:	52555441 	subspl	r5, r5, #1090519040	; 0x41000000
    1e68:	414d5f45 	cmpmi	sp, r5, asr #30
    1e6c:	4c554d54 	mrrcmi	13, 5, r4, r5, cr4
    1e70:	544e495f 	strbpl	r4, [lr], #-2399	; 0xfffff6a1
    1e74:	43520038 	cmpmi	r2, #56	; 0x38
    1e78:	53555f43 	cmppl	r5, #268	; 0x10c
    1e7c:	31545241 	cmpcc	r4, r1, asr #4
    1e80:	284e455f 	stmdacs	lr, {r0, r1, r2, r3, r4, r6, r8, sl, lr}^
    1e84:	43522029 	cmpmi	r2, #41	; 0x29
    1e88:	413e2d43 	teqmi	lr, r3, asr #26
    1e8c:	45324250 	ldrmi	r4, [r2, #-592]!	; 0xfffffdb0
    1e90:	7c20524e 	sfmvc	f5, 4, [r0], #-312	; 0xfffffec8
    1e94:	3128203d 			; <UNDEFINED> instruction: 0x3128203d
    1e98:	34313c3c 	ldrtcc	r3, [r1], #-3132	; 0xfffff3c4
    1e9c:	50470029 	subpl	r0, r7, r9, lsr #32
    1ea0:	505f4f49 	subspl	r4, pc, r9, asr #30
    1ea4:	4d5f4e49 	ldclmi	14, cr4, [pc, #-292]	; 1d88 <_Min_Stack_Size+0x1988>
    1ea8:	5f45444f 	svcpl	0x0045444f
    1eac:	45544c41 	ldrbmi	r4, [r4, #-3137]	; 0xfffff3bf
    1eb0:	54414e52 	strbpl	r4, [r1], #-3666	; 0xfffff1ae
    1eb4:	504f5f45 	subpl	r5, pc, r5, asr #30
    1eb8:	445f4e45 	ldrbmi	r4, [pc], #-3653	; 1ec0 <_Min_Stack_Size+0x1ac0>
    1ebc:	4e494152 	mcrmi	1, 2, r4, cr9, cr2, {2}
    1ec0:	5f30355f 	svcpl	0x0030355f
    1ec4:	205a484d 	subscs	r4, sl, sp, asr #16
    1ec8:	31316230 	teqcc	r1, r0, lsr r2
    1ecc:	4d003131 	stfmis	f3, [r0, #-196]	; 0xffffff3c
    1ed0:	5f4c4143 	svcpl	0x004c4143
    1ed4:	49545845 	ldmdbmi	r4, {r0, r2, r6, fp, ip, lr}^
    1ed8:	4950475f 	ldmdbmi	r0, {r0, r1, r2, r3, r4, r6, r8, r9, sl, lr}^
    1edc:	65445f4f 	strbvs	r5, [r4, #-3919]	; 0xfffff0b1
    1ee0:	74696e49 	strbtvc	r6, [r9], #-3657	; 0xfffff1b7
    1ee4:	555f5f00 	ldrbpl	r5, [pc, #-3840]	; fec <_Min_Stack_Size+0xbec>
    1ee8:	43434153 	movtmi	r4, #12627	; 0x3153
    1eec:	465f4d55 			; <UNDEFINED> instruction: 0x465f4d55
    1ef0:	5f544942 	svcpl	0x00544942
    1ef4:	0038205f 	eorseq	r2, r8, pc, asr r0
    1ef8:	43475f5f 	movtmi	r5, #32607	; 0x7f5f
    1efc:	54415f43 	strbpl	r5, [r1], #-3907	; 0xfffff0bd
    1f00:	43494d4f 	movtmi	r4, #40271	; 0x9d4f
    1f04:	5345545f 	movtpl	r5, #21599	; 0x545f
    1f08:	4e415f54 	mcrmi	15, 2, r5, cr1, cr4, {2}
    1f0c:	45535f44 	ldrbmi	r5, [r3, #-3908]	; 0xfffff0bc
    1f10:	52545f54 	subspl	r5, r4, #84, 30	; 0x150
    1f14:	41564555 	cmpmi	r6, r5, asr r5
    1f18:	0031204c 	eorseq	r2, r1, ip, asr #32
    1f1c:	414c5f5f 	cmpmi	ip, pc, asr pc
    1f20:	4d554343 	ldclmi	3, cr4, [r5, #-268]	; 0xfffffef4
    1f24:	4942465f 	stmdbmi	r2, {r0, r1, r2, r3, r4, r6, r9, sl, lr}^
    1f28:	205f5f54 	subscs	r5, pc, r4, asr pc	; <UNPREDICTABLE>
    1f2c:	47003133 	smladxmi	r0, r3, r1, r3
    1f30:	5f4f4950 	svcpl	0x004f4950
    1f34:	54524f50 	ldrbpl	r4, [r2], #-3920	; 0xfffff0b0
    1f38:	444f4d5f 	strbmi	r4, [pc], #-3423	; 1f40 <_Min_Stack_Size+0x1b40>
    1f3c:	554f5f45 	strbpl	r5, [pc, #-3909]	; fff <_Min_Stack_Size+0xbff>
    1f40:	54555054 	ldrbpl	r5, [r5], #-84	; 0xffffffac
    1f44:	45504f5f 	ldrbmi	r4, [r0, #-3935]	; 0xfffff0a1
    1f48:	52445f4e 	subpl	r5, r4, #312	; 0x138
    1f4c:	5f4e4941 	svcpl	0x004e4941
    1f50:	484d5f32 	stmdami	sp, {r1, r4, r5, r8, r9, sl, fp, ip, lr}^
    1f54:	7830205a 	ldmdavc	r0!, {r1, r3, r4, r6, sp}
    1f58:	36363636 			; <UNDEFINED> instruction: 0x36363636
    1f5c:	36363636 			; <UNDEFINED> instruction: 0x36363636
    1f60:	41535500 	cmpmi	r3, r0, lsl #10
    1f64:	5f315452 	svcpl	0x00315452
    1f68:	45534142 	ldrbmi	r4, [r3, #-322]	; 0xfffffebe
    1f6c:	4444415f 	strbmi	r4, [r4], #-351	; 0xfffffea1
    1f70:	53455245 	movtpl	r5, #21061	; 0x5245
    1f74:	78302053 	ldmdavc	r0!, {r0, r1, r4, r6, sp}
    1f78:	31303034 	teqcc	r0, r4, lsr r0
    1f7c:	30303833 	eorscc	r3, r0, r3, lsr r8
    1f80:	52004c55 	andpl	r4, r0, #21760	; 0x5500
    1f84:	545f4343 	ldrbpl	r4, [pc], #-835	; 1f8c <_Min_Stack_Size+0x1b8c>
    1f88:	5f364d49 	svcpl	0x00364d49
    1f8c:	29284e45 	stmdbcs	r8!, {r0, r2, r6, r9, sl, fp, lr}
    1f90:	43435220 	movtmi	r5, #12832	; 0x3220
    1f94:	50413e2d 	subpl	r3, r1, sp, lsr #28
    1f98:	4e453142 	dvfmism	f3, f5, f2
    1f9c:	3d7c2052 	ldclcc	0, cr2, [ip, #-328]!	; 0xfffffeb8
    1fa0:	3c312820 	ldccc	8, cr2, [r1], #-128	; 0xffffff80
    1fa4:	0029343c 	eoreq	r3, r9, ip, lsr r4
    1fa8:	4c465f5f 	mcrrmi	15, 5, r5, r6, cr15
    1fac:	5f323354 	svcpl	0x00323354
    1fb0:	5f534148 	svcpl	0x00534148
    1fb4:	45495551 	strbmi	r5, [r9, #-1361]	; 0xfffffaaf
    1fb8:	414e5f54 	cmpmi	lr, r4, asr pc
    1fbc:	205f5f4e 	subscs	r5, pc, lr, asr #30
    1fc0:	5f5f0031 	svcpl	0x005f0031
    1fc4:	4c42444c 	cfstrdmi	mvd4, [r2], {76}	; 0x4c
    1fc8:	5341485f 	movtpl	r4, #6239	; 0x185f
    1fcc:	464e495f 			; <UNDEFINED> instruction: 0x464e495f
    1fd0:	54494e49 	strbpl	r4, [r9], #-3657	; 0xfffff1b7
    1fd4:	205f5f59 	subscs	r5, pc, r9, asr pc	; <UNPREDICTABLE>
    1fd8:	5f5f0031 	svcpl	0x005f0031
    1fdc:	465f4154 			; <UNDEFINED> instruction: 0x465f4154
    1fe0:	5f544942 	svcpl	0x00544942
    1fe4:	3336205f 	teqcc	r6, #95	; 0x5f
    1fe8:	54584500 	ldrbpl	r4, [r8], #-1280	; 0xfffffb00
    1fec:	30203049 	eorcc	r3, r0, r9, asr #32
    1ff0:	465f5f00 	ldrbmi	r5, [pc], -r0, lsl #30
    1ff4:	3233544c 	eorscc	r5, r3, #76, 8	; 0x4c000000
    1ff8:	414d5f58 	cmpmi	sp, r8, asr pc
    1ffc:	30315f58 	eorscc	r5, r1, r8, asr pc
    2000:	5058455f 	subspl	r4, r8, pc, asr r5
    2004:	33205f5f 			; <UNDEFINED> instruction: 0x33205f5f
    2008:	45003830 	strmi	r3, [r0, #-2096]	; 0xfffff7d0
    200c:	5f495458 	svcpl	0x00495458
    2010:	5f4e4950 	svcpl	0x004e4950
    2014:	454e494c 	strbmi	r4, [lr, #-2380]	; 0xfffff6b4
    2018:	33425033 	movtcc	r5, #8243	; 0x2033
    201c:	58452820 	stmdapl	r5, {r5, fp, sp}^
    2020:	535f4954 	cmppl	pc, #84, 18	; 0x150000
    2024:	70757465 	rsbsvc	r7, r5, r5, ror #8
    2028:	7b29745f 	blvc	a5f1ac <_Min_Stack_Size+0xa5edac>
    202c:	49545845 	ldmdbmi	r4, {r0, r2, r6, fp, ip, lr}^
    2030:	50472c33 	subpl	r2, r7, r3, lsr ip
    2034:	2c424f49 	mcrrcs	15, 4, r4, r2, cr9
    2038:	4f495047 	svcmi	0x00495047
    203c:	4e49505f 	mcrmi	0, 2, r5, cr9, cr15, {2}
    2040:	007d335f 	rsbseq	r3, sp, pc, asr r3
    2044:	52415f5f 	subpl	r5, r1, #380	; 0x17c
    2048:	52415f4d 	subpl	r5, r1, #308	; 0x134
    204c:	455f4843 	ldrbmi	r4, [pc, #-2115]	; 1811 <_Min_Stack_Size+0x1411>
    2050:	495f5458 	ldmdbmi	pc, {r3, r4, r6, sl, ip, lr}^	; <UNPREDICTABLE>
    2054:	5f564944 	svcpl	0x00564944
    2058:	0031205f 	eorseq	r2, r1, pc, asr r0
    205c:	52415f5f 	subpl	r5, r1, #380	; 0x17c
    2060:	43505f4d 	cmpmi	r0, #308	; 0x134
    2064:	00312053 	eorseq	r2, r1, r3, asr r0
    2068:	49535f5f 	ldmdbmi	r3, {r0, r1, r2, r3, r4, r6, r8, r9, sl, fp, ip, lr}^
    206c:	54415f47 	strbpl	r5, [r1], #-3911	; 0xfffff0b9
    2070:	43494d4f 	movtmi	r4, #40271	; 0x9d4f
    2074:	4e494d5f 	mcrmi	13, 2, r4, cr9, cr15, {2}
    2078:	28205f5f 	stmdacs	r0!, {r0, r1, r2, r3, r4, r6, r8, r9, sl, fp, ip, lr}
    207c:	535f5f2d 	cmppl	pc, #45, 30	; 0xb4
    2080:	415f4749 	cmpmi	pc, r9, asr #14
    2084:	494d4f54 	stmdbmi	sp, {r2, r4, r6, r8, r9, sl, fp, lr}^
    2088:	414d5f43 	cmpmi	sp, r3, asr #30
    208c:	205f5f58 	subscs	r5, pc, r8, asr pc	; <UNPREDICTABLE>
    2090:	2931202d 	ldmdbcs	r1!, {r0, r2, r3, r5, sp}
    2094:	54584500 	ldrbpl	r4, [r8], #-1280	; 0xfffffb00
    2098:	35203549 	strcc	r3, [r0, #-1353]!	; 0xfffffab7
    209c:	555f5f00 	ldrbpl	r5, [pc, #-3840]	; 11a4 <_Min_Stack_Size+0xda4>
    20a0:	5f544e49 	svcpl	0x00544e49
    20a4:	5341454c 	movtpl	r4, #5452	; 0x154c
    20a8:	4d5f3854 	ldclmi	8, cr3, [pc, #-336]	; 1f60 <_Min_Stack_Size+0x1b60>
    20ac:	5f5f5841 	svcpl	0x005f5841
    20b0:	66783020 	ldrbtvs	r3, [r8], -r0, lsr #32
    20b4:	72540066 	subsvc	r0, r4, #102	; 0x66
    20b8:	65676769 	strbvs	r6, [r7, #-1897]!	; 0xfffff897
    20bc:	61435f72 	hvcvs	13810	; 0x35f2
    20c0:	5f006573 	svcpl	0x00006573
    20c4:	544c465f 	strbpl	r4, [ip], #-1631	; 0xfffff9a1
    20c8:	5f583233 	svcpl	0x00583233
    20cc:	495f5349 	ldmdbmi	pc, {r0, r3, r6, r8, r9, ip, lr}^	; <UNPREDICTABLE>
    20d0:	365f4345 	ldrbcc	r4, [pc], -r5, asr #6
    20d4:	39353530 	ldmdbcc	r5!, {r4, r5, r8, sl, ip, sp}
    20d8:	32205f5f 	eorcc	r5, r0, #380	; 0x17c
    20dc:	49504700 	ldmdbmi	r0, {r8, r9, sl, lr}^
    20e0:	425f424f 	subsmi	r4, pc, #-268435452	; 0xf0000004
    20e4:	5f455341 	svcpl	0x00455341
    20e8:	45444441 	strbmi	r4, [r4, #-1089]	; 0xfffffbbf
    20ec:	53534552 	cmppl	r3, #343932928	; 0x14800000
    20f0:	34783020 	ldrbtcc	r3, [r8], #-32	; 0xffffffe0
    20f4:	30313030 	eorscc	r3, r1, r0, lsr r0
    20f8:	55303043 	ldrpl	r3, [r0, #-67]!	; 0xffffffbd
    20fc:	5f5f004c 	svcpl	0x005f004c
    2100:	5f544e49 	svcpl	0x00544e49
    2104:	5341454c 	movtpl	r4, #5452	; 0x154c
    2108:	5f363154 	svcpl	0x00363154
    210c:	54444957 	strbpl	r4, [r4], #-2391	; 0xfffff6a9
    2110:	205f5f48 	subscs	r5, pc, r8, asr #30
    2114:	5f003631 	svcpl	0x00003631
    2118:	4345445f 	movtmi	r4, #21599	; 0x545f
    211c:	4156455f 	cmpmi	r6, pc, asr r5
    2120:	454d5f4c 	strbmi	r5, [sp, #-3916]	; 0xfffff0b4
    2124:	444f4854 	strbmi	r4, [pc], #-2132	; 212c <_Min_Stack_Size+0x1d2c>
    2128:	32205f5f 	eorcc	r5, r0, #380	; 0x17c
    212c:	54584500 	ldrbpl	r4, [r8], #-1280	; 0xfffffb00
    2130:	49505f49 	ldmdbmi	r0, {r0, r3, r6, r8, r9, sl, fp, ip, lr}^
    2134:	494c5f4e 	stmdbmi	ip, {r1, r2, r3, r6, r8, r9, sl, fp, ip, lr}^
    2138:	3331454e 	teqcc	r1, #327155712	; 0x13800000
    213c:	33314250 	teqcc	r1, #80, 4
    2140:	58452820 	stmdapl	r5, {r5, fp, sp}^
    2144:	535f4954 	cmppl	pc, #84, 18	; 0x150000
    2148:	70757465 	rsbsvc	r7, r5, r5, ror #8
    214c:	7b29745f 	blvc	a5f2d0 <_Min_Stack_Size+0xa5eed0>
    2150:	49545845 	ldmdbmi	r4, {r0, r2, r6, fp, ip, lr}^
    2154:	472c3331 			; <UNDEFINED> instruction: 0x472c3331
    2158:	424f4950 	submi	r4, pc, #80, 18	; 0x140000
    215c:	4950472c 	ldmdbmi	r0, {r2, r3, r5, r8, r9, sl, lr}^
    2160:	49505f4f 	ldmdbmi	r0, {r0, r1, r2, r3, r6, r8, r9, sl, fp, ip, lr}^
    2164:	33315f4e 	teqcc	r1, #312	; 0x138
    2168:	5f5f007d 	svcpl	0x005f007d
    216c:	5f4d5241 	svcpl	0x004d5241
    2170:	54414546 	strbpl	r4, [r1], #-1350	; 0xfffffaba
    2174:	5f455255 	svcpl	0x00455255
    2178:	36315046 	ldrtcc	r5, [r1], -r6, asr #32
    217c:	4c4d465f 	mcrrmi	6, 5, r4, sp, cr15
    2180:	54584500 	ldrbpl	r4, [r8], #-1280	; 0xfffffb00
    2184:	49505f49 	ldmdbmi	r0, {r0, r3, r6, r8, r9, sl, fp, ip, lr}^
    2188:	494c5f4e 	stmdbmi	ip, {r1, r2, r3, r6, r8, r9, sl, fp, ip, lr}^
    218c:	3431454e 	ldrtcc	r4, [r1], #-1358	; 0xfffffab2
    2190:	34314150 	ldrtcc	r4, [r1], #-336	; 0xfffffeb0
    2194:	58452820 	stmdapl	r5, {r5, fp, sp}^
    2198:	535f4954 	cmppl	pc, #84, 18	; 0x150000
    219c:	70757465 	rsbsvc	r7, r5, r5, ror #8
    21a0:	7b29745f 	blvc	a5f324 <_Min_Stack_Size+0xa5ef24>
    21a4:	49545845 	ldmdbmi	r4, {r0, r2, r6, fp, ip, lr}^
    21a8:	472c3431 			; <UNDEFINED> instruction: 0x472c3431
    21ac:	414f4950 	cmpmi	pc, r0, asr r9	; <UNPREDICTABLE>
    21b0:	4950472c 	ldmdbmi	r0, {r2, r3, r5, r8, r9, sl, lr}^
    21b4:	49505f4f 	ldmdbmi	r0, {r0, r1, r2, r3, r6, r8, r9, sl, fp, ip, lr}^
    21b8:	34315f4e 	ldrtcc	r5, [r1], #-3918	; 0xfffff0b2
    21bc:	5845007d 	stmdapl	r5, {r0, r2, r3, r4, r5, r6}^
    21c0:	475f4954 			; <UNDEFINED> instruction: 0x475f4954
    21c4:	004f4950 	subeq	r4, pc, r0, asr r9	; <UNPREDICTABLE>
    21c8:	53555f5f 	cmppl	r5, #380	; 0x17c
    21cc:	43415246 	movtmi	r5, #4678	; 0x1246
    21d0:	50455f54 	subpl	r5, r5, r4, asr pc
    21d4:	4f4c4953 	svcmi	0x004c4953
    21d8:	205f5f4e 	subscs	r5, pc, lr, asr #30
    21dc:	50317830 	eorspl	r7, r1, r0, lsr r8
    21e0:	4855382d 	ldmdami	r5, {r0, r2, r3, r5, fp, ip, sp}^
    21e4:	58450052 	stmdapl	r5, {r1, r4, r6}^
    21e8:	505f4954 	subspl	r4, pc, r4, asr r9	; <UNPREDICTABLE>
    21ec:	4c5f4e49 	mrrcmi	14, 4, r4, pc, cr9	; <UNPREDICTABLE>
    21f0:	37454e49 	strbcc	r4, [r5, -r9, asr #28]
    21f4:	20374450 	eorscs	r4, r7, r0, asr r4
    21f8:	54584528 	ldrbpl	r4, [r8], #-1320	; 0xfffffad8
    21fc:	65535f49 	ldrbvs	r5, [r3, #-3913]	; 0xfffff0b7
    2200:	5f707574 	svcpl	0x00707574
    2204:	457b2974 	ldrbmi	r2, [fp, #-2420]!	; 0xfffff68c
    2208:	37495458 	smlsldcc	r5, r9, r8, r4
    220c:	4950472c 	ldmdbmi	r0, {r2, r3, r5, r8, r9, sl, lr}^
    2210:	472c444f 	strmi	r4, [ip, -pc, asr #8]!
    2214:	5f4f4950 	svcpl	0x004f4950
    2218:	5f4e4950 	svcpl	0x004e4950
    221c:	4e007d37 	mcrmi	13, 0, r7, cr0, cr7, {1}
    2220:	5f434956 	svcpl	0x00434956
    2224:	33515249 	cmpcc	r1, #-1879048188	; 0x90000004
    2228:	53555f39 	cmppl	r5, #57, 30	; 0xe4
    222c:	33545241 	cmpcc	r4, #268435460	; 0x10000004
    2230:	414e455f 	cmpmi	lr, pc, asr r5
    2234:	20454c42 	subcs	r4, r5, r2, asr #24
    2238:	4349564e 	movtmi	r5, #38478	; 0x964e
    223c:	4553495f 	ldrbmi	r4, [r3, #-2399]	; 0xfffff6a1
    2240:	7c203152 	stfvcs	f3, [r0], #-328	; 0xfffffeb8
    2244:	3128203d 			; <UNDEFINED> instruction: 0x3128203d
    2248:	29373c3c 	ldmdbcs	r7!, {r2, r3, r4, r5, sl, fp, ip, sp}
    224c:	5845003b 	stmdapl	r5, {r0, r1, r3, r4, r5}^
    2250:	505f4954 	subspl	r4, pc, r4, asr r9	; <UNPREDICTABLE>
    2254:	4c5f4e49 	mrrcmi	14, 4, r4, pc, cr9	; <UNPREDICTABLE>
    2258:	31454e49 	cmpcc	r5, r9, asr #28
    225c:	31415035 	cmpcc	r1, r5, lsr r0
    2260:	45282035 	strmi	r2, [r8, #-53]!	; 0xffffffcb
    2264:	5f495458 	svcpl	0x00495458
    2268:	75746553 	ldrbvc	r6, [r4, #-1363]!	; 0xfffffaad
    226c:	29745f70 	ldmdbcs	r4!, {r4, r5, r6, r8, r9, sl, fp, ip, lr}^
    2270:	5458457b 	ldrbpl	r4, [r8], #-1403	; 0xfffffa85
    2274:	2c353149 	ldfcss	f3, [r5], #-292	; 0xfffffedc
    2278:	4f495047 	svcmi	0x00495047
    227c:	50472c41 	subpl	r2, r7, r1, asr #24
    2280:	505f4f49 	subspl	r4, pc, r9, asr #30
    2284:	315f4e49 	cmpcc	pc, r9, asr #28
    2288:	5f007d35 	svcpl	0x00007d35
    228c:	4653555f 			; <UNDEFINED> instruction: 0x4653555f
    2290:	54434152 	strbpl	r4, [r3], #-338	; 0xfffffeae
    2294:	4942465f 	stmdbmi	r2, {r0, r1, r2, r3, r4, r6, r9, sl, lr}^
    2298:	205f5f54 	subscs	r5, pc, r4, asr pc	; <UNPREDICTABLE>
    229c:	5f5f0038 	svcpl	0x005f0038
    22a0:	43414c4c 	movtmi	r4, #7244	; 0x1c4c
    22a4:	5f4d5543 	svcpl	0x004d5543
    22a8:	5f58414d 	svcpl	0x0058414d
    22ac:	5830205f 	ldmdapl	r0!, {r0, r1, r2, r3, r4, r6, sp}
    22b0:	46464637 			; <UNDEFINED> instruction: 0x46464637
    22b4:	46464646 	strbmi	r4, [r6], -r6, asr #12
    22b8:	46464646 	strbmi	r4, [r6], -r6, asr #12
    22bc:	46464646 	strbmi	r4, [r6], -r6, asr #12
    22c0:	31332d50 	teqcc	r3, r0, asr sp
    22c4:	004b4c4c 	subeq	r4, fp, ip, asr #24
    22c8:	5f434352 	svcpl	0x00434352
    22cc:	4f495047 	svcmi	0x00495047
    22d0:	4e455f44 	cdpmi	15, 4, cr5, cr5, cr4, {2}
    22d4:	52202928 	eorpl	r2, r0, #40, 18	; 0xa0000
    22d8:	3e2d4343 	cdpcc	3, 2, cr4, cr13, cr3, {2}
    22dc:	32425041 	subcc	r5, r2, #65	; 0x41
    22e0:	20524e45 	subscs	r4, r2, r5, asr #28
    22e4:	28203d7c 	stmdacs	r0!, {r2, r3, r4, r5, r6, r8, sl, fp, ip, sp}
    22e8:	353c3c31 	ldrcc	r3, [ip, #-3121]!	; 0xfffff3cf
    22ec:	564e0029 	strbpl	r0, [lr], -r9, lsr #32
    22f0:	495f4349 	ldmdbmi	pc, {r0, r3, r6, r8, r9, lr}^	; <UNPREDICTABLE>
    22f4:	33325152 	teqcc	r2, #-2147483628	; 0x80000014
    22f8:	5458455f 	ldrbpl	r4, [r8], #-1375	; 0xfffffaa1
    22fc:	355f3949 	ldrbcc	r3, [pc, #-2377]	; 19bb <_Min_Stack_Size+0x15bb>
    2300:	5349445f 	movtpl	r4, #37983	; 0x945f
    2304:	454c4241 	strbmi	r4, [ip, #-577]	; 0xfffffdbf
    2308:	49564e20 	ldmdbmi	r6, {r5, r9, sl, fp, lr}^
    230c:	43495f43 	movtmi	r5, #40771	; 0x9f43
    2310:	20305245 	eorscs	r5, r0, r5, asr #4
    2314:	28203d7c 	stmdacs	r0!, {r2, r3, r4, r5, r6, r8, sl, fp, ip, sp}
    2318:	323c3c31 	eorscc	r3, ip, #12544	; 0x3100
    231c:	003b2933 	eorseq	r2, fp, r3, lsr r9
    2320:	5f434352 	svcpl	0x00434352
    2324:	33495053 	movtcc	r5, #36947	; 0x9053
    2328:	284e455f 	stmdacs	lr, {r0, r1, r2, r3, r4, r6, r8, sl, lr}^
    232c:	43522029 	cmpmi	r2, #41	; 0x29
    2330:	413e2d43 	teqmi	lr, r3, asr #26
    2334:	45314250 	ldrmi	r4, [r1, #-592]!	; 0xfffffdb0
    2338:	7c20524e 	sfmvc	f5, 4, [r0], #-312	; 0xfffffec8
    233c:	3128203d 			; <UNDEFINED> instruction: 0x3128203d
    2340:	35313c3c 	ldrcc	r3, [r1, #-3132]!	; 0xfffff3c4
    2344:	5f5f0029 	svcpl	0x005f0029
    2348:	52455355 	subpl	r5, r5, #1409286145	; 0x54000001
    234c:	42414c5f 	submi	r4, r1, #24320	; 0x5f00
    2350:	505f4c45 	subspl	r4, pc, r5, asr #24
    2354:	49464552 	stmdbmi	r6, {r1, r4, r6, r8, sl, lr}^
    2358:	205f5f58 	subscs	r5, pc, r8, asr pc	; <UNPREDICTABLE>
    235c:	49504700 	ldmdbmi	r0, {r8, r9, sl, lr}^
    2360:	49505f4f 	ldmdbmi	r0, {r0, r1, r2, r3, r6, r8, r9, sl, fp, ip, lr}^
    2364:	20365f4e 	eorscs	r5, r6, lr, asr #30
    2368:	69752828 	ldmdbvs	r5!, {r3, r5, fp, sp}^
    236c:	5f38746e 	svcpl	0x0038746e
    2370:	29362974 	ldmdbcs	r6!, {r2, r4, r5, r6, r8, fp, sp}
    2374:	54455300 	strbpl	r5, [r5], #-768	; 0xfffffd00
    2378:	5449425f 	strbpl	r4, [r9], #-607	; 0xfffffda1
    237c:	47455228 	strbmi	r5, [r5, -r8, lsr #4]
    2380:	5449422c 	strbpl	r4, [r9], #-556	; 0xfffffdd4
    2384:	52282029 	eorpl	r2, r8, #41	; 0x29
    2388:	7c204745 	stcvc	7, cr4, [r0], #-276	; 0xfffffeec
    238c:	3128203d 			; <UNDEFINED> instruction: 0x3128203d
    2390:	49423c3c 	stmdbmi	r2, {r2, r3, r4, r5, sl, fp, ip, sp}^
    2394:	00292954 	eoreq	r2, r9, r4, asr r9
    2398:	49545845 	ldmdbmi	r4, {r0, r2, r6, fp, ip, lr}^
    239c:	4e49505f 	mcrmi	0, 2, r5, cr9, cr15, {2}
    23a0:	4e494c5f 	mcrmi	12, 2, r4, cr9, cr15, {2}
    23a4:	42503845 	subsmi	r3, r0, #4521984	; 0x450000
    23a8:	45282038 	strmi	r2, [r8, #-56]!	; 0xffffffc8
    23ac:	5f495458 	svcpl	0x00495458
    23b0:	75746553 	ldrbvc	r6, [r4, #-1363]!	; 0xfffffaad
    23b4:	29745f70 	ldmdbcs	r4!, {r4, r5, r6, r8, r9, sl, fp, ip, lr}^
    23b8:	5458457b 	ldrbpl	r4, [r8], #-1403	; 0xfffffa85
    23bc:	472c3849 	strmi	r3, [ip, -r9, asr #16]!
    23c0:	424f4950 	submi	r4, pc, #80, 18	; 0x140000
    23c4:	4950472c 	ldmdbmi	r0, {r2, r3, r5, r8, r9, sl, lr}^
    23c8:	49505f4f 	ldmdbmi	r0, {r0, r1, r2, r3, r6, r8, r9, sl, fp, ip, lr}^
    23cc:	7d385f4e 	ldcvc	15, cr5, [r8, #-312]!	; 0xfffffec8
    23d0:	535f5f00 	cmppl	pc, #0, 30
    23d4:	5f434454 	svcpl	0x00434454
    23d8:	53524556 	cmppl	r2, #360710144	; 0x15800000
    23dc:	5f4e4f49 	svcpl	0x004e4f49
    23e0:	3032205f 	eorscc	r2, r2, pc, asr r0
    23e4:	32313131 	eorscc	r3, r1, #1073741836	; 0x4000000c
    23e8:	5f5f004c 	svcpl	0x005f004c
    23ec:	5f544e49 	svcpl	0x00544e49
    23f0:	5341454c 	movtpl	r4, #5452	; 0x154c
    23f4:	4d5f3854 	ldclmi	8, cr3, [pc, #-336]	; 22ac <_Min_Stack_Size+0x1eac>
    23f8:	5f5f5841 	svcpl	0x005f5841
    23fc:	37783020 	ldrbcc	r3, [r8, -r0, lsr #32]!
    2400:	5f5f0066 	svcpl	0x005f0066
    2404:	5f434347 	svcpl	0x00434347
    2408:	4d4f5441 	cfstrdmi	mvd5, [pc, #-260]	; 230c <_Min_Stack_Size+0x1f0c>
    240c:	505f4349 	subspl	r4, pc, r9, asr #6
    2410:	544e494f 	strbpl	r4, [lr], #-2383	; 0xfffff6b1
    2414:	4c5f5245 	lfmmi	f5, 2, [pc], {69}	; 0x45
    2418:	5f4b434f 	svcpl	0x004b434f
    241c:	45455246 	strbmi	r5, [r5, #-582]	; 0xfffffdba
    2420:	5f003220 	svcpl	0x00003220
    2424:	4d52415f 	ldfmie	f4, [r2, #-380]	; 0xfffffe84
    2428:	4145465f 	cmpmi	r5, pc, asr r6
    242c:	45525554 	ldrbmi	r5, [r2, #-1364]	; 0xfffffaac
    2430:	4942515f 	stmdbmi	r2, {r0, r1, r2, r3, r4, r6, r8, ip, lr}^
    2434:	00312054 	eorseq	r2, r1, r4, asr r0
    2438:	4c555f5f 	mrrcmi	15, 5, r5, r5, cr15	; <UNPREDICTABLE>
    243c:	55434341 	strbpl	r4, [r3, #-833]	; 0xfffffcbf
    2440:	414d5f4d 	cmpmi	sp, sp, asr #30
    2444:	205f5f58 	subscs	r5, pc, r8, asr pc	; <UNPREDICTABLE>
    2448:	46465830 			; <UNDEFINED> instruction: 0x46465830
    244c:	46464646 	strbmi	r4, [r6], -r6, asr #12
    2450:	46464646 	strbmi	r4, [r6], -r6, asr #12
    2454:	46464646 	strbmi	r4, [r6], -r6, asr #12
    2458:	2d504646 	ldclcs	6, cr4, [r0, #-280]	; 0xfffffee8
    245c:	4c553233 	lfmmi	f3, 2, [r5], {51}	; 0x33
    2460:	5f5f004b 	svcpl	0x005f004b
    2464:	4d4f5441 	cfstrdmi	mvd5, [pc, #-260]	; 2368 <_Min_Stack_Size+0x1f68>
    2468:	415f4349 	cmpmi	pc, r9, asr #6
    246c:	49555143 	ldmdbmi	r5, {r0, r1, r6, r8, ip, lr}^
    2470:	32204552 	eorcc	r4, r0, #343932928	; 0x14800000
    2474:	415f5f00 	cmpmi	pc, r0, lsl #30
    2478:	465f4d52 			; <UNDEFINED> instruction: 0x465f4d52
    247c:	55544145 	ldrbpl	r4, [r4, #-325]	; 0xfffffebb
    2480:	435f4552 	cmpmi	pc, #343932928	; 0x14800000
    2484:	4c504d4f 	mrrcmi	13, 4, r4, r0, cr15
    2488:	5f005845 	svcpl	0x00005845
    248c:	4d52415f 	ldfmie	f4, [r2, #-380]	; 0xfffffe84
    2490:	5a49535f 	bpl	1257214 <_Min_Stack_Size+0x1256e14>
    2494:	5f464f45 	svcpl	0x00464f45
    2498:	41484357 	cmpmi	r8, r7, asr r3
    249c:	20545f52 	subscs	r5, r4, r2, asr pc
    24a0:	5f5f0034 	svcpl	0x005f0034
    24a4:	33544c46 	cmpcc	r4, #17920	; 0x4600
    24a8:	4d5f5832 	ldclmi	8, cr5, [pc, #-200]	; 23e8 <_Min_Stack_Size+0x1fe8>
    24ac:	455f5841 	ldrbmi	r5, [pc, #-2113]	; 1c73 <_Min_Stack_Size+0x1873>
    24b0:	5f5f5058 	svcpl	0x005f5058
    24b4:	32303120 	eorscc	r3, r0, #32, 2
    24b8:	5f5f0034 	svcpl	0x005f0034
    24bc:	49474552 	stmdbmi	r7, {r1, r4, r6, r8, sl, lr}^
    24c0:	52455453 	subpl	r5, r5, #1392508928	; 0x53000000
    24c4:	4552505f 	ldrbmi	r5, [r2, #-95]	; 0xffffffa1
    24c8:	5f584946 	svcpl	0x00584946
    24cc:	5f00205f 	svcpl	0x0000205f
    24d0:	4e49555f 	mcrmi	5, 2, r5, cr9, cr15, {2}
    24d4:	454c5f54 	strbmi	r5, [ip, #-3924]	; 0xfffff0ac
    24d8:	33545341 	cmpcc	r4, #67108865	; 0x4000001
    24dc:	414d5f32 	cmpmi	sp, r2, lsr pc
    24e0:	205f5f58 	subscs	r5, pc, r8, asr pc	; <UNPREDICTABLE>
    24e4:	66667830 			; <UNDEFINED> instruction: 0x66667830
    24e8:	66666666 	strbtvs	r6, [r6], -r6, ror #12
    24ec:	4c556666 	mrrcmi	6, 6, r6, r5, cr6
    24f0:	445f5f00 	ldrbmi	r5, [pc], #-3840	; 24f8 <_Min_Stack_Size+0x20f8>
    24f4:	455f4c42 	ldrbmi	r4, [pc, #-3138]	; 18ba <_Min_Stack_Size+0x14ba>
    24f8:	4c495350 	mcrrmi	3, 5, r5, r9, cr0
    24fc:	5f5f4e4f 	svcpl	0x005f4e4f
    2500:	64282820 	strtvs	r2, [r8], #-2080	; 0xfffff7e0
    2504:	6c62756f 	cfstr64vs	mvdx7, [r2], #-444	; 0xfffffe44
    2508:	2e322965 	vsubcs.f16	s4, s4, s11	; <UNPREDICTABLE>
    250c:	34303232 	ldrtcc	r3, [r0], #-562	; 0xfffffdce
    2510:	34303634 	ldrtcc	r3, [r0], #-1588	; 0xfffff9cc
    2514:	30353239 	eorscc	r3, r5, r9, lsr r2
    2518:	31333133 	teqcc	r3, r3, lsr r1
    251c:	36312d65 	ldrtcc	r2, [r1], -r5, ror #26
    2520:	5f00294c 	svcpl	0x0000294c
    2524:	52464c5f 	subpl	r4, r6, #24320	; 0x5f00
    2528:	5f544341 	svcpl	0x00544341
    252c:	5f4e494d 	svcpl	0x004e494d
    2530:	2d28205f 	stccs	0, cr2, [r8, #-380]!	; 0xfffffe84
    2534:	4c352e30 	ldcmi	14, cr2, [r5], #-192	; 0xffffff40
    2538:	2e302d52 	mrccs	13, 1, r2, cr0, cr2, {2}
    253c:	29524c35 	ldmdbcs	r2, {r0, r2, r4, r5, sl, fp, lr}^
    2540:	495f5f00 	ldmdbmi	pc, {r8, r9, sl, fp, ip, lr}^	; <UNPREDICTABLE>
    2544:	4c5f544e 	cfldrdmi	mvd5, [pc], {78}	; 0x4e
    2548:	54534145 	ldrbpl	r4, [r3], #-325	; 0xfffffebb
    254c:	575f3436 	smmlarpl	pc, r6, r4, r3	; <UNPREDICTABLE>
    2550:	48544449 	ldmdami	r4, {r0, r3, r6, sl, lr}^
    2554:	36205f5f 	qsaxcc	r5, r0, pc	; <UNPREDICTABLE>
    2558:	5f5f0034 	svcpl	0x005f0034
    255c:	5f544c46 	svcpl	0x00544c46
    2560:	5f534148 	svcpl	0x00534148
    2564:	49464e49 	stmdbmi	r6, {r0, r3, r6, r9, sl, fp, lr}^
    2568:	5954494e 	ldmdbpl	r4, {r1, r2, r3, r6, r8, fp, lr}^
    256c:	31205f5f 			; <UNDEFINED> instruction: 0x31205f5f
    2570:	54584500 	ldrbpl	r4, [r8], #-1280	; 0xfffffb00
    2574:	49505f49 	ldmdbmi	r0, {r0, r3, r6, r8, r9, sl, fp, ip, lr}^
    2578:	494c5f4e 	stmdbmi	ip, {r1, r2, r3, r6, r8, r9, sl, fp, ip, lr}^
    257c:	5039454e 	eorspl	r4, r9, lr, asr #10
    2580:	28203941 	stmdacs	r0!, {r0, r6, r8, fp, ip, sp}
    2584:	49545845 	ldmdbmi	r4, {r0, r2, r6, fp, ip, lr}^
    2588:	7465535f 	strbtvc	r5, [r5], #-863	; 0xfffffca1
    258c:	745f7075 	ldrbvc	r7, [pc], #-117	; 2594 <_Min_Stack_Size+0x2194>
    2590:	58457b29 	stmdapl	r5, {r0, r3, r5, r8, r9, fp, ip, sp, lr}^
    2594:	2c394954 			; <UNDEFINED> instruction: 0x2c394954
    2598:	4f495047 	svcmi	0x00495047
    259c:	50472c41 	subpl	r2, r7, r1, asr #24
    25a0:	505f4f49 	subspl	r4, pc, r9, asr #30
    25a4:	395f4e49 	ldmdbcc	pc, {r0, r3, r6, r9, sl, fp, lr}^	; <UNPREDICTABLE>
    25a8:	5f5f007d 	svcpl	0x005f007d
    25ac:	55434341 	strbpl	r4, [r3, #-833]	; 0xfffffcbf
    25b0:	414d5f4d 	cmpmi	sp, sp, asr #30
    25b4:	205f5f58 	subscs	r5, pc, r8, asr pc	; <UNPREDICTABLE>
    25b8:	46375830 			; <UNDEFINED> instruction: 0x46375830
    25bc:	46464646 	strbmi	r4, [r6], -r6, asr #12
    25c0:	2d504646 	ldclcs	6, cr4, [r0, #-280]	; 0xfffffee8
    25c4:	004b3531 	subeq	r3, fp, r1, lsr r5
    25c8:	4e495f5f 	mcrmi	15, 2, r5, cr9, cr15, {2}
    25cc:	4d5f3854 	ldclmi	8, cr3, [pc, #-336]	; 2484 <_Min_Stack_Size+0x2084>
    25d0:	5f5f5841 	svcpl	0x005f5841
    25d4:	37783020 	ldrbcc	r3, [r8, -r0, lsr #32]!
    25d8:	564e0066 	strbpl	r0, [lr], -r6, rrx
    25dc:	495f4349 	ldmdbmi	pc, {r0, r3, r6, r8, r9, lr}^	; <UNPREDICTABLE>
    25e0:	5f375152 	svcpl	0x00375152
    25e4:	49545845 	ldmdbmi	r4, {r0, r2, r6, fp, ip, lr}^
    25e8:	4e455f31 	mcrmi	15, 2, r5, cr5, cr1, {1}
    25ec:	454c4241 	strbmi	r4, [ip, #-577]	; 0xfffffdbf
    25f0:	49564e20 	ldmdbmi	r6, {r5, r9, sl, fp, lr}^
    25f4:	53495f43 	movtpl	r5, #40771	; 0x9f43
    25f8:	20305245 	eorscs	r5, r0, r5, asr #4
    25fc:	28203d7c 	stmdacs	r0!, {r2, r3, r4, r5, r6, r8, sl, fp, ip, sp}
    2600:	373c3c31 			; <UNDEFINED> instruction: 0x373c3c31
    2604:	5f003b29 	svcpl	0x00003b29
    2608:	4343475f 	movtmi	r4, #14175	; 0x375f
    260c:	5641485f 			; <UNDEFINED> instruction: 0x5641485f
    2610:	57445f45 	strbpl	r5, [r4, -r5, asr #30]
    2614:	32465241 	subcc	r5, r6, #268435460	; 0x10000004
    2618:	4946435f 	stmdbmi	r6, {r0, r1, r2, r3, r4, r6, r8, r9, lr}^
    261c:	4d53415f 	ldfmie	f4, [r3, #-380]	; 0xfffffe84
    2620:	5f003120 	svcpl	0x00003120
    2624:	4d52415f 	ldfmie	f4, [r2, #-380]	; 0xfffffe84
    2628:	4145465f 	cmpmi	r5, pc, asr r6
    262c:	45525554 	ldrbmi	r5, [r2, #-1364]	; 0xfffffaac
    2630:	4352435f 	cmpmi	r2, #2080374785	; 0x7c000001
    2634:	55003233 	strpl	r3, [r0, #-563]	; 0xfffffdcd
    2638:	534c4954 	movtpl	r4, #51540	; 0xc954
    263c:	205f485f 	subscs	r4, pc, pc, asr r8	; <UNPREDICTABLE>
    2640:	535f5f00 	cmppl	pc, #0, 30
    2644:	42495f41 	submi	r5, r9, #260	; 0x104
    2648:	5f5f5449 	svcpl	0x005f5449
    264c:	00363120 	eorseq	r3, r6, r0, lsr #2
    2650:	49545845 	ldmdbmi	r4, {r0, r2, r6, fp, ip, lr}^
    2654:	4e49505f 	mcrmi	0, 2, r5, cr9, cr15, {2}
    2658:	4e494c5f 	mcrmi	12, 2, r4, cr9, cr15, {2}
    265c:	50303145 	eorspl	r3, r0, r5, asr #2
    2660:	20303144 	eorscs	r3, r0, r4, asr #2
    2664:	54584528 	ldrbpl	r4, [r8], #-1320	; 0xfffffad8
    2668:	65535f49 	ldrbvs	r5, [r3, #-3913]	; 0xfffff0b7
    266c:	5f707574 	svcpl	0x00707574
    2670:	457b2974 	ldrbmi	r2, [fp, #-2420]!	; 0xfffff68c
    2674:	31495458 	cmpcc	r9, r8, asr r4
    2678:	50472c30 	subpl	r2, r7, r0, lsr ip
    267c:	2c444f49 	mcrrcs	15, 4, r4, r4, cr9
    2680:	4f495047 	svcmi	0x00495047
    2684:	4e49505f 	mcrmi	0, 2, r5, cr9, cr15, {2}
    2688:	7d30315f 	ldfvcs	f3, [r0, #-380]!	; 0xfffffe84
    268c:	43435200 	movtmi	r5, #12800	; 0x3200
    2690:	4d49545f 	cfstrdmi	mvd5, [r9, #-380]	; 0xfffffe84
    2694:	455f3331 	ldrbmi	r3, [pc, #-817]	; 236b <_Min_Stack_Size+0x1f6b>
    2698:	2029284e 	eorcs	r2, r9, lr, asr #16
    269c:	2d434352 	stclcs	3, cr4, [r3, #-328]	; 0xfffffeb8
    26a0:	4250413e 	subsmi	r4, r0, #-2147483633	; 0x8000000f
    26a4:	524e4531 	subpl	r4, lr, #205520896	; 0xc400000
    26a8:	203d7c20 	eorscs	r7, sp, r0, lsr #24
    26ac:	3c3c3128 	ldfccs	f3, [ip], #-160	; 0xffffff60
    26b0:	5f002937 	svcpl	0x00002937
    26b4:	4343475f 	movtmi	r4, #14175	; 0x375f
    26b8:	4345495f 	movtmi	r4, #22879	; 0x595f
    26bc:	3935355f 	ldmdbcc	r5!, {r0, r1, r2, r3, r4, r6, r8, sl, ip, sp}
    26c0:	4d4f435f 	stclmi	3, cr4, [pc, #-380]	; 254c <_Min_Stack_Size+0x214c>
    26c4:	58454c50 	stmdapl	r5, {r4, r6, sl, fp, lr}^
    26c8:	5f003020 	svcpl	0x00003020
    26cc:	4d52415f 	ldfmie	f4, [r2, #-380]	; 0xfffffe84
    26d0:	4145465f 	cmpmi	r5, pc, asr r6
    26d4:	45525554 	ldrbmi	r5, [r2, #-1364]	; 0xfffffaac
    26d8:	45564d5f 	ldrbmi	r4, [r6, #-3423]	; 0xfffff2a1
    26dc:	415f5f00 	cmpmi	pc, r0, lsl #30
    26e0:	465f4d52 			; <UNDEFINED> instruction: 0x465f4d52
    26e4:	5f363150 	svcpl	0x00363150
    26e8:	4d524f46 	ldclmi	15, cr4, [r2, #-280]	; 0xfffffee8
    26ec:	495f5441 	ldmdbmi	pc, {r0, r6, sl, ip, lr}^	; <UNPREDICTABLE>
    26f0:	00454545 	subeq	r4, r5, r5, asr #10
    26f4:	49555f5f 	ldmdbmi	r5, {r0, r1, r2, r3, r4, r6, r8, r9, sl, fp, ip, lr}^
    26f8:	3631544e 	ldrtcc	r5, [r1], -lr, asr #8
    26fc:	5059545f 	subspl	r5, r9, pc, asr r4
    2700:	205f5f45 	subscs	r5, pc, r5, asr #30
    2704:	726f6873 	rsbvc	r6, pc, #7536640	; 0x730000
    2708:	6e752074 	mrcvs	0, 3, r2, cr5, cr4, {3}
    270c:	6e676973 			; <UNDEFINED> instruction: 0x6e676973
    2710:	69206465 	stmdbvs	r0!, {r0, r2, r5, r6, sl, sp, lr}
    2714:	4600746e 	strmi	r7, [r0], -lr, ror #8
    2718:	72502f3a 	subsvc	r2, r0, #58, 30	; 0xe8
    271c:	63656a6f 	cmnvs	r5, #454656	; 0x6f000
    2720:	442f7374 	strtmi	r7, [pc], #-884	; 2728 <_Min_Stack_Size+0x2328>
    2724:	65766972 	ldrbvs	r6, [r6, #-2418]!	; 0xfffff68e
    2728:	532f7372 			; <UNDEFINED> instruction: 0x532f7372
    272c:	575f4d54 			; <UNDEFINED> instruction: 0x575f4d54
    2730:	736b726f 	cmnvc	fp, #-268435450	; 0xf0000006
    2734:	65636170 	strbvs	r6, [r3, #-368]!	; 0xfffffe90
    2738:	6972442f 	ldmdbvs	r2!, {r0, r1, r2, r3, r5, sl, lr}^
    273c:	73726576 	cmnvc	r2, #494927872	; 0x1d800000
    2740:	6265442f 	rsbvs	r4, r5, #788529152	; 0x2f000000
    2744:	4d006775 	stcmi	7, cr6, [r0, #-468]	; 0xfffffe2c
    2748:	49544e41 	ldmdbmi	r4, {r0, r6, r9, sl, fp, lr}^
    274c:	28415353 	stmdacs	r1, {r0, r1, r4, r6, r8, r9, ip, lr}^
    2750:	4c43505f 	mcrrmi	0, 5, r5, r3, cr15
    2754:	425f2c4b 	subsmi	r2, pc, #19200	; 0x4b00
    2758:	52445541 	subpl	r5, r4, #272629760	; 0x10400000
    275c:	29455441 	stmdbcs	r5, {r0, r6, sl, ip, lr}^
    2760:	69752820 	ldmdbvs	r5!, {r5, fp, sp}^
    2764:	3233746e 	eorscc	r7, r3, #1845493760	; 0x6e000000
    2768:	2829745f 	stmdacs	r9!, {r0, r1, r2, r3, r4, r6, sl, ip, sp, lr}
    276c:	52415355 	subpl	r5, r1, #1409286145	; 0x54000001
    2770:	56494454 			; <UNDEFINED> instruction: 0x56494454
    2774:	43505f28 	cmpmi	r0, #40, 30	; 0xa0
    2778:	5f2c4b4c 	svcpl	0x002c4b4c
    277c:	44554142 	ldrbmi	r4, [r5], #-322	; 0xfffffebe
    2780:	45544152 	ldrbmi	r4, [r4, #-338]	; 0xfffffeae
    2784:	5f002929 	svcpl	0x00002929
    2788:	464f535f 			; <UNDEFINED> instruction: 0x464f535f
    278c:	5f504654 	svcpl	0x00504654
    2790:	0031205f 	eorseq	r2, r1, pc, asr r0
    2794:	49555f5f 	ldmdbmi	r5, {r0, r1, r2, r3, r4, r6, r8, r9, sl, fp, ip, lr}^
    2798:	3233544e 	eorscc	r5, r3, #1308622848	; 0x4e000000
    279c:	58414d5f 	stmdapl	r1, {r0, r1, r2, r3, r4, r6, r8, sl, fp, lr}^
    27a0:	30205f5f 	eorcc	r5, r0, pc, asr pc
    27a4:	66666678 			; <UNDEFINED> instruction: 0x66666678
    27a8:	66666666 	strbtvs	r6, [r6], -r6, ror #12
    27ac:	004c5566 	subeq	r5, ip, r6, ror #10
    27b0:	49555f5f 	ldmdbmi	r5, {r0, r1, r2, r3, r4, r6, r8, r9, sl, fp, ip, lr}^
    27b4:	3436544e 	ldrtcc	r5, [r6], #-1102	; 0xfffffbb2
    27b8:	58414d5f 	stmdapl	r1, {r0, r1, r2, r3, r4, r6, r8, sl, fp, lr}^
    27bc:	30205f5f 	eorcc	r5, r0, pc, asr pc
    27c0:	66666678 			; <UNDEFINED> instruction: 0x66666678
    27c4:	66666666 	strbtvs	r6, [r6], -r6, ror #12
    27c8:	66666666 	strbtvs	r6, [r6], -r6, ror #12
    27cc:	66666666 	strbtvs	r6, [r6], -r6, ror #12
    27d0:	4c4c5566 	cfstr64mi	mvdx5, [ip], {102}	; 0x66
    27d4:	465f5f00 	ldrbmi	r5, [pc], -r0, lsl #30
    27d8:	455f544c 	ldrbmi	r5, [pc, #-1100]	; 2394 <_Min_Stack_Size+0x1f94>
    27dc:	5f4c4156 	svcpl	0x004c4156
    27e0:	4854454d 	ldmdami	r4, {r0, r2, r3, r6, r8, sl, lr}^
    27e4:	545f444f 	ldrbpl	r4, [pc], #-1103	; 27ec <_Min_Stack_Size+0x23ec>
    27e8:	38315f53 	ldmdacc	r1!, {r0, r1, r4, r6, r8, r9, sl, fp, ip, lr}
    27ec:	5f313636 	svcpl	0x00313636
    27f0:	205f5f33 	subscs	r5, pc, r3, lsr pc	; <UNPREDICTABLE>
    27f4:	43520030 	cmpmi	r2, #48	; 0x30
    27f8:	28282043 	stmdacs	r8!, {r0, r1, r6, sp}
    27fc:	5f434352 	svcpl	0x00434352
    2800:	52292a74 	eorpl	r2, r9, #116, 20	; 0x74000
    2804:	425f4343 	subsmi	r4, pc, #201326593	; 0xc000001
    2808:	5f455341 	svcpl	0x00455341
    280c:	45444441 	strbmi	r4, [r4, #-1089]	; 0xfffffbbf
    2810:	53534552 	cmppl	r3, #343932928	; 0x14800000
    2814:	5f5f0029 	svcpl	0x005f0029
    2818:	41484353 	cmpmi	r8, r3, asr r3
    281c:	49575f52 	ldmdbmi	r7, {r1, r4, r6, r8, r9, sl, fp, ip, lr}^
    2820:	5f485444 	svcpl	0x00485444
    2824:	0038205f 	eorseq	r2, r8, pc, asr r0
    2828:	49555f5f 	ldmdbmi	r5, {r0, r1, r2, r3, r4, r6, r8, r9, sl, fp, ip, lr}^
    282c:	465f544e 	ldrbmi	r5, [pc], -lr, asr #8
    2830:	38545341 	ldmdacc	r4, {r0, r6, r8, r9, ip, lr}^
    2834:	5059545f 	subspl	r5, r9, pc, asr r4
    2838:	205f5f45 	subscs	r5, pc, r5, asr #30
    283c:	69736e75 	ldmdbvs	r3!, {r0, r2, r4, r5, r6, r9, sl, fp, sp, lr}^
    2840:	64656e67 	strbtvs	r6, [r5], #-3687	; 0xfffff199
    2844:	746e6920 	strbtvc	r6, [lr], #-2336	; 0xfffff6e0
    2848:	4c5f5f00 	mrrcmi	15, 0, r5, pc, cr0	; <UNPREDICTABLE>
    284c:	4343414c 	movtmi	r4, #12620	; 0x314c
    2850:	495f4d55 	ldmdbmi	pc, {r0, r2, r4, r6, r8, sl, fp, lr}^	; <UNPREDICTABLE>
    2854:	5f544942 	svcpl	0x00544942
    2858:	3233205f 	eorscc	r2, r3, #95	; 0x5f
    285c:	465f5f00 	ldrbmi	r5, [pc], -r0, lsl #30
    2860:	54434152 	strbpl	r4, [r3], #-338	; 0xfffffeae
    2864:	5350455f 	cmppl	r0, #398458880	; 0x17c00000
    2868:	4e4f4c49 	cdpmi	12, 4, cr4, cr15, cr9, {2}
    286c:	30205f5f 	eorcc	r5, r0, pc, asr pc
    2870:	2d503178 	ldfcse	f3, [r0, #-480]	; 0xfffffe20
    2874:	00523531 	subseq	r3, r2, r1, lsr r5
    2878:	5f434352 	svcpl	0x00434352
    287c:	52415355 	subpl	r5, r1, #1409286145	; 0x54000001
    2880:	455f3354 	ldrbmi	r3, [pc, #-852]	; 2534 <_Min_Stack_Size+0x2134>
    2884:	2029284e 	eorcs	r2, r9, lr, asr #16
    2888:	2d434352 	stclcs	3, cr4, [r3, #-328]	; 0xfffffeb8
    288c:	4250413e 	subsmi	r4, r0, #-2147483633	; 0x8000000f
    2890:	524e4531 	subpl	r4, lr, #205520896	; 0xc400000
    2894:	203d7c20 	eorscs	r7, sp, r0, lsr #24
    2898:	3c3c3128 	ldfccs	f3, [ip], #-160	; 0xffffff60
    289c:	00293831 	eoreq	r3, r9, r1, lsr r8
    28a0:	49545845 	ldmdbmi	r4, {r0, r2, r6, fp, ip, lr}^
    28a4:	4e49505f 	mcrmi	0, 2, r5, cr9, cr15, {2}
    28a8:	4e494c5f 	mcrmi	12, 2, r4, cr9, cr15, {2}
    28ac:	41503745 	cmpmi	r0, r5, asr #14
    28b0:	45282037 	strmi	r2, [r8, #-55]!	; 0xffffffc9
    28b4:	5f495458 	svcpl	0x00495458
    28b8:	75746553 	ldrbvc	r6, [r4, #-1363]!	; 0xfffffaad
    28bc:	29745f70 	ldmdbcs	r4!, {r4, r5, r6, r8, r9, sl, fp, ip, lr}^
    28c0:	5458457b 	ldrbpl	r4, [r8], #-1403	; 0xfffffa85
    28c4:	472c3749 	strmi	r3, [ip, -r9, asr #14]!
    28c8:	414f4950 	cmpmi	pc, r0, asr r9	; <UNPREDICTABLE>
    28cc:	4950472c 	ldmdbmi	r0, {r2, r3, r5, r8, r9, sl, lr}^
    28d0:	49505f4f 	ldmdbmi	r0, {r0, r1, r2, r3, r6, r8, r9, sl, fp, ip, lr}^
    28d4:	7d375f4e 	ldcvc	15, cr5, [r7, #-312]!	; 0xfffffec8
    28d8:	495f5f00 	ldmdbmi	pc, {r8, r9, sl, fp, ip, lr}^	; <UNPREDICTABLE>
    28dc:	3233544e 	eorscc	r5, r3, #1308622848	; 0x4e000000
    28e0:	58414d5f 	stmdapl	r1, {r0, r1, r2, r3, r4, r6, r8, sl, fp, lr}^
    28e4:	30205f5f 	eorcc	r5, r0, pc, asr pc
    28e8:	66663778 			; <UNDEFINED> instruction: 0x66663778
    28ec:	66666666 	strbtvs	r6, [r6], -r6, ror #12
    28f0:	47004c66 	strmi	r4, [r0, -r6, ror #24]
    28f4:	5f4f4950 	svcpl	0x004f4950
    28f8:	54524f50 	ldrbpl	r4, [r2], #-3920	; 0xfffff0b0
    28fc:	54415453 	strbpl	r5, [r1], #-1107	; 0xfffffbad
    2900:	4f4c5f45 	svcmi	0x004c5f45
    2904:	78302057 	ldmdavc	r0!, {r0, r1, r2, r4, r6, sp}
    2908:	30303030 	eorscc	r3, r0, r0, lsr r0
    290c:	495f5f00 	ldmdbmi	pc, {r8, r9, sl, fp, ip, lr}^	; <UNPREDICTABLE>
    2910:	4c5f544e 	cfldrdmi	mvd5, [pc], {78}	; 0x4e
    2914:	54534145 	ldrbpl	r4, [r3], #-325	; 0xfffffebb
    2918:	4d5f3436 	cfldrdmi	mvd3, [pc, #-216]	; 2848 <_Min_Stack_Size+0x2448>
    291c:	5f5f5841 	svcpl	0x005f5841
    2920:	37783020 	ldrbcc	r3, [r8, -r0, lsr #32]!
    2924:	66666666 	strbtvs	r6, [r6], -r6, ror #12
    2928:	66666666 	strbtvs	r6, [r6], -r6, ror #12
    292c:	66666666 	strbtvs	r6, [r6], -r6, ror #12
    2930:	4c666666 	stclmi	6, cr6, [r6], #-408	; 0xfffffe68
    2934:	5f5f004c 	svcpl	0x005f004c
    2938:	5f4d5241 	svcpl	0x004d5241
    293c:	54414546 	strbpl	r4, [r1], #-1350	; 0xfffffaba
    2940:	5f455255 	svcpl	0x00455255
    2944:	36314642 	ldrtcc	r4, [r1], -r2, asr #12
    2948:	4345565f 	movtmi	r5, #22111	; 0x565f
    294c:	5f524f54 	svcpl	0x00524f54
    2950:	54495241 	strbpl	r5, [r9], #-577	; 0xfffffdbf
    2954:	54454d48 	strbpl	r4, [r5], #-3400	; 0xfffff2b8
    2958:	45004349 	strmi	r4, [r0, #-841]	; 0xfffffcb7
    295c:	5f495458 	svcpl	0x00495458
    2960:	5f4e4950 	svcpl	0x004e4950
    2964:	454e494c 	strbmi	r4, [lr, #-2380]	; 0xfffff6b4
    2968:	35445035 	strbcc	r5, [r4, #-53]	; 0xffffffcb
    296c:	58452820 	stmdapl	r5, {r5, fp, sp}^
    2970:	535f4954 	cmppl	pc, #84, 18	; 0x150000
    2974:	70757465 	rsbsvc	r7, r5, r5, ror #8
    2978:	7b29745f 	blvc	a5fafc <_Min_Stack_Size+0xa5f6fc>
    297c:	49545845 	ldmdbmi	r4, {r0, r2, r6, fp, ip, lr}^
    2980:	50472c35 	subpl	r2, r7, r5, lsr ip
    2984:	2c444f49 	mcrrcs	15, 4, r4, r4, cr9
    2988:	4f495047 	svcmi	0x00495047
    298c:	4e49505f 	mcrmi	0, 2, r5, cr9, cr15, {2}
    2990:	007d355f 	rsbseq	r3, sp, pc, asr r5
    2994:	4c465f5f 	mcrrmi	15, 5, r5, r6, cr15
    2998:	5f323354 	svcpl	0x00323354
    299c:	544e414d 	strbpl	r4, [lr], #-333	; 0xfffffeb3
    29a0:	4749445f 	smlsldmi	r4, r9, pc, r4	; <UNPREDICTABLE>
    29a4:	32205f5f 	eorcc	r5, r0, #380	; 0x17c
    29a8:	2e2e0034 	mcrcs	0, 1, r0, cr14, cr4, {1}
    29ac:	6372532f 	cmnvs	r2, #-1140850688	; 0xbc000000
    29b0:	41434d2f 	cmpmi	r3, pc, lsr #26
    29b4:	58452f4c 	stmdapl	r5, {r2, r3, r6, r8, r9, sl, fp, sp}^
    29b8:	44204954 	strtmi	r4, [r0], #-2388	; 0xfffff6ac
    29bc:	65766972 	ldrbvs	r6, [r6, #-2418]!	; 0xfffff68e
    29c0:	58452f72 	stmdapl	r5, {r1, r4, r5, r6, r8, r9, sl, fp, sp}^
    29c4:	705f4954 	subsvc	r4, pc, r4, asr r9	; <UNPREDICTABLE>
    29c8:	72676f72 	rsbvc	r6, r7, #456	; 0x1c8
    29cc:	632e6d61 			; <UNDEFINED> instruction: 0x632e6d61
    29d0:	465f5f00 	ldrbmi	r5, [pc], -r0, lsl #30
    29d4:	3233544c 	eorscc	r5, r3, #76, 8	; 0x4c000000
    29d8:	4e45445f 	mcrmi	4, 2, r4, cr5, cr15, {2}
    29dc:	5f4d524f 	svcpl	0x004d524f
    29e0:	5f4e494d 	svcpl	0x004e494d
    29e4:	2e31205f 	mrccs	0, 1, r2, cr1, cr15, {2}
    29e8:	32313034 	eorscc	r3, r1, #52	; 0x34
    29ec:	36343839 			; <UNDEFINED> instruction: 0x36343839
    29f0:	34323334 	ldrtcc	r3, [r2], #-820	; 0xfffffccc
    29f4:	31373138 	teqcc	r7, r8, lsr r1
    29f8:	35342d65 	ldrcc	r2, [r4, #-3429]!	; 0xfffff29b
    29fc:	00323346 	eorseq	r3, r2, r6, asr #6
    2a00:	4349564e 	movtmi	r5, #38478	; 0x964e
    2a04:	5152495f 	cmppl	r2, pc, asr r9
    2a08:	455f3332 	ldrbmi	r3, [pc, #-818]	; 26de <_Min_Stack_Size+0x22de>
    2a0c:	39495458 	stmdbcc	r9, {r3, r4, r6, sl, ip, lr}^
    2a10:	455f355f 	ldrbmi	r3, [pc, #-1375]	; 24b9 <_Min_Stack_Size+0x20b9>
    2a14:	4c42414e 	stfmie	f4, [r2], {78}	; 0x4e
    2a18:	564e2045 	strbpl	r2, [lr], -r5, asr #32
    2a1c:	495f4349 	ldmdbmi	pc, {r0, r3, r6, r8, r9, lr}^	; <UNPREDICTABLE>
    2a20:	30524553 	subscc	r4, r2, r3, asr r5
    2a24:	203d7c20 	eorscs	r7, sp, r0, lsr #24
    2a28:	3c3c3128 	ldfccs	f3, [ip], #-160	; 0xffffff60
    2a2c:	3b293332 	blcc	a4f6fc <_Min_Stack_Size+0xa4f2fc>
    2a30:	555f5f00 	ldrbpl	r5, [pc, #-3840]	; 1b38 <_Min_Stack_Size+0x1738>
    2a34:	36544e49 	ldrbcc	r4, [r4], -r9, asr #28
    2a38:	28435f34 	stmdacs	r3, {r2, r4, r5, r8, r9, sl, fp, ip, lr}^
    2a3c:	63202963 			; <UNDEFINED> instruction: 0x63202963
    2a40:	20232320 	eorcs	r2, r3, r0, lsr #6
    2a44:	004c4c55 	subeq	r4, ip, r5, asr ip
    2a48:	49555f5f 	ldmdbmi	r5, {r0, r1, r2, r3, r4, r6, r8, r9, sl, fp, ip, lr}^
    2a4c:	4c5f544e 	cfldrdmi	mvd5, [pc], {78}	; 0x4e
    2a50:	54534145 	ldrbpl	r4, [r3], #-325	; 0xfffffebb
    2a54:	545f3436 	ldrbpl	r3, [pc], #-1078	; 2a5c <_Min_Stack_Size+0x265c>
    2a58:	5f455059 	svcpl	0x00455059
    2a5c:	6f6c205f 	svcvs	0x006c205f
    2a60:	6c20676e 	stcvs	7, cr6, [r0], #-440	; 0xfffffe48
    2a64:	20676e6f 	rsbcs	r6, r7, pc, ror #28
    2a68:	69736e75 	ldmdbvs	r3!, {r0, r2, r4, r5, r6, r9, sl, fp, sp, lr}^
    2a6c:	64656e67 	strbtvs	r6, [r5], #-3687	; 0xfffff199
    2a70:	746e6920 	strbtvc	r6, [lr], #-2336	; 0xfffff6e0
    2a74:	49564e00 	ldmdbmi	r6, {r9, sl, fp, lr}^
    2a78:	53495f43 	movtpl	r5, #40771	; 0x9f43
    2a7c:	20305245 	eorscs	r5, r0, r5, asr #4
    2a80:	7576282a 	ldrbvc	r2, [r6, #-2090]!	; 0xfffff7d6
    2a84:	33746e69 	cmncc	r4, #1680	; 0x690
    2a88:	2a745f32 	bcs	1d1a758 <_Min_Stack_Size+0x1d1a358>
    2a8c:	564e2829 	strbpl	r2, [lr], -r9, lsr #16
    2a90:	425f4349 	subsmi	r4, pc, #603979777	; 0x24000001
    2a94:	5f455341 	svcpl	0x00455341
    2a98:	45444441 	strbmi	r4, [r4, #-1089]	; 0xfffffbbf
    2a9c:	53534552 	cmppl	r3, #343932928	; 0x14800000
    2aa0:	3078302b 	rsbscc	r3, r8, fp, lsr #32
    2aa4:	00293030 	eoreq	r3, r9, r0, lsr r0
    2aa8:	444c5f5f 	strbmi	r5, [ip], #-3935	; 0xfffff0a1
    2aac:	455f4c42 	ldrbmi	r4, [pc, #-3138]	; 1e72 <_Min_Stack_Size+0x1a72>
    2ab0:	4c495350 	mcrrmi	3, 5, r5, r9, cr0
    2ab4:	5f5f4e4f 	svcpl	0x005f4e4f
    2ab8:	322e3220 	eorcc	r3, lr, #32, 4
    2abc:	34343032 	ldrtcc	r3, [r4], #-50	; 0xffffffce
    2ac0:	39343036 	ldmdbcc	r4!, {r1, r2, r4, r5, ip, sp}
    2ac4:	33303532 	teqcc	r0, #209715200	; 0xc800000
    2ac8:	65313331 	ldrvs	r3, [r1, #-817]!	; 0xfffffccf
    2acc:	4c36312d 	ldfmis	f3, [r6], #-180	; 0xffffff4c
    2ad0:	475f5f00 	ldrbmi	r5, [pc, -r0, lsl #30]
    2ad4:	415f4343 	cmpmi	pc, r3, asr #6
    2ad8:	494d4f54 	stmdbmi	sp, {r2, r4, r6, r8, r9, sl, fp, lr}^
    2adc:	48435f43 	stmdami	r3, {r0, r1, r6, r8, r9, sl, fp, ip, lr}^
    2ae0:	36315241 	ldrtcc	r5, [r1], -r1, asr #4
    2ae4:	4c5f545f 	cfldrdmi	mvd5, [pc], {95}	; 0x5f
    2ae8:	5f4b434f 	svcpl	0x004b434f
    2aec:	45455246 	strbmi	r5, [r5, #-582]	; 0xfffffdba
    2af0:	47003220 	strmi	r3, [r0, -r0, lsr #4]
    2af4:	5f4f4950 	svcpl	0x004f4950
    2af8:	54524f50 	ldrbpl	r4, [r2], #-3920	; 0xfffff0b0
    2afc:	444f4d5f 	strbmi	r4, [pc], #-3423	; 2b04 <_Min_Stack_Size+0x2704>
    2b00:	4c415f45 	mcrrmi	15, 4, r5, r1, cr5
    2b04:	4e524554 	mrcmi	5, 2, r4, cr2, cr4, {2}
    2b08:	5f455441 	svcpl	0x00455441
    2b0c:	4e45504f 	cdpmi	0, 4, cr5, cr5, cr15, {2}
    2b10:	4152445f 	cmpmi	r2, pc, asr r4
    2b14:	315f4e49 	cmpcc	pc, r9, asr #28
    2b18:	484d5f30 	stmdami	sp, {r4, r5, r8, r9, sl, fp, ip, lr}^
    2b1c:	7830205a 	ldmdavc	r0!, {r1, r3, r4, r6, sp}
    2b20:	44444444 	strbmi	r4, [r4], #-1092	; 0xfffffbbc
    2b24:	44444444 	strbmi	r4, [r4], #-1092	; 0xfffffbbc
    2b28:	4b434c00 	blmi	10d5b30 <_Min_Stack_Size+0x10d5730>
    2b2c:	5f5f0052 	svcpl	0x005f0052
    2b30:	5f4c4244 	svcpl	0x004c4244
    2b34:	5f58414d 	svcpl	0x0058414d
    2b38:	5f505845 	svcpl	0x00505845
    2b3c:	3031205f 	eorscc	r2, r1, pc, asr r0
    2b40:	5f003432 	svcpl	0x00003432
    2b44:	4f54415f 	svcmi	0x0054415f
    2b48:	5f43494d 	svcpl	0x0043494d
    2b4c:	454c4552 	strbmi	r4, [ip, #-1362]	; 0xfffffaae
    2b50:	20455341 	subcs	r5, r5, r1, asr #6
    2b54:	564e0033 			; <UNDEFINED> instruction: 0x564e0033
    2b58:	495f4349 	ldmdbmi	pc, {r0, r3, r6, r8, r9, lr}^	; <UNPREDICTABLE>
    2b5c:	30345152 	eorscc	r5, r4, r2, asr r1
    2b60:	5458455f 	ldrbpl	r4, [r8], #-1375	; 0xfffffaa1
    2b64:	5f353149 	svcpl	0x00353149
    2b68:	455f3031 	ldrbmi	r3, [pc, #-49]	; 2b3f <_Min_Stack_Size+0x273f>
    2b6c:	4c42414e 	stfmie	f4, [r2], {78}	; 0x4e
    2b70:	564e2045 	strbpl	r2, [lr], -r5, asr #32
    2b74:	495f4349 	ldmdbmi	pc, {r0, r3, r6, r8, r9, lr}^	; <UNPREDICTABLE>
    2b78:	31524553 	cmpcc	r2, r3, asr r5
    2b7c:	203d7c20 	eorscs	r7, sp, r0, lsr #24
    2b80:	3c3c3128 	ldfccs	f3, [ip], #-160	; 0xffffff60
    2b84:	003b2938 	eorseq	r2, fp, r8, lsr r9
    2b88:	4c465f5f 	mcrrmi	15, 5, r5, r6, cr15
    2b8c:	58323354 	ldmdapl	r2!, {r2, r4, r6, r8, r9, ip, sp}
    2b90:	5341485f 	movtpl	r4, #6239	; 0x185f
    2b94:	4e45445f 	mcrmi	4, 2, r4, cr5, cr15, {2}
    2b98:	5f4d524f 	svcpl	0x004d524f
    2b9c:	0031205f 	eorseq	r2, r1, pc, asr r0
    2ba0:	4c465f5f 	mcrrmi	15, 5, r5, r6, cr15
    2ba4:	414d5f54 	cmpmi	sp, r4, asr pc
    2ba8:	445f544e 	ldrbmi	r5, [pc], #-1102	; 2bb0 <_Min_Stack_Size+0x27b0>
    2bac:	5f5f4749 	svcpl	0x005f4749
    2bb0:	00343220 	eorseq	r3, r4, r0, lsr #4
    2bb4:	44555f5f 	ldrbmi	r5, [r5], #-3935	; 0xfffff0a1
    2bb8:	42495f51 	submi	r5, r9, #324	; 0x144
    2bbc:	5f5f5449 	svcpl	0x005f5449
    2bc0:	5f003020 	svcpl	0x00003020
    2bc4:	4341555f 	movtmi	r5, #5471	; 0x155f
    2bc8:	5f4d5543 	svcpl	0x004d5543
    2bcc:	5f58414d 	svcpl	0x0058414d
    2bd0:	5830205f 	ldmdapl	r0!, {r0, r1, r2, r3, r4, r6, sp}
    2bd4:	46464646 	strbmi	r4, [r6], -r6, asr #12
    2bd8:	46464646 	strbmi	r4, [r6], -r6, asr #12
    2bdc:	36312d50 			; <UNDEFINED> instruction: 0x36312d50
    2be0:	5f004b55 	svcpl	0x00004b55
    2be4:	544c465f 	strbpl	r4, [ip], #-1631	; 0xfffff9a1
    2be8:	4e5f3436 	mrcmi	4, 2, r3, cr15, cr6, {1}
    2bec:	5f4d524f 	svcpl	0x004d524f
    2bf0:	5f58414d 	svcpl	0x0058414d
    2bf4:	2e31205f 	mrccs	0, 1, r2, cr1, cr15, {2}
    2bf8:	36373937 			; <UNDEFINED> instruction: 0x36373937
    2bfc:	33313339 	teqcc	r1, #-469762048	; 0xe4000000
    2c00:	32363834 	eorscc	r3, r6, #52, 16	; 0x340000
    2c04:	37353133 			; <UNDEFINED> instruction: 0x37353133
    2c08:	30332b65 	eorscc	r2, r3, r5, ror #22
    2c0c:	34364638 	ldrtcc	r4, [r6], #-1592	; 0xfffff9c8
    2c10:	41535500 	cmpmi	r3, r0, lsl #10
    2c14:	20325452 	eorscs	r5, r2, r2, asr r4
    2c18:	53552828 	cmppl	r5, #40, 16	; 0x280000
    2c1c:	5f545241 	svcpl	0x00545241
    2c20:	55292a74 	strpl	r2, [r9, #-2676]!	; 0xfffff58c
    2c24:	54524153 	ldrbpl	r4, [r2], #-339	; 0xfffffead
    2c28:	41425f32 	cmpmi	r2, r2, lsr pc
    2c2c:	415f4553 	cmpmi	pc, r3, asr r5	; <UNPREDICTABLE>
    2c30:	52454444 	subpl	r4, r5, #68, 8	; 0x44000000
    2c34:	29535345 	ldmdbcs	r3, {r0, r2, r6, r8, r9, ip, lr}^
    2c38:	54584500 	ldrbpl	r4, [r8], #-1280	; 0xfffffb00
    2c3c:	49505f49 	ldmdbmi	r0, {r0, r3, r6, r8, r9, sl, fp, ip, lr}^
    2c40:	494c5f4e 	stmdbmi	ip, {r1, r2, r3, r6, r8, r9, sl, fp, ip, lr}^
    2c44:	3531454e 	ldrcc	r4, [r1, #-1358]!	; 0xfffffab2
    2c48:	35314450 	ldrcc	r4, [r1, #-1104]!	; 0xfffffbb0
    2c4c:	58452820 	stmdapl	r5, {r5, fp, sp}^
    2c50:	535f4954 	cmppl	pc, #84, 18	; 0x150000
    2c54:	70757465 	rsbsvc	r7, r5, r5, ror #8
    2c58:	7b29745f 	blvc	a5fddc <_Min_Stack_Size+0xa5f9dc>
    2c5c:	49545845 	ldmdbmi	r4, {r0, r2, r6, fp, ip, lr}^
    2c60:	472c3531 			; <UNDEFINED> instruction: 0x472c3531
    2c64:	444f4950 	strbmi	r4, [pc], #-2384	; 2c6c <_Min_Stack_Size+0x286c>
    2c68:	4950472c 	ldmdbmi	r0, {r2, r3, r5, r8, r9, sl, lr}^
    2c6c:	49505f4f 	ldmdbmi	r0, {r0, r1, r2, r3, r6, r8, r9, sl, fp, ip, lr}^
    2c70:	35315f4e 	ldrcc	r5, [r1, #-3918]!	; 0xfffff0b2
    2c74:	5f5f007d 	svcpl	0x005f007d
    2c78:	4c42444c 	cfstrdmi	mvd4, [r2], {76}	; 0x4c
    2c7c:	4e45445f 	mcrmi	4, 2, r4, cr5, cr15, {2}
    2c80:	5f4d524f 	svcpl	0x004d524f
    2c84:	5f4e494d 	svcpl	0x004e494d
    2c88:	2e34205f 	mrccs	0, 1, r2, cr4, cr15, {2}
    2c8c:	36303439 			; <UNDEFINED> instruction: 0x36303439
    2c90:	35343635 	ldrcc	r3, [r4, #-1589]!	; 0xfffff9cb
    2c94:	32313438 	eorscc	r3, r1, #56, 8	; 0x38000000
    2c98:	34353634 	ldrtcc	r3, [r5], #-1588	; 0xfffff9cc
    2c9c:	32332d65 	eorscc	r2, r3, #6464	; 0x1940
    2ca0:	5f004c34 	svcpl	0x00004c34
    2ca4:	544e495f 	strbpl	r4, [lr], #-2399	; 0xfffff6a1
    2ca8:	4d5f3436 	cfldrdmi	mvd3, [pc, #-216]	; 2bd8 <_Min_Stack_Size+0x27d8>
    2cac:	5f5f5841 	svcpl	0x005f5841
    2cb0:	37783020 	ldrbcc	r3, [r8, -r0, lsr #32]!
    2cb4:	66666666 	strbtvs	r6, [r6], -r6, ror #12
    2cb8:	66666666 	strbtvs	r6, [r6], -r6, ror #12
    2cbc:	66666666 	strbtvs	r6, [r6], -r6, ror #12
    2cc0:	4c666666 	stclmi	6, cr6, [r6], #-408	; 0xfffffe68
    2cc4:	5f5f004c 	svcpl	0x005f004c
    2cc8:	5f4d5241 	svcpl	0x004d5241
    2ccc:	54414546 	strbpl	r4, [r1], #-1350	; 0xfffffaba
    2cd0:	5f455255 	svcpl	0x00455255
    2cd4:	20544153 	subscs	r4, r4, r3, asr r1
    2cd8:	58450031 	stmdapl	r5, {r0, r4, r5}^
    2cdc:	545f4954 	ldrbpl	r4, [pc], #-2388	; 2ce4 <_Min_Stack_Size+0x28e4>
    2ce0:	47474952 	smlsldmi	r4, r7, r2, r9
    2ce4:	465f5245 	ldrbmi	r5, [pc], -r5, asr #4
    2ce8:	494c4c41 	stmdbmi	ip, {r0, r6, sl, fp, lr}^
    2cec:	3120474e 			; <UNDEFINED> instruction: 0x3120474e
    2cf0:	555f5f00 	ldrbpl	r5, [pc, #-3840]	; 1df8 <_Min_Stack_Size+0x19f8>
    2cf4:	52464c4c 	subpl	r4, r6, #76, 24	; 0x4c00
    2cf8:	5f544341 	svcpl	0x00544341
    2cfc:	54494249 	strbpl	r4, [r9], #-585	; 0xfffffdb7
    2d00:	30205f5f 	eorcc	r5, r0, pc, asr pc
    2d04:	475f5f00 	ldrbmi	r5, [pc, -r0, lsl #30]
    2d08:	5f43554e 	svcpl	0x0043554e
    2d0c:	3131205f 	teqcc	r1, pc, asr r0
    2d10:	4c5f5f00 	mrrcmi	15, 0, r5, pc, cr0	; <UNPREDICTABLE>
    2d14:	5f474e4f 	svcpl	0x00474e4f
    2d18:	54444957 	strbpl	r4, [r4], #-2391	; 0xfffff6a9
    2d1c:	205f5f48 	subscs	r5, pc, r8, asr #30
    2d20:	45003233 	strmi	r3, [r0, #-563]	; 0xfffffdcd
    2d24:	00524356 	subseq	r4, r2, r6, asr r3
    2d28:	49545845 	ldmdbmi	r4, {r0, r2, r6, fp, ip, lr}^
    2d2c:	4e49505f 	mcrmi	0, 2, r5, cr9, cr15, {2}
    2d30:	43435200 	movtmi	r5, #12800	; 0x3200
    2d34:	414d445f 	cmpmi	sp, pc, asr r4
    2d38:	4e455f32 	mcrmi	15, 2, r5, cr5, cr2, {1}
    2d3c:	52202928 	eorpl	r2, r0, #40, 18	; 0xa0000
    2d40:	3e2d4343 	cdpcc	3, 2, cr4, cr13, cr3, {2}
    2d44:	45424841 	strbmi	r4, [r2, #-2113]	; 0xfffff7bf
    2d48:	7c20524e 	sfmvc	f5, 4, [r0], #-312	; 0xfffffec8
    2d4c:	3128203d 			; <UNDEFINED> instruction: 0x3128203d
    2d50:	29313c3c 	ldmdbcs	r1!, {r2, r3, r4, r5, sl, fp, ip, sp}
    2d54:	575f5f00 	ldrbpl	r5, [pc, -r0, lsl #30]
    2d58:	52414843 	subpl	r4, r1, #4390912	; 0x430000
    2d5c:	4e494d5f 	mcrmi	13, 2, r4, cr9, cr15, {2}
    2d60:	30205f5f 	eorcc	r5, r0, pc, asr pc
    2d64:	434d0055 	movtmi	r0, #53333	; 0xd055
    2d68:	455f4c41 	ldrbmi	r4, [pc, #-3137]	; 212f <_Min_Stack_Size+0x1d2f>
    2d6c:	5f495458 	svcpl	0x00495458
    2d70:	4f495047 	svcmi	0x00495047
    2d74:	696e495f 	stmdbvs	lr!, {r0, r1, r2, r3, r4, r6, r8, fp, lr}^
    2d78:	5f5f0074 	svcpl	0x005f0074
    2d7c:	5f515155 	svcpl	0x00515155
    2d80:	54494249 	strbpl	r4, [r9], #-585	; 0xfffffdb7
    2d84:	30205f5f 	eorcc	r5, r0, pc, asr pc
    2d88:	475f5f00 	ldrbmi	r5, [pc, -r0, lsl #30]
    2d8c:	415f4343 	cmpmi	pc, r3, asr #6
    2d90:	494d4f54 	stmdbmi	sp, {r2, r4, r6, r8, r9, sl, fp, lr}^
    2d94:	4f4c5f43 	svcmi	0x004c5f43
    2d98:	4c5f474e 	mrrcmi	7, 4, r4, pc, cr14	; <UNPREDICTABLE>
    2d9c:	5f4b434f 	svcpl	0x004b434f
    2da0:	45455246 	strbmi	r5, [r5, #-582]	; 0xfffffdba
    2da4:	47003220 	strmi	r3, [r0, -r0, lsr #4]
    2da8:	5f4f4950 	svcpl	0x004f4950
    2dac:	5f4e4950 	svcpl	0x004e4950
    2db0:	28282032 	stmdacs	r8!, {r1, r4, r5, sp}
    2db4:	746e6975 	strbtvc	r6, [lr], #-2421	; 0xfffff68b
    2db8:	29745f38 	ldmdbcs	r4!, {r3, r4, r5, r8, r9, sl, fp, ip, lr}^
    2dbc:	5f002932 	svcpl	0x00002932
    2dc0:	42444c5f 	submi	r4, r4, #24320	; 0x5f00
    2dc4:	414d5f4c 	cmpmi	sp, ip, asr #30
    2dc8:	205f5f58 	subscs	r5, pc, r8, asr pc	; <UNPREDICTABLE>
    2dcc:	39372e31 	ldmdbcc	r7!, {r0, r4, r5, r9, sl, fp, sp}
    2dd0:	33393637 	teqcc	r9, #57671680	; 0x3700000
    2dd4:	38343331 	ldmdacc	r4!, {r0, r4, r5, r8, r9, ip, sp}
    2dd8:	31333236 	teqcc	r3, r6, lsr r2
    2ddc:	2b653735 	blcs	1950ab8 <_Min_Stack_Size+0x19506b8>
    2de0:	4c383033 	ldcmi	0, cr3, [r8], #-204	; 0xffffff34
    2de4:	415f5f00 	cmpmi	pc, r0, lsl #30
    2de8:	415f4d52 	cmpmi	pc, r2, asr sp	; <UNPREDICTABLE>
    2dec:	20484352 	subcs	r4, r8, r2, asr r3
    2df0:	53550037 	cmppl	r5, #55	; 0x37
    2df4:	5f545241 	svcpl	0x00545241
    2df8:	5f525242 	svcpl	0x00525242
    2dfc:	49474552 	stmdbmi	r7, {r1, r4, r6, r8, sl, lr}^
    2e00:	52455453 	subpl	r5, r5, #1392508928	; 0x53000000
    2e04:	43505f28 	cmpmi	r0, #40, 30	; 0xa0
    2e08:	5f2c4b4c 	svcpl	0x002c4b4c
    2e0c:	44554142 	ldrbmi	r4, [r5], #-322	; 0xfffffebe
    2e10:	45544152 	ldrbmi	r4, [r4, #-338]	; 0xfffffeae
    2e14:	75282029 	strvc	r2, [r8, #-41]!	; 0xffffffd7
    2e18:	33746e69 	cmncc	r4, #1680	; 0x690
    2e1c:	29745f32 	ldmdbcs	r4!, {r1, r4, r5, r8, r9, sl, fp, ip, lr}^
    2e20:	53552828 	cmppl	r5, #40, 16	; 0x280000
    2e24:	44545241 	ldrbmi	r5, [r4], #-577	; 0xfffffdbf
    2e28:	5f285649 	svcpl	0x00285649
    2e2c:	4b4c4350 	blmi	1313b74 <_Min_Stack_Size+0x1313774>
    2e30:	41425f2c 	cmpmi	r2, ip, lsr #30
    2e34:	41524455 	cmpmi	r2, r5, asr r4
    2e38:	3c294554 	cfstr32cc	mvfx4, [r9], #-336	; 0xfffffeb0
    2e3c:	2029343c 	eorcs	r3, r9, ip, lsr r4
    2e40:	4628207c 			; <UNDEFINED> instruction: 0x4628207c
    2e44:	54434152 	strbpl	r4, [r3], #-338	; 0xfffffeae
    2e48:	5f4e4f49 	svcpl	0x004e4f49
    2e4c:	28564944 	ldmdacs	r6, {r2, r6, r8, fp, lr}^
    2e50:	4c43505f 	mcrrmi	0, 5, r5, r3, cr15
    2e54:	425f2c4b 	subsmi	r2, pc, #19200	; 0x4b00
    2e58:	52445541 	subpl	r5, r4, #272629760	; 0x10400000
    2e5c:	29455441 	stmdbcs	r5, {r0, r6, sl, ip, lr}^
    2e60:	30202620 	eorcc	r2, r0, r0, lsr #12
    2e64:	29294678 	stmdbcs	r9!, {r3, r4, r5, r6, r9, sl, lr}
    2e68:	465f5f00 	ldrbmi	r5, [pc], -r0, lsl #30
    2e6c:	525f544c 	subspl	r5, pc, #76, 8	; 0x4c000000
    2e70:	58494441 	stmdapl	r9, {r0, r6, sl, lr}^
    2e74:	32205f5f 	eorcc	r5, r0, #380	; 0x17c
    2e78:	54584500 	ldrbpl	r4, [r8], #-1280	; 0xfffffb00
    2e7c:	49505f49 	ldmdbmi	r0, {r0, r3, r6, r8, r9, sl, fp, ip, lr}^
    2e80:	494c5f4e 	stmdbmi	ip, {r1, r2, r3, r6, r8, r9, sl, fp, ip, lr}^
    2e84:	5035454e 	eorspl	r4, r5, lr, asr #10
    2e88:	28203541 	stmdacs	r0!, {r0, r6, r8, sl, ip, sp}
    2e8c:	49545845 	ldmdbmi	r4, {r0, r2, r6, fp, ip, lr}^
    2e90:	7465535f 	strbtvc	r5, [r5], #-863	; 0xfffffca1
    2e94:	745f7075 	ldrbvc	r7, [pc], #-117	; 2e9c <_Min_Stack_Size+0x2a9c>
    2e98:	58457b29 	stmdapl	r5, {r0, r3, r5, r8, r9, fp, ip, sp, lr}^
    2e9c:	2c354954 			; <UNDEFINED> instruction: 0x2c354954
    2ea0:	4f495047 	svcmi	0x00495047
    2ea4:	50472c41 	subpl	r2, r7, r1, asr #24
    2ea8:	505f4f49 	subspl	r4, pc, r9, asr #30
    2eac:	355f4e49 	ldrbcc	r4, [pc, #-3657]	; 206b <_Min_Stack_Size+0x1c6b>
    2eb0:	5f5f007d 	svcpl	0x005f007d
    2eb4:	5f4d5241 	svcpl	0x004d5241
    2eb8:	54414546 	strbpl	r4, [r1], #-1350	; 0xfffffaba
    2ebc:	5f455255 	svcpl	0x00455255
    2ec0:	45534d43 	ldrbmi	r4, [r3, #-3395]	; 0xfffff2bd
    2ec4:	49564e00 	ldmdbmi	r6, {r9, sl, fp, lr}^
    2ec8:	52495f43 	subpl	r5, r9, #268	; 0x10c
    2ecc:	455f3751 	ldrbmi	r3, [pc, #-1873]	; 2783 <_Min_Stack_Size+0x2383>
    2ed0:	31495458 	cmpcc	r9, r8, asr r4
    2ed4:	5349445f 	movtpl	r4, #37983	; 0x945f
    2ed8:	454c4241 	strbmi	r4, [ip, #-577]	; 0xfffffdbf
    2edc:	49564e20 	ldmdbmi	r6, {r5, r9, sl, fp, lr}^
    2ee0:	43495f43 	movtmi	r5, #40771	; 0x9f43
    2ee4:	20305245 	eorscs	r5, r0, r5, asr #4
    2ee8:	28203d7c 	stmdacs	r0!, {r2, r3, r4, r5, r6, r8, sl, fp, ip, sp}
    2eec:	373c3c31 			; <UNDEFINED> instruction: 0x373c3c31
    2ef0:	5f003b29 	svcpl	0x00003b29
    2ef4:	544c465f 	strbpl	r4, [ip], #-1631	; 0xfffff9a1
    2ef8:	4e494d5f 	mcrmi	13, 2, r4, cr9, cr15, {2}
    2efc:	5058455f 	subspl	r4, r8, pc, asr r5
    2f00:	28205f5f 	stmdacs	r0!, {r0, r1, r2, r3, r4, r6, r8, r9, sl, fp, ip, lr}
    2f04:	3532312d 	ldrcc	r3, [r2, #-301]!	; 0xfffffed3
    2f08:	5f5f0029 	svcpl	0x005f0029
    2f0c:	4c42444c 	cfstrdmi	mvd4, [r2], {76}	; 0x4c
    2f10:	5341485f 	movtpl	r4, #6239	; 0x185f
    2f14:	4955515f 	ldmdbmi	r5, {r0, r1, r2, r3, r4, r6, r8, ip, lr}^
    2f18:	4e5f5445 	cdpmi	4, 5, cr5, cr15, cr5, {2}
    2f1c:	5f5f4e41 	svcpl	0x005f4e41
    2f20:	5f003120 	svcpl	0x00003120
    2f24:	4e4f4c5f 	mcrmi	12, 2, r4, cr15, cr15, {2}
    2f28:	4f4c5f47 	svcmi	0x004c5f47
    2f2c:	575f474e 	ldrbpl	r4, [pc, -lr, asr #14]
    2f30:	48544449 	ldmdami	r4, {r0, r3, r6, sl, lr}^
    2f34:	36205f5f 	qsaxcc	r5, r0, pc	; <UNPREDICTABLE>
    2f38:	50470034 	subpl	r0, r7, r4, lsr r0
    2f3c:	20444f49 	subcs	r4, r4, r9, asr #30
    2f40:	50472828 	subpl	r2, r7, r8, lsr #16
    2f44:	745f4f49 	ldrbvc	r4, [pc], #-3913	; 2f4c <_Min_Stack_Size+0x2b4c>
    2f48:	5047292a 	subpl	r2, r7, sl, lsr #18
    2f4c:	5f444f49 	svcpl	0x00444f49
    2f50:	45534142 	ldrbmi	r4, [r3, #-322]	; 0xfffffebe
    2f54:	4444415f 	strbmi	r4, [r4], #-351	; 0xfffffea1
    2f58:	53455245 	movtpl	r5, #21061	; 0x5245
    2f5c:	45002953 	strmi	r2, [r0, #-2387]	; 0xfffff6ad
    2f60:	5f495458 	svcpl	0x00495458
    2f64:	5f4e4950 	svcpl	0x004e4950
    2f68:	454e494c 	strbmi	r4, [lr, #-2380]	; 0xfffff6b4
    2f6c:	33445033 	movtcc	r5, #16435	; 0x4033
    2f70:	58452820 	stmdapl	r5, {r5, fp, sp}^
    2f74:	535f4954 	cmppl	pc, #84, 18	; 0x150000
    2f78:	70757465 	rsbsvc	r7, r5, r5, ror #8
    2f7c:	7b29745f 	blvc	a60100 <_Min_Stack_Size+0xa5fd00>
    2f80:	49545845 	ldmdbmi	r4, {r0, r2, r6, fp, ip, lr}^
    2f84:	50472c33 	subpl	r2, r7, r3, lsr ip
    2f88:	2c444f49 	mcrrcs	15, 4, r4, r4, cr9
    2f8c:	4f495047 	svcmi	0x00495047
    2f90:	4e49505f 	mcrmi	0, 2, r5, cr9, cr15, {2}
    2f94:	007d335f 	rsbseq	r3, sp, pc, asr r3
    2f98:	49555f5f 	ldmdbmi	r5, {r0, r1, r2, r3, r4, r6, r8, r9, sl, fp, ip, lr}^
    2f9c:	465f544e 	ldrbmi	r5, [pc], -lr, asr #8
    2fa0:	36545341 	ldrbcc	r5, [r4], -r1, asr #6
    2fa4:	414d5f34 	cmpmi	sp, r4, lsr pc
    2fa8:	205f5f58 	subscs	r5, pc, r8, asr pc	; <UNPREDICTABLE>
    2fac:	66667830 			; <UNDEFINED> instruction: 0x66667830
    2fb0:	66666666 	strbtvs	r6, [r6], -r6, ror #12
    2fb4:	66666666 	strbtvs	r6, [r6], -r6, ror #12
    2fb8:	66666666 	strbtvs	r6, [r6], -r6, ror #12
    2fbc:	4c556666 	mrrcmi	6, 6, r6, r5, cr6
    2fc0:	5f5f004c 	svcpl	0x005f004c
    2fc4:	5f4d5241 	svcpl	0x004d5241
    2fc8:	52005046 	andpl	r5, r0, #70	; 0x46
    2fcc:	475f4343 	ldrbmi	r4, [pc, -r3, asr #6]
    2fd0:	454f4950 	strbmi	r4, [pc, #-2384]	; 2688 <_Min_Stack_Size+0x2288>
    2fd4:	284e455f 	stmdacs	lr, {r0, r1, r2, r3, r4, r6, r8, sl, lr}^
    2fd8:	43522029 	cmpmi	r2, #41	; 0x29
    2fdc:	413e2d43 	teqmi	lr, r3, asr #26
    2fe0:	45324250 	ldrmi	r4, [r2, #-592]!	; 0xfffffdb0
    2fe4:	7c20524e 	sfmvc	f5, 4, [r0], #-312	; 0xfffffec8
    2fe8:	3128203d 			; <UNDEFINED> instruction: 0x3128203d
    2fec:	29363c3c 	ldmdbcs	r6!, {r2, r3, r4, r5, sl, fp, ip, sp}
    2ff0:	485f5f00 	ldmdami	pc, {r8, r9, sl, fp, ip, lr}^	; <UNPREDICTABLE>
    2ff4:	42495f41 	submi	r5, r9, #260	; 0x104
    2ff8:	5f5f5449 	svcpl	0x005f5449
    2ffc:	5f003820 	svcpl	0x00003820
    3000:	4d52415f 	ldfmie	f4, [r2, #-380]	; 0xfffffe84
    3004:	4145465f 	cmpmi	r5, pc, asr r6
    3008:	45525554 	ldrbmi	r5, [r2, #-1364]	; 0xfffffaac
    300c:	5053445f 	subspl	r4, r3, pc, asr r4
    3010:	495f5f00 	ldmdbmi	pc, {r8, r9, sl, fp, ip, lr}^	; <UNPREDICTABLE>
    3014:	5450544e 	ldrbpl	r5, [r0], #-1102	; 0xfffffbb2
    3018:	49575f52 	ldmdbmi	r7, {r1, r4, r6, r8, r9, sl, fp, ip, lr}^
    301c:	5f485444 	svcpl	0x00485444
    3020:	3233205f 	eorscc	r2, r3, #95	; 0x5f
    3024:	475f5f00 	ldrbmi	r5, [pc, -r0, lsl #30]
    3028:	415f4343 	cmpmi	pc, r3, asr #6
    302c:	494d4f54 	stmdbmi	sp, {r2, r4, r6, r8, r9, sl, fp, lr}^
    3030:	4c4c5f43 	mcrrmi	15, 4, r5, ip, cr3
    3034:	5f474e4f 	svcpl	0x00474e4f
    3038:	4b434f4c 	blmi	10d6d70 <_Min_Stack_Size+0x10d6970>
    303c:	4552465f 	ldrbmi	r4, [r2, #-1631]	; 0xfffff9a1
    3040:	00312045 	eorseq	r2, r1, r5, asr #32
    3044:	4f495047 	svcmi	0x00495047
    3048:	4e49505f 	mcrmi	0, 2, r5, cr9, cr15, {2}
    304c:	2033315f 	eorscs	r3, r3, pc, asr r1
    3050:	69752828 	ldmdbvs	r5!, {r3, r5, fp, sp}^
    3054:	5f38746e 	svcpl	0x0038746e
    3058:	33312974 	teqcc	r1, #116, 18	; 0x1d0000
    305c:	5f5f0029 	svcpl	0x005f0029
    3060:	33544c46 	cmpcc	r4, #17920	; 0x4600
    3064:	4d5f5832 	ldclmi	8, cr5, [pc, #-200]	; 2fa4 <_Min_Stack_Size+0x2ba4>
    3068:	5f5f4e49 	svcpl	0x005f4e49
    306c:	322e3220 	eorcc	r3, lr, #32, 4
    3070:	37303532 			; <UNDEFINED> instruction: 0x37303532
    3074:	38353833 	ldmdacc	r5!, {r0, r1, r4, r5, fp, ip, sp}
    3078:	32373035 	eorscc	r3, r7, #53	; 0x35
    307c:	65343130 	ldrvs	r3, [r4, #-304]!	; 0xfffffed0
    3080:	3830332d 	ldmdacc	r0!, {r0, r2, r3, r5, r8, r9, ip, sp}
    3084:	78323346 	ldmdavc	r2!, {r1, r2, r6, r8, r9, ip, sp}
    3088:	465f5f00 	ldrbmi	r5, [pc], -r0, lsl #30
    308c:	3436544c 	ldrtcc	r5, [r6], #-1100	; 0xfffffbb4
    3090:	58414d5f 	stmdapl	r1, {r0, r1, r2, r3, r4, r6, r8, sl, fp, lr}^
    3094:	5058455f 	subspl	r4, r8, pc, asr r5
    3098:	31205f5f 			; <UNDEFINED> instruction: 0x31205f5f
    309c:	00343230 	eorseq	r3, r4, r0, lsr r2
    30a0:	49545845 	ldmdbmi	r4, {r0, r2, r6, fp, ip, lr}^
    30a4:	4e49505f 	mcrmi	0, 2, r5, cr9, cr15, {2}
    30a8:	4e494c5f 	mcrmi	12, 2, r4, cr9, cr15, {2}
    30ac:	42503445 	subsmi	r3, r0, #1157627904	; 0x45000000
    30b0:	45282034 	strmi	r2, [r8, #-52]!	; 0xffffffcc
    30b4:	5f495458 	svcpl	0x00495458
    30b8:	75746553 	ldrbvc	r6, [r4, #-1363]!	; 0xfffffaad
    30bc:	29745f70 	ldmdbcs	r4!, {r4, r5, r6, r8, r9, sl, fp, ip, lr}^
    30c0:	5458457b 	ldrbpl	r4, [r8], #-1403	; 0xfffffa85
    30c4:	472c3449 	strmi	r3, [ip, -r9, asr #8]!
    30c8:	424f4950 	submi	r4, pc, #80, 18	; 0x140000
    30cc:	4950472c 	ldmdbmi	r0, {r2, r3, r5, r8, r9, sl, lr}^
    30d0:	49505f4f 	ldmdbmi	r0, {r0, r1, r2, r3, r6, r8, r9, sl, fp, ip, lr}^
    30d4:	7d345f4e 	ldcvc	15, cr5, [r4, #-312]!	; 0xfffffec8
    30d8:	465f5f00 	ldrbmi	r5, [pc], -r0, lsl #30
    30dc:	3436544c 	ldrtcc	r5, [r6], #-1100	; 0xfffffbb4
    30e0:	4e494d5f 	mcrmi	13, 2, r4, cr9, cr15, {2}
    30e4:	32205f5f 	eorcc	r5, r0, #380	; 0x17c
    30e8:	3532322e 	ldrcc	r3, [r2, #-558]!	; 0xfffffdd2
    30ec:	38333730 	ldmdacc	r3!, {r4, r5, r8, r9, sl, ip, sp}
    30f0:	30353835 	eorscc	r3, r5, r5, lsr r8
    30f4:	31303237 	teqcc	r0, r7, lsr r2
    30f8:	332d6534 			; <UNDEFINED> instruction: 0x332d6534
    30fc:	36463830 			; <UNDEFINED> instruction: 0x36463830
    3100:	50470034 	subpl	r0, r7, r4, lsr r0
    3104:	505f4f49 	subspl	r4, pc, r9, asr #30
    3108:	315f4e49 	cmpcc	pc, r9, asr #28
    310c:	28282030 	stmdacs	r8!, {r4, r5, sp}
    3110:	746e6975 	strbtvc	r6, [lr], #-2421	; 0xfffff68b
    3114:	29745f38 	ldmdbcs	r4!, {r3, r4, r5, r8, r9, sl, fp, ip, lr}^
    3118:	00293031 	eoreq	r3, r9, r1, lsr r0
    311c:	52415f5f 	subpl	r5, r1, #380	; 0x17c
    3120:	52415f4d 	subpl	r5, r1, #308	; 0x134
    3124:	505f4843 	subspl	r4, pc, r3, asr #16
    3128:	49464f52 	stmdbmi	r6, {r1, r4, r6, r8, r9, sl, fp, lr}^
    312c:	5f00454c 	svcpl	0x0000454c
    3130:	544e495f 	strbpl	r4, [lr], #-2399	; 0xfffff6a1
    3134:	545f3436 	ldrbpl	r3, [pc], #-1078	; 313c <_Min_Stack_Size+0x2d3c>
    3138:	5f455059 	svcpl	0x00455059
    313c:	6f6c205f 	svcvs	0x006c205f
    3140:	6c20676e 	stcvs	7, cr6, [r0], #-440	; 0xfffffe48
    3144:	20676e6f 	rsbcs	r6, r7, pc, ror #28
    3148:	00746e69 	rsbseq	r6, r4, r9, ror #28
    314c:	464c5f5f 			; <UNDEFINED> instruction: 0x464c5f5f
    3150:	54434152 	strbpl	r4, [r3], #-338	; 0xfffffeae
    3154:	4942465f 	stmdbmi	r2, {r0, r1, r2, r3, r4, r6, r9, sl, lr}^
    3158:	205f5f54 	subscs	r5, pc, r4, asr pc	; <UNPREDICTABLE>
    315c:	5f003133 	svcpl	0x00003133
    3160:	4148435f 	cmpmi	r8, pc, asr r3
    3164:	49425f52 	stmdbmi	r2, {r1, r4, r6, r8, r9, sl, fp, ip, lr}^
    3168:	205f5f54 	subscs	r5, pc, r4, asr pc	; <UNPREDICTABLE>
    316c:	52450038 	subpl	r0, r5, #56	; 0x38
    3170:	5f524f52 	svcpl	0x00524f52
    3174:	45544544 	ldrbmi	r4, [r4, #-1348]	; 0xfffffabc
    3178:	44455443 	strbmi	r5, [r5], #-1091	; 0xfffffbbd
    317c:	4e003120 	adfmisp	f3, f0, f0
    3180:	5f434956 	svcpl	0x00434956
    3184:	39515249 	ldmdbcc	r1, {r0, r3, r6, r9, ip, lr}^
    3188:	5458455f 	ldrbpl	r4, [r8], #-1375	; 0xfffffaa1
    318c:	445f3349 	ldrbmi	r3, [pc], #-841	; 3194 <_Min_Stack_Size+0x2d94>
    3190:	42415349 	submi	r5, r1, #603979777	; 0x24000001
    3194:	4e20454c 	cfsh64mi	mvdx4, mvdx0, #44
    3198:	5f434956 	svcpl	0x00434956
    319c:	52454349 	subpl	r4, r5, #603979777	; 0x24000001
    31a0:	3d7c2030 	ldclcc	0, cr2, [ip, #-192]!	; 0xffffff40
    31a4:	3c312820 	ldccc	8, cr2, [r1], #-128	; 0xffffff80
    31a8:	3b29393c 	blcc	a516a0 <_Min_Stack_Size+0xa512a0>
    31ac:	555f5f00 	ldrbpl	r5, [pc, #-3840]	; 22b4 <_Min_Stack_Size+0x1eb4>
    31b0:	43415246 	movtmi	r5, #4678	; 0x1246
    31b4:	414d5f54 	cmpmi	sp, r4, asr pc
    31b8:	205f5f58 	subscs	r5, pc, r8, asr pc	; <UNPREDICTABLE>
    31bc:	46465830 			; <UNDEFINED> instruction: 0x46465830
    31c0:	2d504646 	ldclcs	6, cr4, [r0, #-280]	; 0xfffffee8
    31c4:	52553631 	subspl	r3, r5, #51380224	; 0x3100000
    31c8:	49575300 	ldmdbmi	r7, {r8, r9, ip, lr}^
    31cc:	5f005245 	svcpl	0x00005245
    31d0:	5246535f 	subpl	r5, r6, #2080374785	; 0x7c000001
    31d4:	5f544341 	svcpl	0x00544341
    31d8:	54494249 	strbpl	r4, [r9], #-585	; 0xfffffdb7
    31dc:	30205f5f 	eorcc	r5, r0, pc, asr pc
    31e0:	555f5f00 	ldrbpl	r5, [pc, #-3840]	; 22e8 <_Min_Stack_Size+0x1ee8>
    31e4:	4343414c 	movtmi	r4, #12620	; 0x314c
    31e8:	495f4d55 	ldmdbmi	pc, {r0, r2, r4, r6, r8, sl, fp, lr}^	; <UNPREDICTABLE>
    31ec:	5f544942 	svcpl	0x00544942
    31f0:	3233205f 	eorscc	r2, r3, #95	; 0x5f
    31f4:	425f5f00 	subsmi	r5, pc, #0, 30
    31f8:	5f455459 	svcpl	0x00455459
    31fc:	4544524f 	strbmi	r5, [r4, #-591]	; 0xfffffdb1
    3200:	205f5f52 	subscs	r5, pc, r2, asr pc	; <UNPREDICTABLE>
    3204:	524f5f5f 	subpl	r5, pc, #380	; 0x17c
    3208:	5f524544 	svcpl	0x00524544
    320c:	5454494c 	ldrbpl	r4, [r4], #-2380	; 0xfffff6b4
    3210:	455f454c 	ldrbmi	r4, [pc, #-1356]	; 2ccc <_Min_Stack_Size+0x28cc>
    3214:	4149444e 	cmpmi	r9, lr, asr #8
    3218:	005f5f4e 	subseq	r5, pc, lr, asr #30
    321c:	4c465f5f 	mcrrmi	15, 5, r5, r6, cr15
    3220:	5f323354 	svcpl	0x00323354
    3224:	49535045 	ldmdbmi	r3, {r0, r2, r6, ip, lr}^
    3228:	5f4e4f4c 	svcpl	0x004e4f4c
    322c:	2e31205f 	mrccs	0, 1, r2, cr1, cr15, {2}
    3230:	30323931 	eorscc	r3, r2, r1, lsr r9
    3234:	39383239 	ldmdbcc	r8!, {r0, r3, r4, r5, r9, ip, sp}
    3238:	37303535 			; <UNDEFINED> instruction: 0x37303535
    323c:	35323138 	ldrcc	r3, [r2, #-312]!	; 0xfffffec8
    3240:	46372d65 	ldrtmi	r2, [r7], -r5, ror #26
    3244:	5f003233 	svcpl	0x00003233
    3248:	4d52415f 	ldfmie	f4, [r2, #-380]	; 0xfffffe84
    324c:	4f454e5f 	svcmi	0x00454e5f
    3250:	50465f4e 	subpl	r5, r6, lr, asr #30
    3254:	43435200 	movtmi	r5, #12800	; 0x3200
    3258:	4d49545f 	cfstrdmi	mvd5, [r9, #-380]	; 0xfffffe84
    325c:	455f3431 	ldrbmi	r3, [pc, #-1073]	; 2e33 <_Min_Stack_Size+0x2a33>
    3260:	2029284e 	eorcs	r2, r9, lr, asr #16
    3264:	2d434352 	stclcs	3, cr4, [r3, #-328]	; 0xfffffeb8
    3268:	4250413e 	subsmi	r4, r0, #-2147483633	; 0x8000000f
    326c:	524e4531 	subpl	r4, lr, #205520896	; 0xc400000
    3270:	203d7c20 	eorscs	r7, sp, r0, lsr #24
    3274:	3c3c3128 	ldfccs	f3, [ip], #-160	; 0xffffff60
    3278:	52002938 	andpl	r2, r0, #56, 18	; 0xe0000
    327c:	415f4343 	cmpmi	pc, r3, asr #6
    3280:	5f4f4946 	svcpl	0x004f4946
    3284:	29284e45 	stmdbcs	r8!, {r0, r2, r6, r9, sl, fp, lr}
    3288:	43435220 	movtmi	r5, #12832	; 0x3220
    328c:	50413e2d 	subpl	r3, r1, sp, lsr #28
    3290:	4e453242 	cdpmi	2, 4, cr3, cr5, cr2, {2}
    3294:	3d7c2052 	ldclcc	0, cr2, [ip, #-328]!	; 0xfffffeb8
    3298:	3c312820 	ldccc	8, cr2, [r1], #-128	; 0xffffff80
    329c:	0029303c 	eoreq	r3, r9, ip, lsr r0
    32a0:	4349564e 	movtmi	r5, #38478	; 0x964e
    32a4:	5152495f 	cmppl	r2, pc, asr r9
    32a8:	58455f38 	stmdapl	r5, {r3, r4, r5, r8, r9, sl, fp, ip, lr}^
    32ac:	5f324954 	svcpl	0x00324954
    32b0:	42414e45 	submi	r4, r1, #1104	; 0x450
    32b4:	4e20454c 	cfsh64mi	mvdx4, mvdx0, #44
    32b8:	5f434956 	svcpl	0x00434956
    32bc:	52455349 	subpl	r5, r5, #603979777	; 0x24000001
    32c0:	3d7c2030 	ldclcc	0, cr2, [ip, #-192]!	; 0xffffff40
    32c4:	3c312820 	ldccc	8, cr2, [r1], #-128	; 0xffffff80
    32c8:	3b29383c 	blcc	a513c0 <_Min_Stack_Size+0xa50fc0>
    32cc:	54584500 	ldrbpl	r4, [r8], #-1280	; 0xfffffb00
    32d0:	31203149 			; <UNDEFINED> instruction: 0x31203149
    32d4:	555f5f00 	ldrbpl	r5, [pc, #-3840]	; 23dc <_Min_Stack_Size+0x1fdc>
    32d8:	43415246 	movtmi	r5, #4678	; 0x1246
    32dc:	42465f54 	submi	r5, r6, #84, 30	; 0x150
    32e0:	5f5f5449 	svcpl	0x005f5449
    32e4:	00363120 	eorseq	r3, r6, r0, lsr #2
    32e8:	44555f5f 	ldrbmi	r5, [r5], #-3935	; 0xfffff0a1
    32ec:	42465f51 	submi	r5, r6, #324	; 0x144
    32f0:	5f5f5449 	svcpl	0x005f5449
    32f4:	00343620 	eorseq	r3, r4, r0, lsr #12
    32f8:	42445f5f 	submi	r5, r4, #380	; 0x17c
    32fc:	4f4e5f4c 	svcmi	0x004e5f4c
    3300:	4d5f4d52 	ldclmi	13, cr4, [pc, #-328]	; 31c0 <_Min_Stack_Size+0x2dc0>
    3304:	5f5f5841 	svcpl	0x005f5841
    3308:	64282820 	strtvs	r2, [r8], #-2080	; 0xfffff7e0
    330c:	6c62756f 	cfstr64vs	mvdx7, [r2], #-444	; 0xfffffe44
    3310:	2e312965 	vsubcs.f16	s4, s2, s11	; <UNPREDICTABLE>
    3314:	36373937 			; <UNDEFINED> instruction: 0x36373937
    3318:	33313339 	teqcc	r1, #-469762048	; 0xe4000000
    331c:	32363834 	eorscc	r3, r6, #52, 16	; 0x340000
    3320:	37353133 			; <UNDEFINED> instruction: 0x37353133
    3324:	30332b65 	eorscc	r2, r3, r5, ror #22
    3328:	00294c38 	eoreq	r4, r9, r8, lsr ip
    332c:	444c5f5f 	strbmi	r5, [ip], #-3935	; 0xfffff0a1
    3330:	4d5f4c42 	ldclmi	12, cr4, [pc, #-264]	; 3230 <_Min_Stack_Size+0x2e30>
    3334:	315f5841 	cmpcc	pc, r1, asr #16
    3338:	58455f30 	stmdapl	r5, {r4, r5, r8, r9, sl, fp, ip, lr}^
    333c:	205f5f50 	subscs	r5, pc, r0, asr pc	; <UNPREDICTABLE>
    3340:	00383033 	eorseq	r3, r8, r3, lsr r0
    3344:	4f495047 	svcmi	0x00495047
    3348:	434f4c5f 	movtmi	r4, #64607	; 0xfc5f
    334c:	4154534b 	cmpmi	r4, fp, asr #6
    3350:	4e5f4554 	mrcmi	5, 2, r4, cr15, cr4, {2}
    3354:	5252454f 	subspl	r4, r2, #331350016	; 0x13c00000
    3358:	3020524f 	eorcc	r5, r0, pc, asr #4
    335c:	41524600 	cmpmi	r2, r0, lsl #12
    3360:	4f495443 	svcmi	0x00495443
    3364:	49445f4e 	stmdbmi	r4, {r1, r2, r3, r6, r8, r9, sl, fp, ip, lr}^
    3368:	505f2856 	subspl	r2, pc, r6, asr r8	; <UNPREDICTABLE>
    336c:	2c4b4c43 	mcrrcs	12, 4, r4, fp, cr3
    3370:	5541425f 	strbpl	r4, [r1, #-607]	; 0xfffffda1
    3374:	54415244 	strbpl	r5, [r1], #-580	; 0xfffffdbc
    3378:	28202945 	stmdacs	r0!, {r0, r2, r6, r8, fp, sp}
    337c:	746e6975 	strbtvc	r6, [lr], #-2421	; 0xfffff68b
    3380:	745f3233 	ldrbvc	r3, [pc], #-563	; 3388 <_Min_Stack_Size+0x2f88>
    3384:	28282829 	stmdacs	r8!, {r0, r3, r5, fp, sp}
    3388:	52415355 	subpl	r5, r1, #1409286145	; 0x54000001
    338c:	56494454 			; <UNDEFINED> instruction: 0x56494454
    3390:	4c554d5f 	mrrcmi	13, 5, r4, r5, cr15
    3394:	28303031 	ldmdacs	r0!, {r0, r4, r5, ip, sp}
    3398:	4c43505f 	mcrrmi	0, 5, r5, r3, cr15
    339c:	425f2c4b 	subsmi	r2, pc, #19200	; 0x4b00
    33a0:	52445541 	subpl	r5, r4, #272629760	; 0x10400000
    33a4:	29455441 	stmdbcs	r5, {r0, r6, sl, ip, lr}^
    33a8:	4d202d20 	stcmi	13, cr2, [r0, #-128]!	; 0xffffff80
    33ac:	49544e41 	ldmdbmi	r4, {r0, r6, r9, sl, fp, lr}^
    33b0:	5f415353 	svcpl	0x00415353
    33b4:	314c554d 	cmpcc	ip, sp, asr #10
    33b8:	5f283030 	svcpl	0x00283030
    33bc:	4b4c4350 	blmi	1314104 <_Min_Stack_Size+0x1313d04>
    33c0:	41425f2c 	cmpmi	r2, ip, lsr #30
    33c4:	41524455 	cmpmi	r2, r5, asr r4
    33c8:	29294554 	stmdbcs	r9!, {r2, r4, r6, r8, sl, lr}
    33cc:	2936312a 	ldmdbcs	r6!, {r1, r3, r5, r8, ip, sp}
    33d0:	3030312f 	eorscc	r3, r0, pc, lsr #2
    33d4:	564e0029 	strbpl	r0, [lr], -r9, lsr #32
    33d8:	495f4349 	ldmdbmi	pc, {r0, r3, r6, r8, r9, lr}^	; <UNPREDICTABLE>
    33dc:	5f365152 	svcpl	0x00365152
    33e0:	49545845 	ldmdbmi	r4, {r0, r2, r6, fp, ip, lr}^
    33e4:	4e455f30 	mcrmi	15, 2, r5, cr5, cr0, {1}
    33e8:	454c4241 	strbmi	r4, [ip, #-577]	; 0xfffffdbf
    33ec:	49564e20 	ldmdbmi	r6, {r5, r9, sl, fp, lr}^
    33f0:	53495f43 	movtpl	r5, #40771	; 0x9f43
    33f4:	20305245 	eorscs	r5, r0, r5, asr #4
    33f8:	28203d7c 	stmdacs	r0!, {r2, r3, r4, r5, r6, r8, sl, fp, ip, sp}
    33fc:	363c3c31 			; <UNDEFINED> instruction: 0x363c3c31
    3400:	5f003b29 	svcpl	0x00003b29
    3404:	544e495f 	strbpl	r4, [lr], #-2399	; 0xfffff6a1
    3408:	5341465f 	movtpl	r4, #5727	; 0x165f
    340c:	5f323354 	svcpl	0x00323354
    3410:	45505954 	ldrbmi	r5, [r0, #-2388]	; 0xfffff6ac
    3414:	69205f5f 	stmdbvs	r0!, {r0, r1, r2, r3, r4, r6, r8, r9, sl, fp, ip, lr}
    3418:	5300746e 	movwpl	r7, #1134	; 0x46e
    341c:	45545359 	ldrbmi	r5, [r4, #-857]	; 0xfffffca7
    3420:	454d5f4d 	strbmi	r5, [sp, #-3917]	; 0xfffff0b3
    3424:	59524f4d 	ldmdbpl	r2, {r0, r2, r3, r6, r8, r9, sl, fp, lr}^
    3428:	5341425f 	movtpl	r4, #4703	; 0x125f
    342c:	44415f45 	strbmi	r5, [r1], #-3909	; 0xfffff0bb
    3430:	78302044 	ldmdavc	r0!, {r2, r6, sp}
    3434:	46464631 			; <UNDEFINED> instruction: 0x46464631
    3438:	30303846 	eorscc	r3, r0, r6, asr #16
    343c:	53004c55 	movwpl	r4, #3157	; 0xc55
    3440:	32334d54 	eorscc	r4, r3, #84, 26	; 0x1500
    3444:	33303146 	teqcc	r0, #-2147483631	; 0x80000011
    3448:	78543643 	ldmdavc	r4, {r0, r1, r6, r9, sl, ip, sp}^
    344c:	45003120 	strmi	r3, [r0, #-288]	; 0xfffffee0
    3450:	36495458 			; <UNDEFINED> instruction: 0x36495458
    3454:	45003620 	strmi	r3, [r0, #-1568]	; 0xfffff9e0
    3458:	5f495458 	svcpl	0x00495458
    345c:	5f4e4950 	svcpl	0x004e4950
    3460:	454e494c 	strbmi	r4, [lr, #-2380]	; 0xfffff6b4
    3464:	33415033 	movtcc	r5, #4147	; 0x1033
    3468:	58452820 	stmdapl	r5, {r5, fp, sp}^
    346c:	535f4954 	cmppl	pc, #84, 18	; 0x150000
    3470:	70757465 	rsbsvc	r7, r5, r5, ror #8
    3474:	7b29745f 	blvc	a605f8 <_Min_Stack_Size+0xa601f8>
    3478:	49545845 	ldmdbmi	r4, {r0, r2, r6, fp, ip, lr}^
    347c:	50472c33 	subpl	r2, r7, r3, lsr ip
    3480:	2c414f49 	mcrrcs	15, 4, r4, r1, cr9
    3484:	4f495047 	svcmi	0x00495047
    3488:	4e49505f 	mcrmi	0, 2, r5, cr9, cr15, {2}
    348c:	007d335f 	rsbseq	r3, sp, pc, asr r3
    3490:	49545845 	ldmdbmi	r4, {r0, r2, r6, fp, ip, lr}^
    3494:	52495f32 	subpl	r5, r9, #50, 30	; 0xc8
    3498:	6e614851 	mcrvs	8, 3, r4, cr1, cr1, {2}
    349c:	72656c64 	rsbvc	r6, r5, #100, 24	; 0x6400
    34a0:	465f5f00 	ldrbmi	r5, [pc], -r0, lsl #30
    34a4:	3436544c 	ldrtcc	r5, [r6], #-1100	; 0xfffffbb4
    34a8:	5341485f 	movtpl	r4, #6239	; 0x185f
    34ac:	4955515f 	ldmdbmi	r5, {r0, r1, r2, r3, r4, r6, r8, ip, lr}^
    34b0:	4e5f5445 	cdpmi	4, 5, cr5, cr15, cr5, {2}
    34b4:	5f5f4e41 	svcpl	0x005f4e41
    34b8:	47003120 	strmi	r3, [r0, -r0, lsr #2]
    34bc:	5f4f4950 	svcpl	0x004f4950
    34c0:	5f4e4950 	svcpl	0x004e4950
    34c4:	45444f4d 	strbmi	r4, [r4, #-3917]	; 0xfffff0b3
    34c8:	54554f5f 	ldrbpl	r4, [r5], #-3935	; 0xfffff0a1
    34cc:	5f545550 	svcpl	0x00545550
    34d0:	4e45504f 	cdpmi	0, 4, cr5, cr5, cr15, {2}
    34d4:	4152445f 	cmpmi	r2, pc, asr r4
    34d8:	315f4e49 	cmpcc	pc, r9, asr #28
    34dc:	484d5f30 	stmdami	sp, {r4, r5, r8, r9, sl, fp, ip, lr}^
    34e0:	6230205a 	eorsvs	r2, r0, #90	; 0x5a
    34e4:	31303130 	teqcc	r0, r0, lsr r1
    34e8:	555f5f00 	ldrbpl	r5, [pc, #-3840]	; 25f0 <_Min_Stack_Size+0x21f0>
    34ec:	43434153 	movtmi	r4, #12627	; 0x3153
    34f0:	495f4d55 	ldmdbmi	pc, {r0, r2, r4, r6, r8, sl, fp, lr}^	; <UNPREDICTABLE>
    34f4:	5f544942 	svcpl	0x00544942
    34f8:	0038205f 	eorseq	r2, r8, pc, asr r0
    34fc:	5f434352 	svcpl	0x00434352
    3500:	32495053 	subcc	r5, r9, #83	; 0x53
    3504:	284e455f 	stmdacs	lr, {r0, r1, r2, r3, r4, r6, r8, sl, lr}^
    3508:	43522029 	cmpmi	r2, #41	; 0x29
    350c:	413e2d43 	teqmi	lr, r3, asr #26
    3510:	45314250 	ldrmi	r4, [r1, #-592]!	; 0xfffffdb0
    3514:	7c20524e 	sfmvc	f5, 4, [r0], #-312	; 0xfffffec8
    3518:	3128203d 			; <UNDEFINED> instruction: 0x3128203d
    351c:	34313c3c 	ldrtcc	r3, [r1], #-3132	; 0xfffff3c4
    3520:	58450029 	stmdapl	r5, {r0, r3, r5}^
    3524:	505f4954 	subspl	r4, pc, r4, asr r9	; <UNPREDICTABLE>
    3528:	4c5f4e49 	mrrcmi	14, 4, r4, pc, cr9	; <UNPREDICTABLE>
    352c:	31454e49 	cmpcc	r5, r9, asr #28
    3530:	20314450 	eorscs	r4, r1, r0, asr r4
    3534:	54584528 	ldrbpl	r4, [r8], #-1320	; 0xfffffad8
    3538:	65535f49 	ldrbvs	r5, [r3, #-3913]	; 0xfffff0b7
    353c:	5f707574 	svcpl	0x00707574
    3540:	457b2974 	ldrbmi	r2, [fp, #-2420]!	; 0xfffff68c
    3544:	31495458 	cmpcc	r9, r8, asr r4
    3548:	4950472c 	ldmdbmi	r0, {r2, r3, r5, r8, r9, sl, lr}^
    354c:	472c444f 	strmi	r4, [ip, -pc, asr #8]!
    3550:	5f4f4950 	svcpl	0x004f4950
    3554:	5f4e4950 	svcpl	0x004e4950
    3558:	5f007d31 	svcpl	0x00007d31
    355c:	544c465f 	strbpl	r4, [ip], #-1631	; 0xfffff9a1
    3560:	485f3436 	ldmdami	pc, {r1, r2, r4, r5, sl, ip, sp}^	; <UNPREDICTABLE>
    3564:	445f5341 	ldrbmi	r5, [pc], #-833	; 356c <_Min_Stack_Size+0x316c>
    3568:	524f4e45 	subpl	r4, pc, #1104	; 0x450
    356c:	205f5f4d 	subscs	r5, pc, sp, asr #30
    3570:	5f5f0031 	svcpl	0x005f0031
    3574:	5f544c46 	svcpl	0x00544c46
    3578:	5f474944 	svcpl	0x00474944
    357c:	0036205f 	eorseq	r2, r6, pc, asr r0
    3580:	41555f5f 	cmpmi	r5, pc, asr pc
    3584:	4d554343 	ldclmi	3, cr4, [r5, #-268]	; 0xfffffef4
    3588:	5350455f 	cmppl	r0, #398458880	; 0x17c00000
    358c:	4e4f4c49 	cdpmi	12, 4, cr4, cr15, cr9, {2}
    3590:	30205f5f 	eorcc	r5, r0, pc, asr pc
    3594:	2d503178 	ldfcse	f3, [r0, #-480]	; 0xfffffe20
    3598:	4b553631 	blmi	1550e64 <_Min_Stack_Size+0x1550a64>
    359c:	465f5f00 	ldrbmi	r5, [pc], -r0, lsl #30
    35a0:	455f544c 	ldrbmi	r5, [pc, #-1100]	; 315c <_Min_Stack_Size+0x2d5c>
    35a4:	5f4c4156 	svcpl	0x004c4156
    35a8:	4854454d 	ldmdami	r4, {r0, r2, r3, r6, r8, sl, lr}^
    35ac:	5f5f444f 	svcpl	0x005f444f
    35b0:	52003020 	andpl	r3, r0, #32
    35b4:	445f4343 	ldrbmi	r4, [pc], #-835	; 35bc <_Min_Stack_Size+0x31bc>
    35b8:	5f31414d 	svcpl	0x0031414d
    35bc:	29284e45 	stmdbcs	r8!, {r0, r2, r6, r9, sl, fp, lr}
    35c0:	43435220 	movtmi	r5, #12832	; 0x3220
    35c4:	48413e2d 	stmdami	r1, {r0, r2, r3, r5, r9, sl, fp, ip, sp}^
    35c8:	524e4542 	subpl	r4, lr, #276824064	; 0x10800000
    35cc:	203d7c20 	eorscs	r7, sp, r0, lsr #24
    35d0:	3c3c3128 	ldfccs	f3, [ip], #-160	; 0xffffff60
    35d4:	5f002930 	svcpl	0x00002930
    35d8:	4843535f 	stmdami	r3, {r0, r1, r2, r3, r4, r6, r8, r9, ip, lr}^
    35dc:	4d5f5241 	lfmmi	f5, 2, [pc, #-260]	; 34e0 <_Min_Stack_Size+0x30e0>
    35e0:	5f5f5841 	svcpl	0x005f5841
    35e4:	37783020 	ldrbcc	r3, [r8, -r0, lsr #32]!
    35e8:	5f5f0066 	svcpl	0x005f0066
    35ec:	5f544e49 	svcpl	0x00544e49
    35f0:	54534146 	ldrbpl	r4, [r3], #-326	; 0xfffffeba
    35f4:	49575f38 	ldmdbmi	r7, {r3, r4, r5, r8, r9, sl, fp, ip, lr}^
    35f8:	5f485444 	svcpl	0x00485444
    35fc:	3233205f 	eorscc	r2, r3, #95	; 0x5f
    3600:	535f5f00 	cmppl	pc, #0, 30
    3604:	5f434454 	svcpl	0x00434454
    3608:	5f465455 	svcpl	0x00465455
    360c:	5f5f3631 	svcpl	0x005f3631
    3610:	52003120 	andpl	r3, r0, #32, 2
    3614:	575f4343 	ldrbpl	r4, [pc, -r3, asr #6]
    3618:	455f4457 	ldrbmi	r4, [pc, #-1111]	; 31c9 <_Min_Stack_Size+0x2dc9>
    361c:	2029284e 	eorcs	r2, r9, lr, asr #16
    3620:	2d434352 	stclcs	3, cr4, [r3, #-328]	; 0xfffffeb8
    3624:	4250413e 	subsmi	r4, r0, #-2147483633	; 0x8000000f
    3628:	524e4531 	subpl	r4, lr, #205520896	; 0xc400000
    362c:	203d7c20 	eorscs	r7, sp, r0, lsr #24
    3630:	3c3c3128 	ldfccs	f3, [ip], #-160	; 0xffffff60
    3634:	00293131 	eoreq	r3, r9, r1, lsr r1
    3638:	52415f5f 	subpl	r5, r1, #380	; 0x17c
    363c:	45465f4d 	strbmi	r5, [r6, #-3917]	; 0xfffff0b3
    3640:	52555441 	subspl	r5, r5, #1090519040	; 0x41000000
    3644:	444c5f45 	strbmi	r5, [ip], #-3909	; 0xfffff0bb
    3648:	00584552 	subseq	r4, r8, r2, asr r5
    364c:	4f495047 	svcmi	0x00495047
    3650:	4e49505f 	mcrmi	0, 2, r5, cr9, cr15, {2}
    3654:	444f4d5f 	strbmi	r4, [pc], #-3423	; 365c <_Min_Stack_Size+0x325c>
    3658:	554f5f45 	strbpl	r5, [pc, #-3909]	; 271b <_Min_Stack_Size+0x231b>
    365c:	54555054 	ldrbpl	r5, [r5], #-84	; 0xffffffac
    3660:	5355505f 	cmppl	r5, #95	; 0x5f
    3664:	55505f48 	ldrbpl	r5, [r0, #-3912]	; 0xfffff0b8
    3668:	315f4c4c 	cmpcc	pc, ip, asr #24
    366c:	484d5f30 	stmdami	sp, {r4, r5, r8, r9, sl, fp, ip, lr}^
    3670:	6230205a 	eorsvs	r2, r0, #90	; 0x5a
    3674:	31303030 	teqcc	r0, r0, lsr r0
    3678:	555f5f00 	ldrbpl	r5, [pc, #-3840]	; 2780 <_Min_Stack_Size+0x2380>
    367c:	465f5151 			; <UNDEFINED> instruction: 0x465f5151
    3680:	5f544942 	svcpl	0x00544942
    3684:	0038205f 	eorseq	r2, r8, pc, asr r0
    3688:	4f495047 	svcmi	0x00495047
    368c:	4e49505f 	mcrmi	0, 2, r5, cr9, cr15, {2}
    3690:	444f4d5f 	strbmi	r4, [pc], #-3423	; 3698 <_Min_Stack_Size+0x3298>
    3694:	554f5f45 	strbpl	r5, [pc, #-3909]	; 2757 <_Min_Stack_Size+0x2357>
    3698:	54555054 	ldrbpl	r5, [r5], #-84	; 0xffffffac
    369c:	45504f5f 	ldrbmi	r4, [r0, #-3935]	; 0xfffff0a1
    36a0:	52445f4e 	subpl	r5, r4, #312	; 0x138
    36a4:	5f4e4941 	svcpl	0x004e4941
    36a8:	484d5f32 	stmdami	sp, {r1, r4, r5, r8, r9, sl, fp, ip, lr}^
    36ac:	6230205a 	eorsvs	r2, r0, #90	; 0x5a
    36b0:	30313130 	eorscc	r3, r1, r0, lsr r1
    36b4:	575f5f00 	ldrbpl	r5, [pc, -r0, lsl #30]
    36b8:	5f544e49 	svcpl	0x00544e49
    36bc:	45505954 	ldrbmi	r5, [r0, #-2388]	; 0xfffff6ac
    36c0:	75205f5f 	strvc	r5, [r0, #-3935]!	; 0xfffff0a1
    36c4:	6769736e 	strbvs	r7, [r9, -lr, ror #6]!
    36c8:	2064656e 	rsbcs	r6, r4, lr, ror #10
    36cc:	00746e69 	rsbseq	r6, r4, r9, ror #28
    36d0:	52415f5f 	subpl	r5, r1, #380	; 0x17c
    36d4:	50465f4d 	subpl	r5, r6, sp, asr #30
    36d8:	415f3631 	cmpmi	pc, r1, lsr r6	; <UNPREDICTABLE>
    36dc:	00534752 	subseq	r4, r3, r2, asr r7
    36e0:	43475f5f 	movtmi	r5, #32607	; 0x7f5f
    36e4:	45495f43 	strbmi	r5, [r9, #-3907]	; 0xfffff0bd
    36e8:	35355f43 	ldrcc	r5, [r5, #-3907]!	; 0xfffff0bd
    36ec:	00302039 	eorseq	r2, r0, r9, lsr r0
    36f0:	464c5f5f 			; <UNDEFINED> instruction: 0x464c5f5f
    36f4:	54434152 	strbpl	r4, [r3], #-338	; 0xfffffeae
    36f8:	58414d5f 	stmdapl	r1, {r0, r1, r2, r3, r4, r6, r8, sl, fp, lr}^
    36fc:	30205f5f 	eorcc	r5, r0, pc, asr pc
    3700:	46463758 			; <UNDEFINED> instruction: 0x46463758
    3704:	46464646 	strbmi	r4, [r6], -r6, asr #12
    3708:	332d5046 			; <UNDEFINED> instruction: 0x332d5046
    370c:	00524c31 	subseq	r4, r2, r1, lsr ip
    3710:	49535f5f 	ldmdbmi	r3, {r0, r1, r2, r3, r4, r6, r8, r9, sl, fp, ip, lr}^
    3714:	464f455a 			; <UNDEFINED> instruction: 0x464f455a
    3718:	5254505f 	subspl	r5, r4, #95	; 0x5f
    371c:	46464944 	strbmi	r4, [r6], -r4, asr #18
    3720:	5f5f545f 	svcpl	0x005f545f
    3724:	45003420 	strmi	r3, [r0, #-1056]	; 0xfffffbe0
    3728:	31495458 	cmpcc	r9, r8, asr r4
    372c:	31312031 	teqcc	r1, r1, lsr r0
    3730:	535f5f00 	cmppl	pc, #0, 30
    3734:	5f434454 	svcpl	0x00434454
    3738:	0031205f 	eorseq	r2, r1, pc, asr r0
    373c:	52415f5f 	subpl	r5, r1, #380	; 0x17c
    3740:	45465f4d 	strbmi	r5, [r6, #-3917]	; 0xfffff0b3
    3744:	52555441 	subspl	r5, r5, #1090519040	; 0x41000000
    3748:	44495f45 	strbmi	r5, [r9], #-3909	; 0xfffff0bb
    374c:	31205649 			; <UNDEFINED> instruction: 0x31205649
    3750:	465f5f00 	ldrbmi	r5, [pc], -r0, lsl #30
    3754:	54414f4c 	strbpl	r4, [r1], #-3916	; 0xfffff0b4
    3758:	524f575f 	subpl	r5, pc, #24903680	; 0x17c0000
    375c:	524f5f44 	subpl	r5, pc, #68, 30	; 0x110
    3760:	5f524544 	svcpl	0x00524544
    3764:	5f5f205f 	svcpl	0x005f205f
    3768:	4544524f 	strbmi	r5, [r4, #-591]	; 0xfffffdb1
    376c:	494c5f52 	stmdbmi	ip, {r1, r4, r6, r8, r9, sl, fp, ip, lr}^
    3770:	454c5454 	strbmi	r5, [ip, #-1108]	; 0xfffffbac
    3774:	444e455f 	strbmi	r4, [lr], #-1375	; 0xfffffaa1
    3778:	5f4e4149 	svcpl	0x004e4149
    377c:	4550005f 	ldrbmi	r0, [r0, #-95]	; 0xffffffa1
    3780:	48504952 	ldmdami	r0, {r1, r4, r6, r8, fp, lr}^
    3784:	4c415245 	sfmmi	f5, 2, [r1], {69}	; 0x45
    3788:	41425f53 	cmpmi	r2, r3, asr pc
    378c:	415f4553 	cmpmi	pc, r3, asr r5	; <UNPREDICTABLE>
    3790:	30204444 	eorcc	r4, r0, r4, asr #8
    3794:	30303478 	eorscc	r3, r0, r8, ror r4
    3798:	30303030 	eorscc	r3, r0, r0, lsr r0
    379c:	004c5530 	subeq	r5, ip, r0, lsr r5
    37a0:	49555f5f 	ldmdbmi	r5, {r0, r1, r2, r3, r4, r6, r8, r9, sl, fp, ip, lr}^
    37a4:	5f38544e 	svcpl	0x0038544e
    37a8:	45505954 	ldrbmi	r5, [r0, #-2388]	; 0xfffff6ac
    37ac:	75205f5f 	strvc	r5, [r0, #-3935]!	; 0xfffff0a1
    37b0:	6769736e 	strbvs	r7, [r9, -lr, ror #6]!
    37b4:	2064656e 	rsbcs	r6, r4, lr, ror #10
    37b8:	72616863 	rsbvc	r6, r1, #6488064	; 0x630000
    37bc:	555f5f00 	ldrbpl	r5, [pc, #-3840]	; 28c4 <_Min_Stack_Size+0x24c4>
    37c0:	5f544e49 	svcpl	0x00544e49
    37c4:	5341454c 	movtpl	r4, #5452	; 0x154c
    37c8:	545f3854 	ldrbpl	r3, [pc], #-2132	; 37d0 <_Min_Stack_Size+0x33d0>
    37cc:	5f455059 	svcpl	0x00455059
    37d0:	6e75205f 	mrcvs	0, 3, r2, cr5, cr15, {2}
    37d4:	6e676973 			; <UNDEFINED> instruction: 0x6e676973
    37d8:	63206465 			; <UNDEFINED> instruction: 0x63206465
    37dc:	00726168 	rsbseq	r6, r2, r8, ror #2
    37e0:	4f495047 	svcmi	0x00495047
    37e4:	4e49505f 	mcrmi	0, 2, r5, cr9, cr15, {2}
    37e8:	444f4d5f 	strbmi	r4, [pc], #-3423	; 37f0 <_Min_Stack_Size+0x33f0>
    37ec:	4e495f45 	cdpmi	15, 4, cr5, cr9, cr5, {2}
    37f0:	5f545550 	svcpl	0x00545550
    37f4:	4c4c5550 	cfstr64mi	mvdx5, [ip], {80}	; 0x50
    37f8:	2050555f 	subscs	r5, r0, pc, asr r5
    37fc:	30316230 	eorscc	r6, r1, r0, lsr r2
    3800:	45003030 	strmi	r3, [r0, #-48]	; 0xffffffd0
    3804:	31495458 	cmpcc	r9, r8, asr r4
    3808:	33312033 	teqcc	r1, #51	; 0x33
    380c:	555f5f00 	ldrbpl	r5, [pc, #-3840]	; 2914 <_Min_Stack_Size+0x2514>
    3810:	465f4153 			; <UNDEFINED> instruction: 0x465f4153
    3814:	5f544942 	svcpl	0x00544942
    3818:	3631205f 			; <UNDEFINED> instruction: 0x3631205f
    381c:	49564e00 	ldmdbmi	r6, {r9, sl, fp, lr}^
    3820:	52495f43 	subpl	r5, r9, #268	; 0x10c
    3824:	5f373351 	svcpl	0x00373351
    3828:	52415355 	subpl	r5, r1, #1409286145	; 0x54000001
    382c:	455f3154 	ldrbmi	r3, [pc, #-340]	; 36e0 <_Min_Stack_Size+0x32e0>
    3830:	4c42414e 	stfmie	f4, [r2], {78}	; 0x4e
    3834:	564e2045 	strbpl	r2, [lr], -r5, asr #32
    3838:	495f4349 	ldmdbmi	pc, {r0, r3, r6, r8, r9, lr}^	; <UNPREDICTABLE>
    383c:	31524553 	cmpcc	r2, r3, asr r5
    3840:	203d7c20 	eorscs	r7, sp, r0, lsr #24
    3844:	3c3c3128 	ldfccs	f3, [ip], #-160	; 0xffffff60
    3848:	003b2935 	eorseq	r2, fp, r5, lsr r9
    384c:	444c5f5f 	strbmi	r5, [ip], #-3935	; 0xfffff0a1
    3850:	4d5f4c42 	ldclmi	12, cr4, [pc, #-264]	; 3750 <_Min_Stack_Size+0x3350>
    3854:	315f4e49 	cmpcc	pc, r9, asr #28
    3858:	58455f30 	stmdapl	r5, {r4, r5, r8, r9, sl, fp, ip, lr}^
    385c:	205f5f50 	subscs	r5, pc, r0, asr pc	; <UNPREDICTABLE>
    3860:	30332d28 	eorscc	r2, r3, r8, lsr #26
    3864:	5f002937 	svcpl	0x00002937
    3868:	544c465f 	strbpl	r4, [ip], #-1631	; 0xfffff9a1
    386c:	5f583233 	svcpl	0x00583233
    3870:	49535045 	ldmdbmi	r3, {r0, r2, r6, ip, lr}^
    3874:	5f4e4f4c 	svcpl	0x004e4f4c
    3878:	2e32205f 	mrccs	0, 1, r2, cr2, cr15, {2}
    387c:	34303232 	ldrtcc	r3, [r0], #-562	; 0xfffffdce
    3880:	34303634 	ldrtcc	r3, [r0], #-1588	; 0xfffff9cc
    3884:	30353239 	eorscc	r3, r5, r9, lsr r2
    3888:	31333133 	teqcc	r3, r3, lsr r1
    388c:	36312d65 	ldrtcc	r2, [r1], -r5, ror #26
    3890:	78323346 	ldmdavc	r2!, {r1, r2, r6, r8, r9, ip, sp}
    3894:	465f5f00 	ldrbmi	r5, [pc], -r0, lsl #30
    3898:	485f544c 	ldmdami	pc, {r2, r3, r6, sl, ip, lr}^	; <UNPREDICTABLE>
    389c:	515f5341 	cmppl	pc, r1, asr #6
    38a0:	54454955 	strbpl	r4, [r5], #-2389	; 0xfffff6ab
    38a4:	4e414e5f 	mcrmi	14, 2, r4, cr1, cr15, {2}
    38a8:	31205f5f 			; <UNDEFINED> instruction: 0x31205f5f
    38ac:	475f5f00 	ldrbmi	r5, [pc, -r0, lsl #30]
    38b0:	415f4343 	cmpmi	pc, r3, asr #6
    38b4:	494d4f54 	stmdbmi	sp, {r2, r4, r6, r8, r9, sl, fp, lr}^
    38b8:	48435f43 	stmdami	r3, {r0, r1, r6, r8, r9, sl, fp, ip, lr}^
    38bc:	4c5f5241 	lfmmi	f5, 2, [pc], {65}	; 0x41
    38c0:	5f4b434f 	svcpl	0x004b434f
    38c4:	45455246 	strbmi	r5, [r5, #-582]	; 0xfffffdba
    38c8:	52003220 	andpl	r3, r0, #32, 4
    38cc:	555f4343 	ldrbpl	r4, [pc, #-835]	; 3591 <_Min_Stack_Size+0x3191>
    38d0:	54524153 	ldrbpl	r4, [r2], #-339	; 0xfffffead
    38d4:	4e455f32 	mcrmi	15, 2, r5, cr5, cr2, {1}
    38d8:	52202928 	eorpl	r2, r0, #40, 18	; 0xa0000
    38dc:	3e2d4343 	cdpcc	3, 2, cr4, cr13, cr3, {2}
    38e0:	31425041 	cmpcc	r2, r1, asr #32
    38e4:	20524e45 	subscs	r4, r2, r5, asr #28
    38e8:	28203d7c 	stmdacs	r0!, {r2, r3, r4, r5, r6, r8, sl, fp, ip, sp}
    38ec:	313c3c31 	teqcc	ip, r1, lsr ip
    38f0:	52002937 	andpl	r2, r0, #901120	; 0xdc000
    38f4:	545f4343 	ldrbpl	r4, [pc], #-835	; 38fc <_Min_Stack_Size+0x34fc>
    38f8:	32314d49 	eorscc	r4, r1, #4672	; 0x1240
    38fc:	284e455f 	stmdacs	lr, {r0, r1, r2, r3, r4, r6, r8, sl, lr}^
    3900:	43522029 	cmpmi	r2, #41	; 0x29
    3904:	413e2d43 	teqmi	lr, r3, asr #26
    3908:	45314250 	ldrmi	r4, [r1, #-592]!	; 0xfffffdb0
    390c:	7c20524e 	sfmvc	f5, 4, [r0], #-312	; 0xfffffec8
    3910:	3128203d 			; <UNDEFINED> instruction: 0x3128203d
    3914:	29363c3c 	ldmdbcs	r6!, {r2, r3, r4, r5, sl, fp, ip, sp}
    3918:	54584500 	ldrbpl	r4, [r8], #-1280	; 0xfffffb00
    391c:	20353149 	eorscs	r3, r5, r9, asr #2
    3920:	5f003531 	svcpl	0x00003531
    3924:	52464c5f 	subpl	r4, r6, #24320	; 0x5f00
    3928:	5f544341 	svcpl	0x00544341
    392c:	49535045 	ldmdbmi	r3, {r0, r2, r6, ip, lr}^
    3930:	5f4e4f4c 	svcpl	0x004e4f4c
    3934:	7830205f 	ldmdavc	r0!, {r0, r1, r2, r3, r4, r6, sp}
    3938:	332d5031 			; <UNDEFINED> instruction: 0x332d5031
    393c:	00524c31 	subseq	r4, r2, r1, lsr ip
    3940:	49545845 	ldmdbmi	r4, {r0, r2, r6, fp, ip, lr}^
    3944:	4e49505f 	mcrmi	0, 2, r5, cr9, cr15, {2}
    3948:	4e494c5f 	mcrmi	12, 2, r4, cr9, cr15, {2}
    394c:	43503045 	cmpmi	r0, #69	; 0x45
    3950:	45282030 	strmi	r2, [r8, #-48]!	; 0xffffffd0
    3954:	5f495458 	svcpl	0x00495458
    3958:	75746553 	ldrbvc	r6, [r4, #-1363]!	; 0xfffffaad
    395c:	29745f70 	ldmdbcs	r4!, {r4, r5, r6, r8, r9, sl, fp, ip, lr}^
    3960:	5458457b 	ldrbpl	r4, [r8], #-1403	; 0xfffffa85
    3964:	472c3049 	strmi	r3, [ip, -r9, asr #32]!
    3968:	434f4950 	movtmi	r4, #63824	; 0xf950
    396c:	4950472c 	ldmdbmi	r0, {r2, r3, r5, r8, r9, sl, lr}^
    3970:	49505f4f 	ldmdbmi	r0, {r0, r1, r2, r3, r6, r8, r9, sl, fp, ip, lr}^
    3974:	7d305f4e 	ldcvc	15, cr5, [r0, #-312]!	; 0xfffffec8
    3978:	49504700 	ldmdbmi	r0, {r8, r9, sl, lr}^
    397c:	2820434f 	stmdacs	r0!, {r0, r1, r2, r3, r6, r8, r9, lr}
    3980:	49504728 	ldmdbmi	r0, {r3, r5, r8, r9, sl, lr}^
    3984:	2a745f4f 	bcs	1d1b6c8 <_Min_Stack_Size+0x1d1b2c8>
    3988:	49504729 	ldmdbmi	r0, {r0, r3, r5, r8, r9, sl, lr}^
    398c:	425f434f 	subsmi	r4, pc, #1006632961	; 0x3c000001
    3990:	5f455341 	svcpl	0x00455341
    3994:	45444441 	strbmi	r4, [r4, #-1089]	; 0xfffffbbf
    3998:	53534552 	cmppl	r3, #343932928	; 0x14800000
    399c:	5f5f0029 	svcpl	0x005f0029
    39a0:	5f4d5241 	svcpl	0x004d5241
    39a4:	455a4953 	ldrbmi	r4, [sl, #-2387]	; 0xfffff6ad
    39a8:	4d5f464f 	ldclmi	6, cr4, [pc, #-316]	; 3874 <_Min_Stack_Size+0x3474>
    39ac:	4d494e49 	stclmi	14, cr4, [r9, #-292]	; 0xfffffedc
    39b0:	455f4c41 	ldrbmi	r4, [pc, #-3137]	; 2d77 <_Min_Stack_Size+0x2977>
    39b4:	204d554e 	subcs	r5, sp, lr, asr #10
    39b8:	5f5f0031 	svcpl	0x005f0031
    39bc:	33544c46 	cmpcc	r4, #17920	; 0x4600
    39c0:	4e5f5832 	mrcmi	8, 2, r5, cr15, cr2, {1}
    39c4:	5f4d524f 	svcpl	0x004d524f
    39c8:	5f58414d 	svcpl	0x0058414d
    39cc:	2e31205f 	mrccs	0, 1, r2, cr1, cr15, {2}
    39d0:	36373937 			; <UNDEFINED> instruction: 0x36373937
    39d4:	33313339 	teqcc	r1, #-469762048	; 0xe4000000
    39d8:	32363834 	eorscc	r3, r6, #52, 16	; 0x340000
    39dc:	37353133 			; <UNDEFINED> instruction: 0x37353133
    39e0:	30332b65 	eorscc	r2, r3, r5, ror #22
    39e4:	32334638 	eorscc	r4, r3, #56, 12	; 0x3800000
    39e8:	564e0078 			; <UNDEFINED> instruction: 0x564e0078
    39ec:	495f4349 	ldmdbmi	pc, {r0, r3, r6, r8, r9, lr}^	; <UNPREDICTABLE>
    39f0:	32524543 	subscc	r4, r2, #281018368	; 0x10c00000
    39f4:	76282a20 	strtvc	r2, [r8], -r0, lsr #20
    39f8:	746e6975 	strbtvc	r6, [lr], #-2421	; 0xfffff68b
    39fc:	745f3233 	ldrbvc	r3, [pc], #-563	; 3a04 <_Min_Stack_Size+0x3604>
    3a00:	4e28292a 	vmulmi.f16	s4, s16, s21	; <UNPREDICTABLE>
    3a04:	5f434956 	svcpl	0x00434956
    3a08:	45534142 	ldrbmi	r4, [r3, #-322]	; 0xfffffebe
    3a0c:	4444415f 	strbmi	r4, [r4], #-351	; 0xfffffea1
    3a10:	53455245 	movtpl	r5, #21061	; 0x5245
    3a14:	78302b53 	ldmdavc	r0!, {r0, r1, r4, r6, r8, r9, fp, sp}
    3a18:	29383830 	ldmdbcs	r8!, {r4, r5, fp, ip, sp}
    3a1c:	49504700 	ldmdbmi	r0, {r8, r9, sl, lr}^
    3a20:	49505f4f 	ldmdbmi	r0, {r0, r1, r2, r3, r6, r8, r9, sl, fp, ip, lr}^
    3a24:	4f4d5f4e 	svcmi	0x004d5f4e
    3a28:	415f4544 	cmpmi	pc, r4, asr #10
    3a2c:	5245544c 	subpl	r5, r5, #76, 8	; 0x4c000000
    3a30:	4554414e 	ldrbmi	r4, [r4, #-334]	; 0xfffffeb2
    3a34:	5355505f 	cmppl	r5, #95	; 0x5f
    3a38:	55505f48 	ldrbpl	r5, [r0, #-3912]	; 0xfffff0b8
    3a3c:	355f4c4c 	ldrbcc	r4, [pc, #-3148]	; 2df8 <_Min_Stack_Size+0x29f8>
    3a40:	484d5f30 	stmdami	sp, {r4, r5, r8, r9, sl, fp, ip, lr}^
    3a44:	6230205a 	eorsvs	r2, r0, #90	; 0x5a
    3a48:	31313031 	teqcc	r1, r1, lsr r0
    3a4c:	465f5f00 	ldrbmi	r5, [pc], -r0, lsl #30
    3a50:	3233544c 	eorscc	r5, r3, #76, 8	; 0x4c000000
    3a54:	4e494d5f 	mcrmi	13, 2, r4, cr9, cr15, {2}
    3a58:	5f30315f 	svcpl	0x0030315f
    3a5c:	5f505845 	svcpl	0x00505845
    3a60:	2d28205f 	stccs	0, cr2, [r8, #-380]!	; 0xfffffe84
    3a64:	00293733 	eoreq	r3, r9, r3, lsr r7
    3a68:	49545845 	ldmdbmi	r4, {r0, r2, r6, fp, ip, lr}^
    3a6c:	4e49505f 	mcrmi	0, 2, r5, cr9, cr15, {2}
    3a70:	4e494c5f 	mcrmi	12, 2, r4, cr9, cr15, {2}
    3a74:	41503145 	cmpmi	r0, r5, asr #2
    3a78:	45282031 	strmi	r2, [r8, #-49]!	; 0xffffffcf
    3a7c:	5f495458 	svcpl	0x00495458
    3a80:	75746553 	ldrbvc	r6, [r4, #-1363]!	; 0xfffffaad
    3a84:	29745f70 	ldmdbcs	r4!, {r4, r5, r6, r8, r9, sl, fp, ip, lr}^
    3a88:	5458457b 	ldrbpl	r4, [r8], #-1403	; 0xfffffa85
    3a8c:	472c3149 	strmi	r3, [ip, -r9, asr #2]!
    3a90:	414f4950 	cmpmi	pc, r0, asr r9	; <UNPREDICTABLE>
    3a94:	4950472c 	ldmdbmi	r0, {r2, r3, r5, r8, r9, sl, lr}^
    3a98:	49505f4f 	ldmdbmi	r0, {r0, r1, r2, r3, r6, r8, r9, sl, fp, ip, lr}^
    3a9c:	7d315f4e 	ldcvc	15, cr5, [r1, #-312]!	; 0xfffffec8
    3aa0:	415f5f00 	cmpmi	pc, r0, lsl #30
    3aa4:	465f4d52 			; <UNDEFINED> instruction: 0x465f4d52
    3aa8:	5f363150 	svcpl	0x00363150
    3aac:	4d524f46 	ldclmi	15, cr4, [r2, #-280]	; 0xfffffee8
    3ab0:	415f5441 	cmpmi	pc, r1, asr #8
    3ab4:	5245544c 	subpl	r5, r5, #76, 8	; 0x4c000000
    3ab8:	4954414e 	ldmdbmi	r4, {r1, r2, r3, r6, r8, lr}^
    3abc:	5f004556 	svcpl	0x00004556
    3ac0:	42444c5f 	submi	r4, r4, #24320	; 0x5f00
    3ac4:	4f4e5f4c 	svcmi	0x004e5f4c
    3ac8:	4d5f4d52 	ldclmi	13, cr4, [pc, #-328]	; 3988 <_Min_Stack_Size+0x3588>
    3acc:	5f5f5841 	svcpl	0x005f5841
    3ad0:	372e3120 	strcc	r3, [lr, -r0, lsr #2]!
    3ad4:	39363739 	ldmdbcc	r6!, {r0, r3, r4, r5, r8, r9, sl, ip, sp}
    3ad8:	34333133 	ldrtcc	r3, [r3], #-307	; 0xfffffecd
    3adc:	33323638 	teqcc	r2, #56, 12	; 0x3800000
    3ae0:	65373531 	ldrvs	r3, [r7, #-1329]!	; 0xfffffacf
    3ae4:	3830332b 	ldmdacc	r0!, {r0, r1, r3, r5, r8, r9, ip, sp}
    3ae8:	5845004c 	stmdapl	r5, {r2, r3, r6}^
    3aec:	505f4954 	subspl	r4, pc, r4, asr r9	; <UNPREDICTABLE>
    3af0:	4c5f4e49 	mrrcmi	14, 4, r4, pc, cr9	; <UNPREDICTABLE>
    3af4:	31454e49 	cmpcc	r5, r9, asr #28
    3af8:	31435032 	cmpcc	r3, r2, lsr r0
    3afc:	45282032 	strmi	r2, [r8, #-50]!	; 0xffffffce
    3b00:	5f495458 	svcpl	0x00495458
    3b04:	75746553 	ldrbvc	r6, [r4, #-1363]!	; 0xfffffaad
    3b08:	29745f70 	ldmdbcs	r4!, {r4, r5, r6, r8, r9, sl, fp, ip, lr}^
    3b0c:	5458457b 	ldrbpl	r4, [r8], #-1403	; 0xfffffa85
    3b10:	2c323149 	ldfcss	f3, [r2], #-292	; 0xfffffedc
    3b14:	4f495047 	svcmi	0x00495047
    3b18:	50472c43 	subpl	r2, r7, r3, asr #24
    3b1c:	505f4f49 	subspl	r4, pc, r9, asr #30
    3b20:	315f4e49 	cmpcc	pc, r9, asr #28
    3b24:	49007d32 	stmdbmi	r0, {r1, r4, r5, r8, sl, fp, ip, sp, lr}
    3b28:	535f434e 	cmppl	pc, #939524097	; 0x38000001
    3b2c:	32334d54 	eorscc	r4, r3, #84, 26	; 0x1500
    3b30:	33303146 	teqcc	r0, #-2147483631	; 0x80000011
    3b34:	475f3658 			; <UNDEFINED> instruction: 0x475f3658
    3b38:	5f4f4950 	svcpl	0x004f4950
    3b3c:	00205f48 	eoreq	r5, r0, r8, asr #30
    3b40:	49425f5f 	stmdbmi	r2, {r0, r1, r2, r3, r4, r6, r8, r9, sl, fp, ip, lr}^
    3b44:	53454747 	movtpl	r4, #22343	; 0x5747
    3b48:	4c415f54 	mcrrmi	15, 5, r5, r1, cr4
    3b4c:	4d4e4749 	stclmi	7, cr4, [lr, #-292]	; 0xfffffedc
    3b50:	5f544e45 	svcpl	0x00544e45
    3b54:	0038205f 	eorseq	r2, r8, pc, asr r0
    3b58:	41545f5f 	cmpmi	r4, pc, asr pc
    3b5c:	4942495f 	stmdbmi	r2, {r0, r1, r2, r3, r4, r6, r8, fp, lr}^
    3b60:	205f5f54 	subscs	r5, pc, r4, asr pc	; <UNPREDICTABLE>
    3b64:	53003436 	movwpl	r3, #1078	; 0x436
    3b68:	32334d54 	eorscc	r4, r3, #84, 26	; 0x1500
    3b6c:	52003120 	andpl	r3, r0, #32, 2
    3b70:	535f4343 	cmppl	pc, #201326593	; 0xc000001
    3b74:	5f314950 	svcpl	0x00314950
    3b78:	29284e45 	stmdbcs	r8!, {r0, r2, r6, r9, sl, fp, lr}
    3b7c:	43435220 	movtmi	r5, #12832	; 0x3220
    3b80:	50413e2d 	subpl	r3, r1, sp, lsr #28
    3b84:	4e453242 	cdpmi	2, 4, cr3, cr5, cr2, {2}
    3b88:	3d7c2052 	ldclcc	0, cr2, [ip, #-328]!	; 0xfffffeb8
    3b8c:	3c312820 	ldccc	8, cr2, [r1], #-128	; 0xffffff80
    3b90:	2932313c 	ldmdbcs	r2!, {r2, r3, r4, r5, r8, ip, sp}
    3b94:	54584500 	ldrbpl	r4, [r8], #-1280	; 0xfffffb00
    3b98:	34203449 	strtcc	r3, [r0], #-1097	; 0xfffffbb7
    3b9c:	41535500 	cmpmi	r3, r0, lsl #10
    3ba0:	49445452 	stmdbmi	r4, {r1, r4, r6, sl, ip, lr}^
    3ba4:	554d5f56 	strbpl	r5, [sp, #-3926]	; 0xfffff0aa
    3ba8:	3030314c 	eorscc	r3, r0, ip, asr #2
    3bac:	43505f28 	cmpmi	r0, #40, 30	; 0xa0
    3bb0:	5f2c4b4c 	svcpl	0x002c4b4c
    3bb4:	44554142 	ldrbmi	r4, [r5], #-322	; 0xfffffebe
    3bb8:	45544152 	ldrbmi	r4, [r4, #-338]	; 0xfffffeae
    3bbc:	75282029 	strvc	r2, [r8, #-41]!	; 0xffffffd7
    3bc0:	33746e69 	cmncc	r4, #1680	; 0x690
    3bc4:	29745f32 	ldmdbcs	r4!, {r1, r4, r5, r8, r9, sl, fp, ip, lr}^
    3bc8:	505f2828 	subspl	r2, pc, r8, lsr #16
    3bcc:	2a4b4c43 	bcs	12d6ce0 <_Min_Stack_Size+0x12d68e0>
    3bd0:	2f293532 	svccs	0x00293532
    3bd4:	41425f28 	cmpmi	r2, r8, lsr #30
    3bd8:	41524455 	cmpmi	r2, r5, asr r4
    3bdc:	342a4554 	strtcc	r4, [sl], #-1364	; 0xfffffaac
    3be0:	5f002929 	svcpl	0x00002929
    3be4:	4d52415f 	ldfmie	f4, [r2, #-380]	; 0xfffffe84
    3be8:	4145465f 	cmpmi	r5, pc, asr r6
    3bec:	45525554 	ldrbmi	r5, [r2, #-1364]	; 0xfffffaac
    3bf0:	4452515f 	ldrbmi	r5, [r2], #-351	; 0xfffffea1
    3bf4:	5f00584d 	svcpl	0x0000584d
    3bf8:	4d52415f 	ldfmie	f4, [r2, #-380]	; 0xfffffe84
    3bfc:	4352415f 	cmpmi	r2, #-1073741801	; 0xc0000017
    3c00:	53495f48 	movtpl	r5, #40776	; 0x9f48
    3c04:	48545f41 	ldmdami	r4, {r0, r6, r8, r9, sl, fp, ip, lr}^
    3c08:	20424d55 	subcs	r4, r2, r5, asr sp
    3c0c:	5f5f0032 	svcpl	0x005f0032
    3c10:	4c42444c 	cfstrdmi	mvd4, [r2], {76}	; 0x4c
    3c14:	5341485f 	movtpl	r4, #6239	; 0x185f
    3c18:	4e45445f 	mcrmi	4, 2, r4, cr5, cr15, {2}
    3c1c:	5f4d524f 	svcpl	0x004d524f
    3c20:	0031205f 	eorseq	r2, r1, pc, asr r0
    3c24:	4f4c5f5f 	svcmi	0x004c5f5f
    3c28:	4c5f474e 	mrrcmi	7, 4, r4, pc, cr14	; <UNPREDICTABLE>
    3c2c:	5f474e4f 	svcpl	0x00474e4f
    3c30:	5f58414d 	svcpl	0x0058414d
    3c34:	7830205f 	ldmdavc	r0!, {r0, r1, r2, r3, r4, r6, sp}
    3c38:	66666637 			; <UNDEFINED> instruction: 0x66666637
    3c3c:	66666666 	strbtvs	r6, [r6], -r6, ror #12
    3c40:	66666666 	strbtvs	r6, [r6], -r6, ror #12
    3c44:	66666666 	strbtvs	r6, [r6], -r6, ror #12
    3c48:	45004c4c 	strmi	r4, [r0, #-3148]	; 0xfffff3b4
    3c4c:	5f495458 	svcpl	0x00495458
    3c50:	5f4e4950 	svcpl	0x004e4950
    3c54:	454e494c 	strbmi	r4, [lr, #-2380]	; 0xfffff6b4
    3c58:	43503331 	cmpmi	r0, #-1006632960	; 0xc4000000
    3c5c:	28203331 	stmdacs	r0!, {r0, r4, r5, r8, r9, ip, sp}
    3c60:	49545845 	ldmdbmi	r4, {r0, r2, r6, fp, ip, lr}^
    3c64:	7465535f 	strbtvc	r5, [r5], #-863	; 0xfffffca1
    3c68:	745f7075 	ldrbvc	r7, [pc], #-117	; 3c70 <_Min_Stack_Size+0x3870>
    3c6c:	58457b29 	stmdapl	r5, {r0, r3, r5, r8, r9, fp, ip, sp, lr}^
    3c70:	33314954 	teqcc	r1, #84, 18	; 0x150000
    3c74:	4950472c 	ldmdbmi	r0, {r2, r3, r5, r8, r9, sl, lr}^
    3c78:	472c434f 	strmi	r4, [ip, -pc, asr #6]!
    3c7c:	5f4f4950 	svcpl	0x004f4950
    3c80:	5f4e4950 	svcpl	0x004e4950
    3c84:	007d3331 	rsbseq	r3, sp, r1, lsr r3
    3c88:	49555f5f 	ldmdbmi	r5, {r0, r1, r2, r3, r4, r6, r8, r9, sl, fp, ip, lr}^
    3c8c:	465f544e 	ldrbmi	r5, [pc], -lr, asr #8
    3c90:	33545341 	cmpcc	r4, #67108865	; 0x4000001
    3c94:	59545f32 	ldmdbpl	r4, {r1, r4, r5, r8, r9, sl, fp, ip, lr}^
    3c98:	5f5f4550 	svcpl	0x005f4550
    3c9c:	736e7520 	cmnvc	lr, #32, 10	; 0x8000000
    3ca0:	656e6769 	strbvs	r6, [lr, #-1897]!	; 0xfffff897
    3ca4:	6e692064 	cdpvs	0, 6, cr2, cr9, cr4, {3}
    3ca8:	5f5f0074 	svcpl	0x005f0074
    3cac:	41524655 	cmpmi	r2, r5, asr r6
    3cb0:	495f5443 	ldmdbmi	pc, {r0, r1, r6, sl, ip, lr}^	; <UNPREDICTABLE>
    3cb4:	5f544942 	svcpl	0x00544942
    3cb8:	0030205f 	eorseq	r2, r0, pc, asr r0
    3cbc:	52415f5f 	subpl	r5, r1, #380	; 0x17c
    3cc0:	32335f4d 	eorscc	r5, r3, #308	; 0x134
    3cc4:	5f544942 	svcpl	0x00544942
    3cc8:	54415453 	strbpl	r5, [r1], #-1107	; 0xfffffbad
    3ccc:	00312045 	eorseq	r2, r1, r5, asr #32
    3cd0:	4349564e 	movtmi	r5, #38478	; 0x964e
    3cd4:	5349445f 	movtpl	r4, #37983	; 0x945f
    3cd8:	454c4241 	strbmi	r4, [ip, #-577]	; 0xfffffdbf
    3cdc:	495f5f00 	ldmdbmi	pc, {r8, r9, sl, fp, ip, lr}^	; <UNPREDICTABLE>
    3ce0:	5f38544e 	svcpl	0x0038544e
    3ce4:	29632843 	stmdbcs	r3!, {r0, r1, r6, fp, sp}^
    3ce8:	5f006320 	svcpl	0x00006320
    3cec:	52464c5f 	subpl	r4, r6, #24320	; 0x5f00
    3cf0:	5f544341 	svcpl	0x00544341
    3cf4:	54494249 	strbpl	r4, [r9], #-585	; 0xfffffdb7
    3cf8:	30205f5f 	eorcc	r5, r0, pc, asr pc
    3cfc:	555f5f00 	ldrbpl	r5, [pc, #-3840]	; 2e04 <_Min_Stack_Size+0x2a04>
    3d00:	4343414c 	movtmi	r4, #12620	; 0x314c
    3d04:	4d5f4d55 	ldclmi	13, cr4, [pc, #-340]	; 3bb8 <_Min_Stack_Size+0x37b8>
    3d08:	5f5f4e49 	svcpl	0x005f4e49
    3d0c:	302e3020 	eorcc	r3, lr, r0, lsr #32
    3d10:	004b4c55 	subeq	r4, fp, r5, asr ip
    3d14:	46535f5f 	usaxmi	r5, r3, pc	; <UNPREDICTABLE>
    3d18:	54434152 	strbpl	r4, [r3], #-338	; 0xfffffeae
    3d1c:	5350455f 	cmppl	r0, #398458880	; 0x17c00000
    3d20:	4e4f4c49 	cdpmi	12, 4, cr4, cr15, cr9, {2}
    3d24:	30205f5f 	eorcc	r5, r0, pc, asr pc
    3d28:	2d503178 	ldfcse	f3, [r0, #-480]	; 0xfffffe20
    3d2c:	00524837 	subseq	r4, r2, r7, lsr r8
    3d30:	42445f5f 	submi	r5, r4, #380	; 0x17c
    3d34:	494d5f4c 	stmdbmi	sp, {r2, r3, r6, r8, r9, sl, fp, ip, lr}^
    3d38:	58455f4e 	stmdapl	r5, {r1, r2, r3, r6, r8, r9, sl, fp, ip, lr}^
    3d3c:	205f5f50 	subscs	r5, pc, r0, asr pc	; <UNPREDICTABLE>
    3d40:	30312d28 	eorscc	r2, r1, r8, lsr #26
    3d44:	00293132 	eoreq	r3, r9, r2, lsr r1
    3d48:	4f495047 	svcmi	0x00495047
    3d4c:	4e49505f 	mcrmi	0, 2, r5, cr9, cr15, {2}
    3d50:	444f4d5f 	strbmi	r4, [pc], #-3423	; 3d58 <_Min_Stack_Size+0x3958>
    3d54:	554f5f45 	strbpl	r5, [pc, #-3909]	; 2e17 <_Min_Stack_Size+0x2a17>
    3d58:	54555054 	ldrbpl	r5, [r5], #-84	; 0xffffffac
    3d5c:	5355505f 	cmppl	r5, #95	; 0x5f
    3d60:	55505f48 	ldrbpl	r5, [r0, #-3912]	; 0xfffff0b8
    3d64:	325f4c4c 	subscc	r4, pc, #76, 24	; 0x4c00
    3d68:	5a484d5f 	bpl	12172ec <_Min_Stack_Size+0x1216eec>
    3d6c:	30623020 	rsbcc	r3, r2, r0, lsr #32
    3d70:	00303130 	eorseq	r3, r0, r0, lsr r1
    3d74:	4349564e 	movtmi	r5, #38478	; 0x964e
    3d78:	5152495f 	cmppl	r2, pc, asr r9
    3d7c:	555f3933 	ldrbpl	r3, [pc, #-2355]	; 3451 <_Min_Stack_Size+0x3051>
    3d80:	54524153 	ldrbpl	r4, [r2], #-339	; 0xfffffead
    3d84:	49445f33 	stmdbmi	r4, {r0, r1, r4, r5, r8, r9, sl, fp, ip, lr}^
    3d88:	4c424153 	stfmie	f4, [r2], {83}	; 0x53
    3d8c:	564e2045 	strbpl	r2, [lr], -r5, asr #32
    3d90:	495f4349 	ldmdbmi	pc, {r0, r3, r6, r8, r9, lr}^	; <UNPREDICTABLE>
    3d94:	31524543 	cmpcc	r2, r3, asr #10
    3d98:	203d7c20 	eorscs	r7, sp, r0, lsr #24
    3d9c:	3c3c3128 	ldfccs	f3, [ip], #-160	; 0xffffff60
    3da0:	003b2937 	eorseq	r2, fp, r7, lsr r9
    3da4:	49545845 	ldmdbmi	r4, {r0, r2, r6, fp, ip, lr}^
    3da8:	4e49505f 	mcrmi	0, 2, r5, cr9, cr15, {2}
    3dac:	4e494c5f 	mcrmi	12, 2, r4, cr9, cr15, {2}
    3db0:	50303145 	eorspl	r3, r0, r5, asr #2
    3db4:	20303141 	eorscs	r3, r0, r1, asr #2
    3db8:	54584528 	ldrbpl	r4, [r8], #-1320	; 0xfffffad8
    3dbc:	65535f49 	ldrbvs	r5, [r3, #-3913]	; 0xfffff0b7
    3dc0:	5f707574 	svcpl	0x00707574
    3dc4:	457b2974 	ldrbmi	r2, [fp, #-2420]!	; 0xfffff68c
    3dc8:	31495458 	cmpcc	r9, r8, asr r4
    3dcc:	50472c30 	subpl	r2, r7, r0, lsr ip
    3dd0:	2c414f49 	mcrrcs	15, 4, r4, r1, cr9
    3dd4:	4f495047 	svcmi	0x00495047
    3dd8:	4e49505f 	mcrmi	0, 2, r5, cr9, cr15, {2}
    3ddc:	7d30315f 	ldfvcs	f3, [r0, #-380]!	; 0xfffffe84
    3de0:	465f5f00 	ldrbmi	r5, [pc], -r0, lsl #30
    3de4:	3233544c 	eorscc	r5, r3, #76, 8	; 0x4c000000
    3de8:	4749445f 	smlsldmi	r4, r9, pc, r4	; <UNPREDICTABLE>
    3dec:	36205f5f 	qsaxcc	r5, r0, pc	; <UNPREDICTABLE>
    3df0:	54584500 	ldrbpl	r4, [r8], #-1280	; 0xfffffb00
    3df4:	49505f49 	ldmdbmi	r0, {r0, r3, r6, r8, r9, sl, fp, ip, lr}^
    3df8:	494c5f4e 	stmdbmi	ip, {r1, r2, r3, r6, r8, r9, sl, fp, ip, lr}^
    3dfc:	5039454e 	eorspl	r4, r9, lr, asr #10
    3e00:	28203943 	stmdacs	r0!, {r0, r1, r6, r8, fp, ip, sp}
    3e04:	49545845 	ldmdbmi	r4, {r0, r2, r6, fp, ip, lr}^
    3e08:	7465535f 	strbtvc	r5, [r5], #-863	; 0xfffffca1
    3e0c:	745f7075 	ldrbvc	r7, [pc], #-117	; 3e14 <_Min_Stack_Size+0x3a14>
    3e10:	58457b29 	stmdapl	r5, {r0, r3, r5, r8, r9, fp, ip, sp, lr}^
    3e14:	2c394954 			; <UNDEFINED> instruction: 0x2c394954
    3e18:	4f495047 	svcmi	0x00495047
    3e1c:	50472c43 	subpl	r2, r7, r3, asr #24
    3e20:	505f4f49 	subspl	r4, pc, r9, asr #30
    3e24:	395f4e49 	ldmdbcc	pc, {r0, r3, r6, r9, sl, fp, lr}^	; <UNPREDICTABLE>
    3e28:	5047007d 	subpl	r0, r7, sp, ror r0
    3e2c:	4c5f4f49 	mrrcmi	15, 4, r4, pc, cr9	; <UNPREDICTABLE>
    3e30:	534b434f 	movtpl	r4, #45903	; 0xb34f
    3e34:	45544154 	ldrbmi	r4, [r4, #-340]	; 0xfffffeac
    3e38:	5252455f 	subspl	r4, r2, #398458880	; 0x17c00000
    3e3c:	3120524f 			; <UNDEFINED> instruction: 0x3120524f
    3e40:	43435200 	movtmi	r5, #12800	; 0x3200
    3e44:	4332495f 	teqmi	r2, #1556480	; 0x17c000
    3e48:	4e455f32 	mcrmi	15, 2, r5, cr5, cr2, {1}
    3e4c:	52202928 	eorpl	r2, r0, #40, 18	; 0xa0000
    3e50:	3e2d4343 	cdpcc	3, 2, cr4, cr13, cr3, {2}
    3e54:	31425041 	cmpcc	r2, r1, asr #32
    3e58:	20524e45 	subscs	r4, r2, r5, asr #28
    3e5c:	28203d7c 	stmdacs	r0!, {r2, r3, r4, r5, r6, r8, sl, fp, ip, sp}
    3e60:	323c3c31 	eorscc	r3, ip, #12544	; 0x3100
    3e64:	5f002932 	svcpl	0x00002932
    3e68:	5641485f 			; <UNDEFINED> instruction: 0x5641485f
    3e6c:	50535f45 	subspl	r5, r3, r5, asr #30
    3e70:	4c554345 	mrrcmi	3, 4, r4, r5, cr5
    3e74:	4f495441 	svcmi	0x00495441
    3e78:	41535f4e 	cmpmi	r3, lr, asr #30
    3e7c:	565f4546 	ldrbpl	r4, [pc], -r6, asr #10
    3e80:	45554c41 	ldrbmi	r4, [r5, #-3137]	; 0xfffff3bf
    3e84:	5f003120 	svcpl	0x00003120
    3e88:	4341535f 	movtmi	r5, #4959	; 0x135f
    3e8c:	5f4d5543 	svcpl	0x004d5543
    3e90:	54494246 	strbpl	r4, [r9], #-582	; 0xfffffdba
    3e94:	37205f5f 			; <UNDEFINED> instruction: 0x37205f5f
    3e98:	475f5f00 	ldrbmi	r5, [pc, -r0, lsl #30]
    3e9c:	485f4343 	ldmdami	pc, {r0, r1, r6, r8, r9, lr}^	; <UNPREDICTABLE>
    3ea0:	5f455641 	svcpl	0x00455641
    3ea4:	434e5953 	movtmi	r5, #59731	; 0xe953
    3ea8:	4d4f435f 	stclmi	3, cr4, [pc, #-380]	; 3d34 <_Min_Stack_Size+0x3934>
    3eac:	45524150 	ldrbmi	r4, [r2, #-336]	; 0xfffffeb0
    3eb0:	444e415f 	strbmi	r4, [lr], #-351	; 0xfffffea1
    3eb4:	4157535f 	cmpmi	r7, pc, asr r3
    3eb8:	20345f50 	eorscs	r5, r4, r0, asr pc
    3ebc:	5f5f0031 	svcpl	0x005f0031
    3ec0:	55434341 	strbpl	r4, [r3, #-833]	; 0xfffffcbf
    3ec4:	494d5f4d 	stmdbmi	sp, {r0, r2, r3, r6, r8, r9, sl, fp, ip, lr}^
    3ec8:	205f5f4e 	subscs	r5, pc, lr, asr #30
    3ecc:	58302d28 	ldmdapl	r0!, {r3, r5, r8, sl, fp, sp}
    3ed0:	35315031 	ldrcc	r5, [r1, #-49]!	; 0xffffffcf
    3ed4:	58302d4b 	ldmdapl	r0!, {r0, r1, r3, r6, r8, sl, fp, sp}
    3ed8:	35315031 	ldrcc	r5, [r1, #-49]!	; 0xffffffcf
    3edc:	4100294b 	tstmi	r0, fp, asr #18
    3ee0:	5f4f4946 	svcpl	0x004f4946
    3ee4:	4f495047 	svcmi	0x00495047
    3ee8:	524f505f 	subpl	r5, pc, #95	; 0x5f
    3eec:	414d5f54 	cmpmi	sp, r4, asr pc
    3ef0:	4e495050 	mcrmi	0, 2, r5, cr9, cr0, {2}
    3ef4:	6f502847 	svcvs	0x00502847
    3ef8:	20297472 	eorcs	r7, r9, r2, ror r4
    3efc:	6f502828 	svcvs	0x00502828
    3f00:	3d3d7472 	cfldrscc	mvf7, [sp, #-456]!	; 0xfffffe38
    3f04:	4f495047 	svcmi	0x00495047
    3f08:	303f2941 	eorscc	r2, pc, r1, asr #18
    3f0c:	5028203a 	eorpl	r2, r8, sl, lsr r0
    3f10:	3d74726f 	lfmcc	f7, 2, [r4, #-444]!	; 0xfffffe44
    3f14:	4950473d 	ldmdbmi	r0, {r0, r2, r3, r4, r5, r8, r9, sl, lr}^
    3f18:	3f29424f 	svccc	0x0029424f
    3f1c:	28203a31 	stmdacs	r0!, {r0, r4, r5, r9, fp, ip, sp}
    3f20:	74726f50 	ldrbtvc	r6, [r2], #-3920	; 0xfffff0b0
    3f24:	50473d3d 	subpl	r3, r7, sp, lsr sp
    3f28:	29434f49 	stmdbcs	r3, {r0, r3, r6, r8, r9, sl, fp, lr}^
    3f2c:	203a323f 	eorscs	r3, sl, pc, lsr r2
    3f30:	726f5028 	rsbvc	r5, pc, #40	; 0x28
    3f34:	473d3d74 			; <UNDEFINED> instruction: 0x473d3d74
    3f38:	444f4950 	strbmi	r4, [pc], #-2384	; 3f40 <_Min_Stack_Size+0x3b40>
    3f3c:	3a333f29 	bcc	cd3be8 <_Min_Stack_Size+0xcd37e8>
    3f40:	5f002930 	svcpl	0x00002930
    3f44:	4d52415f 	ldfmie	f4, [r2, #-380]	; 0xfffffe84
    3f48:	4145465f 	cmpmi	r5, pc, asr r6
    3f4c:	45525554 	ldrbmi	r5, [r2, #-1364]	; 0xfffffaac
    3f50:	5952435f 	ldmdbpl	r2, {r0, r1, r2, r3, r4, r6, r8, r9, lr}^
    3f54:	004f5450 	subeq	r5, pc, r0, asr r4	; <UNPREDICTABLE>
    3f58:	4f495047 	svcmi	0x00495047
    3f5c:	524f505f 	subpl	r5, pc, #95	; 0x5f
    3f60:	4f4d5f54 	svcmi	0x004d5f54
    3f64:	415f4544 	cmpmi	pc, r4, asr #10
    3f68:	5245544c 	subpl	r5, r5, #76, 8	; 0x4c000000
    3f6c:	4554414e 	ldrbmi	r4, [r4, #-334]	; 0xfffffeb2
    3f70:	5355505f 	cmppl	r5, #95	; 0x5f
    3f74:	55505f48 	ldrbpl	r5, [r0, #-3912]	; 0xfffff0b8
    3f78:	325f4c4c 	subscc	r4, pc, #76, 24	; 0x4c00
    3f7c:	5a484d5f 	bpl	1217500 <_Min_Stack_Size+0x1217100>
    3f80:	41783020 	cmnmi	r8, r0, lsr #32
    3f84:	41414141 	cmpmi	r1, r1, asr #2
    3f88:	00414141 	subeq	r4, r1, r1, asr #2
    3f8c:	4e495f5f 	mcrmi	15, 2, r5, cr9, cr15, {2}
    3f90:	454c5f54 	strbmi	r5, [ip, #-3924]	; 0xfffff0ac
    3f94:	33545341 	cmpcc	r4, #67108865	; 0x4000001
    3f98:	59545f32 	ldmdbpl	r4, {r1, r4, r5, r8, r9, sl, fp, ip, lr}^
    3f9c:	5f5f4550 	svcpl	0x005f4550
    3fa0:	6e6f6c20 	cdpvs	12, 6, cr6, cr15, cr0, {1}
    3fa4:	6e692067 	cdpvs	0, 6, cr2, cr9, cr7, {3}
    3fa8:	5f5f0074 	svcpl	0x005f0074
    3fac:	544e4955 	strbpl	r4, [lr], #-2389	; 0xfffff6ab
    3fb0:	41454c5f 	cmpmi	r5, pc, asr ip
    3fb4:	34365453 	ldrtcc	r5, [r6], #-1107	; 0xfffffbad
    3fb8:	58414d5f 	stmdapl	r1, {r0, r1, r2, r3, r4, r6, r8, sl, fp, lr}^
    3fbc:	30205f5f 	eorcc	r5, r0, pc, asr pc
    3fc0:	66666678 			; <UNDEFINED> instruction: 0x66666678
    3fc4:	66666666 	strbtvs	r6, [r6], -r6, ror #12
    3fc8:	66666666 	strbtvs	r6, [r6], -r6, ror #12
    3fcc:	66666666 	strbtvs	r6, [r6], -r6, ror #12
    3fd0:	4c4c5566 	cfstr64mi	mvdx5, [ip], {102}	; 0x66
    3fd4:	465f5f00 	ldrbmi	r5, [pc], -r0, lsl #30
    3fd8:	54434152 	strbpl	r4, [r3], #-338	; 0xfffffeae
    3fdc:	4942495f 	stmdbmi	r2, {r0, r1, r2, r3, r4, r6, r8, fp, lr}^
    3fe0:	205f5f54 	subscs	r5, pc, r4, asr pc	; <UNPREDICTABLE>
    3fe4:	58450030 	stmdapl	r5, {r4, r5}^
    3fe8:	505f4954 	subspl	r4, pc, r4, asr r9	; <UNPREDICTABLE>
    3fec:	4c5f4e49 	mrrcmi	14, 4, r4, pc, cr9	; <UNPREDICTABLE>
    3ff0:	38454e49 	stmdacc	r5, {r0, r3, r6, r9, sl, fp, lr}^
    3ff4:	20384450 	eorscs	r4, r8, r0, asr r4
    3ff8:	54584528 	ldrbpl	r4, [r8], #-1320	; 0xfffffad8
    3ffc:	65535f49 	ldrbvs	r5, [r3, #-3913]	; 0xfffff0b7
    4000:	5f707574 	svcpl	0x00707574
    4004:	457b2974 	ldrbmi	r2, [fp, #-2420]!	; 0xfffff68c
    4008:	38495458 	stmdacc	r9, {r3, r4, r6, sl, ip, lr}^
    400c:	4950472c 	ldmdbmi	r0, {r2, r3, r5, r8, r9, sl, lr}^
    4010:	472c444f 	strmi	r4, [ip, -pc, asr #8]!
    4014:	5f4f4950 	svcpl	0x004f4950
    4018:	5f4e4950 	svcpl	0x004e4950
    401c:	5f007d38 	svcpl	0x00007d38
    4020:	544c465f 	strbpl	r4, [ip], #-1631	; 0xfffff9a1
    4024:	495f3436 	ldmdbmi	pc, {r1, r2, r4, r5, sl, ip, sp}^	; <UNPREDICTABLE>
    4028:	45495f53 	strbmi	r5, [r9, #-3923]	; 0xfffff0ad
    402c:	30365f43 	eorscc	r5, r6, r3, asr #30
    4030:	5f393535 	svcpl	0x00393535
    4034:	0032205f 	eorseq	r2, r2, pc, asr r0
    4038:	4f495047 	svcmi	0x00495047
    403c:	4e49505f 	mcrmi	0, 2, r5, cr9, cr15, {2}
    4040:	2820315f 	stmdacs	r0!, {r0, r1, r2, r3, r4, r6, r8, ip, sp}
    4044:	6e697528 	cdpvs	5, 6, cr7, cr9, cr8, {1}
    4048:	745f3874 	ldrbvc	r3, [pc], #-2164	; 4050 <_Min_Stack_Size+0x3c50>
    404c:	00293129 	eoreq	r3, r9, r9, lsr #2
    4050:	524f5f5f 	subpl	r5, pc, #380	; 0x17c
    4054:	5f524544 	svcpl	0x00524544
    4058:	5454494c 	ldrbpl	r4, [r4], #-2380	; 0xfffff6b4
    405c:	455f454c 	ldrbmi	r4, [pc, #-1356]	; 3b18 <_Min_Stack_Size+0x3718>
    4060:	4149444e 	cmpmi	r9, lr, asr #8
    4064:	205f5f4e 	subscs	r5, pc, lr, asr #30
    4068:	34333231 	ldrtcc	r3, [r3], #-561	; 0xfffffdcf
    406c:	54584500 	ldrbpl	r4, [r8], #-1280	; 0xfffffb00
    4070:	65535f49 	ldrbvs	r5, [r3, #-3913]	; 0xfffff0b7
    4074:	5f707574 	svcpl	0x00707574
    4078:	5f5f0074 	svcpl	0x005f0074
    407c:	5f544c46 	svcpl	0x00544c46
    4080:	4d524f4e 	ldclmi	15, cr4, [r2, #-312]	; 0xfffffec8
    4084:	58414d5f 	stmdapl	r1, {r0, r1, r2, r3, r4, r6, r8, sl, fp, lr}^
    4088:	33205f5f 			; <UNDEFINED> instruction: 0x33205f5f
    408c:	3230342e 	eorscc	r3, r0, #771751936	; 0x2e000000
    4090:	34333238 	ldrtcc	r3, [r3], #-568	; 0xfffffdc8
    4094:	38333636 	ldmdacc	r3!, {r1, r2, r4, r5, r9, sl, ip, sp}
    4098:	38383235 	ldmdacc	r8!, {r0, r2, r4, r5, r9, ip, sp}
    409c:	332b6536 			; <UNDEFINED> instruction: 0x332b6536
    40a0:	5f004638 	svcpl	0x00004638
    40a4:	544c465f 	strbpl	r4, [ip], #-1631	; 0xfffff9a1
    40a8:	4e494d5f 	mcrmi	13, 2, r4, cr9, cr15, {2}
    40ac:	5f30315f 	svcpl	0x0030315f
    40b0:	5f505845 	svcpl	0x00505845
    40b4:	2d28205f 	stccs	0, cr2, [r8, #-380]!	; 0xfffffe84
    40b8:	00293733 	eoreq	r3, r9, r3, lsr r7
    40bc:	5f434352 	svcpl	0x00434352
    40c0:	384d4954 	stmdacc	sp, {r2, r4, r6, r8, fp, lr}^
    40c4:	284e455f 	stmdacs	lr, {r0, r1, r2, r3, r4, r6, r8, sl, lr}^
    40c8:	43522029 	cmpmi	r2, #41	; 0x29
    40cc:	413e2d43 	teqmi	lr, r3, asr #26
    40d0:	45324250 	ldrmi	r4, [r2, #-592]!	; 0xfffffdb0
    40d4:	7c20524e 	sfmvc	f5, 4, [r0], #-312	; 0xfffffec8
    40d8:	3128203d 			; <UNDEFINED> instruction: 0x3128203d
    40dc:	33313c3c 	teqcc	r1, #60, 24	; 0x3c00
    40e0:	5f5f0029 	svcpl	0x005f0029
    40e4:	54524853 	ldrbpl	r4, [r2], #-2131	; 0xfffff7ad
    40e8:	58414d5f 	stmdapl	r1, {r0, r1, r2, r3, r4, r6, r8, sl, fp, lr}^
    40ec:	30205f5f 	eorcc	r5, r0, pc, asr pc
    40f0:	66663778 			; <UNDEFINED> instruction: 0x66663778
    40f4:	5f5f0066 	svcpl	0x005f0066
    40f8:	4c42444c 	cfstrdmi	mvd4, [r2], {76}	; 0x4c
    40fc:	5f53495f 	svcpl	0x0053495f
    4100:	5f434549 	svcpl	0x00434549
    4104:	35353036 	ldrcc	r3, [r5, #-54]!	; 0xffffffca
    4108:	205f5f39 	subscs	r5, pc, r9, lsr pc	; <UNPREDICTABLE>
    410c:	5f5f0032 	svcpl	0x005f0032
    4110:	414c4c55 	cmpmi	ip, r5, asr ip
    4114:	4d554343 	ldclmi	3, cr4, [r5, #-268]	; 0xfffffef4
    4118:	5350455f 	cmppl	r0, #398458880	; 0x17c00000
    411c:	4e4f4c49 	cdpmi	12, 4, cr4, cr15, cr9, {2}
    4120:	30205f5f 	eorcc	r5, r0, pc, asr pc
    4124:	2d503178 	ldfcse	f3, [r0, #-480]	; 0xfffffe20
    4128:	4c553233 	lfmmi	f3, 2, [r5], {51}	; 0x33
    412c:	5f004b4c 	svcpl	0x00004b4c
    4130:	4350415f 	cmpmi	r0, #-1073741801	; 0xc0000017
    4134:	32335f53 	eorscc	r5, r3, #332	; 0x14c
    4138:	31205f5f 			; <UNDEFINED> instruction: 0x31205f5f
    413c:	445f5f00 	ldrbmi	r5, [pc], #-3840	; 4144 <_Min_Stack_Size+0x3d44>
    4140:	42465f51 	submi	r5, r6, #324	; 0x144
    4144:	5f5f5449 	svcpl	0x005f5449
    4148:	00333620 	eorseq	r3, r3, r0, lsr #12
    414c:	41535f5f 	cmpmi	r3, pc, asr pc
    4150:	4d554343 	ldclmi	3, cr4, [r5, #-268]	; 0xfffffef4
    4154:	4942495f 	stmdbmi	r2, {r0, r1, r2, r3, r4, r6, r8, fp, lr}^
    4158:	205f5f54 	subscs	r5, pc, r4, asr pc	; <UNPREDICTABLE>
    415c:	5f5f0038 	svcpl	0x005f0038
    4160:	5f514855 	svcpl	0x00514855
    4164:	54494249 	strbpl	r4, [r9], #-585	; 0xfffffdb7
    4168:	30205f5f 	eorcc	r5, r0, pc, asr pc
    416c:	495f5f00 	ldmdbmi	pc, {r8, r9, sl, fp, ip, lr}^	; <UNPREDICTABLE>
    4170:	465f544e 	ldrbmi	r5, [pc], -lr, asr #8
    4174:	31545341 	cmpcc	r4, r1, asr #6
    4178:	59545f36 	ldmdbpl	r4, {r1, r2, r4, r5, r8, r9, sl, fp, ip, lr}^
    417c:	5f5f4550 	svcpl	0x005f4550
    4180:	746e6920 	strbtvc	r6, [lr], #-2336	; 0xfffff6e0
    4184:	43435200 	movtmi	r5, #12800	; 0x3200
    4188:	4d49545f 	cfstrdmi	mvd5, [r9, #-380]	; 0xfffffe84
    418c:	4e455f39 	mcrmi	15, 2, r5, cr5, cr9, {1}
    4190:	52202928 	eorpl	r2, r0, #40, 18	; 0xa0000
    4194:	3e2d4343 	cdpcc	3, 2, cr4, cr13, cr3, {2}
    4198:	32425041 	subcc	r5, r2, #65	; 0x41
    419c:	20524e45 	subscs	r4, r2, r5, asr #28
    41a0:	28203d7c 	stmdacs	r0!, {r2, r3, r4, r5, r6, r8, sl, fp, ip, sp}
    41a4:	313c3c31 	teqcc	ip, r1, lsr ip
    41a8:	5f002939 	svcpl	0x00002939
    41ac:	4341535f 	movtmi	r5, #4959	; 0x135f
    41b0:	5f4d5543 	svcpl	0x004d5543
    41b4:	5f4e494d 	svcpl	0x004e494d
    41b8:	2d28205f 	stccs	0, cr2, [r8, #-380]!	; 0xfffffe84
    41bc:	50315830 	eorspl	r5, r1, r0, lsr r8
    41c0:	2d4b4837 	stclcs	8, cr4, [fp, #-220]	; 0xffffff24
    41c4:	50315830 	eorspl	r5, r1, r0, lsr r8
    41c8:	294b4837 	stmdbcs	fp, {r0, r1, r2, r4, r5, fp, lr}^
    41cc:	555f5f00 	ldrbpl	r5, [pc, #-3840]	; 32d4 <_Min_Stack_Size+0x2ed4>
    41d0:	4152464c 	cmpmi	r2, ip, asr #12
    41d4:	4d5f5443 	cfldrdmi	mvd5, [pc, #-268]	; 40d0 <_Min_Stack_Size+0x3cd0>
    41d8:	5f5f5841 	svcpl	0x005f5841
    41dc:	46583020 	ldrbmi	r3, [r8], -r0, lsr #32
    41e0:	46464646 	strbmi	r4, [r6], -r6, asr #12
    41e4:	50464646 	subpl	r4, r6, r6, asr #12
    41e8:	5532332d 	ldrpl	r3, [r2, #-813]!	; 0xfffffcd3
    41ec:	5f00524c 	svcpl	0x0000524c
    41f0:	4e49555f 	mcrmi	5, 2, r5, cr9, cr15, {2}
    41f4:	454c5f54 	strbmi	r5, [ip, #-3924]	; 0xfffff0ac
    41f8:	31545341 	cmpcc	r4, r1, asr #6
    41fc:	59545f36 	ldmdbpl	r4, {r1, r2, r4, r5, r8, r9, sl, fp, ip, lr}^
    4200:	5f5f4550 	svcpl	0x005f4550
    4204:	6f687320 	svcvs	0x00687320
    4208:	75207472 	strvc	r7, [r0, #-1138]!	; 0xfffffb8e
    420c:	6769736e 	strbvs	r7, [r9, -lr, ror #6]!
    4210:	2064656e 	rsbcs	r6, r4, lr, ror #10
    4214:	00746e69 	rsbseq	r6, r4, r9, ror #28
    4218:	52415f5f 	subpl	r5, r1, #380	; 0x17c
    421c:	45465f4d 	strbmi	r5, [r6, #-3917]	; 0xfffff0b3
    4220:	52555441 	subspl	r5, r5, #1090519040	; 0x41000000
    4224:	4d465f45 	stclmi	15, cr5, [r6, #-276]	; 0xfffffeec
    4228:	5f5f0041 	svcpl	0x005f0041
    422c:	4343414c 	movtmi	r4, #12620	; 0x314c
    4230:	4d5f4d55 	ldclmi	13, cr4, [pc, #-340]	; 40e4 <_Min_Stack_Size+0x3ce4>
    4234:	5f5f5841 	svcpl	0x005f5841
    4238:	37583020 	ldrbcc	r3, [r8, -r0, lsr #32]
    423c:	46464646 	strbmi	r4, [r6], -r6, asr #12
    4240:	46464646 	strbmi	r4, [r6], -r6, asr #12
    4244:	46464646 	strbmi	r4, [r6], -r6, asr #12
    4248:	50464646 	subpl	r4, r6, r6, asr #12
    424c:	4c31332d 	ldcmi	3, cr3, [r1], #-180	; 0xffffff4c
    4250:	5f5f004b 	svcpl	0x005f004b
    4254:	52414843 	subpl	r4, r1, #4390912	; 0x430000
    4258:	545f3631 	ldrbpl	r3, [pc], #-1585	; 4260 <_Min_Stack_Size+0x3e60>
    425c:	5f455059 	svcpl	0x00455059
    4260:	6873205f 	ldmdavs	r3!, {r0, r1, r2, r3, r4, r6, sp}^
    4264:	2074726f 	rsbscs	r7, r4, pc, ror #4
    4268:	69736e75 	ldmdbvs	r3!, {r0, r2, r4, r5, r6, r9, sl, fp, sp, lr}^
    426c:	64656e67 	strbtvs	r6, [r5], #-3687	; 0xfffff199
    4270:	746e6920 	strbtvc	r6, [lr], #-2336	; 0xfffff6e0
    4274:	465f5f00 	ldrbmi	r5, [pc], -r0, lsl #30
    4278:	3233544c 	eorscc	r5, r3, #76, 8	; 0x4c000000
    427c:	49445f58 	stmdbmi	r4, {r3, r4, r6, r8, r9, sl, fp, ip, lr}^
    4280:	205f5f47 	subscs	r5, pc, r7, asr #30
    4284:	49003531 	stmdbmi	r0, {r0, r4, r5, r8, sl, ip, sp}
    4288:	455f5152 	ldrbmi	r5, [pc, #-338]	; 413e <_Min_Stack_Size+0x3d3e>
    428c:	5f5f004e 	svcpl	0x005f004e
    4290:	5f515455 	svcpl	0x00515455
    4294:	54494246 	strbpl	r4, [r9], #-582	; 0xfffffdba
    4298:	31205f5f 			; <UNDEFINED> instruction: 0x31205f5f
    429c:	52003832 	andpl	r3, r0, #3276800	; 0x320000
    42a0:	545f4343 	ldrbpl	r4, [pc], #-835	; 42a8 <_Min_Stack_Size+0x3ea8>
    42a4:	5f344d49 	svcpl	0x00344d49
    42a8:	29284e45 	stmdbcs	r8!, {r0, r2, r6, r9, sl, fp, lr}
    42ac:	43435220 	movtmi	r5, #12832	; 0x3220
    42b0:	50413e2d 	subpl	r3, r1, sp, lsr #28
    42b4:	4e453142 	dvfmism	f3, f5, f2
    42b8:	3d7c2052 	ldclcc	0, cr2, [ip, #-328]!	; 0xfffffeb8
    42bc:	3c312820 	ldccc	8, cr2, [r1], #-128	; 0xffffff80
    42c0:	0029323c 	eoreq	r3, r9, ip, lsr r2
    42c4:	49465f5f 	stmdbmi	r6, {r0, r1, r2, r3, r4, r6, r8, r9, sl, fp, ip, lr}^
    42c8:	4554494e 	ldrbmi	r4, [r4, #-2382]	; 0xfffff6b2
    42cc:	54414d5f 	strbpl	r4, [r1], #-3423	; 0xfffff2a1
    42d0:	4e4f5f48 	cdpmi	15, 4, cr5, cr15, cr8, {2}
    42d4:	5f5f594c 	svcpl	0x005f594c
    42d8:	5f003020 	svcpl	0x00003020
    42dc:	544e495f 	strbpl	r4, [lr], #-2399	; 0xfffff6a1
    42e0:	5341465f 	movtpl	r4, #5727	; 0x165f
    42e4:	5f363154 	svcpl	0x00363154
    42e8:	5f58414d 	svcpl	0x0058414d
    42ec:	7830205f 	ldmdavc	r0!, {r0, r1, r2, r3, r4, r6, sp}
    42f0:	66666637 			; <UNDEFINED> instruction: 0x66666637
    42f4:	66666666 	strbtvs	r6, [r6], -r6, ror #12
    42f8:	50414d00 	subpl	r4, r1, r0, lsl #26
    42fc:	53550052 	cmppl	r5, #82	; 0x52
    4300:	33545241 	cmpcc	r4, #268435460	; 0x10000004
    4304:	55282820 	strpl	r2, [r8, #-2080]!	; 0xfffff7e0
    4308:	54524153 	ldrbpl	r4, [r2], #-339	; 0xfffffead
    430c:	292a745f 	stmdbcs	sl!, {r0, r1, r2, r3, r4, r6, sl, ip, sp, lr}
    4310:	52415355 	subpl	r5, r1, #1409286145	; 0x54000001
    4314:	425f3354 	subsmi	r3, pc, #84, 6	; 0x50000001
    4318:	5f455341 	svcpl	0x00455341
    431c:	45444441 	strbmi	r4, [r4, #-1089]	; 0xfffffbbf
    4320:	53534552 	cmppl	r3, #343932928	; 0x14800000
    4324:	50470029 	subpl	r0, r7, r9, lsr #32
    4328:	505f4f49 	subspl	r4, pc, r9, asr #30
    432c:	52004e49 	andpl	r4, r0, #1168	; 0x490
    4330:	545f4343 	ldrbpl	r4, [pc], #-835	; 4338 <_Min_Stack_Size+0x3f38>
    4334:	5f374d49 	svcpl	0x00374d49
    4338:	29284e45 	stmdbcs	r8!, {r0, r2, r6, r9, sl, fp, lr}
    433c:	43435220 	movtmi	r5, #12832	; 0x3220
    4340:	50413e2d 	subpl	r3, r1, sp, lsr #28
    4344:	4e453142 	dvfmism	f3, f5, f2
    4348:	3d7c2052 	ldclcc	0, cr2, [ip, #-328]!	; 0xfffffeb8
    434c:	3c312820 	ldccc	8, cr2, [r1], #-128	; 0xffffff80
    4350:	0029353c 	eoreq	r3, r9, ip, lsr r5
    4354:	4f495047 	svcmi	0x00495047
    4358:	4e49505f 	mcrmi	0, 2, r5, cr9, cr15, {2}
    435c:	444f4d5f 	strbmi	r4, [pc], #-3423	; 4364 <_Min_Stack_Size+0x3f64>
    4360:	4e495f45 	cdpmi	15, 4, cr5, cr9, cr5, {2}
    4364:	5f545550 	svcpl	0x00545550
    4368:	414f4c46 	cmpmi	pc, r6, asr #24
    436c:	474e4954 	smlsldmi	r4, lr, r4, r9
    4370:	30623020 	rsbcc	r3, r2, r0, lsr #32
    4374:	00303031 	eorseq	r3, r0, r1, lsr r0
    4378:	4f495047 	svcmi	0x00495047
    437c:	4e49505f 	mcrmi	0, 2, r5, cr9, cr15, {2}
    4380:	444f4d5f 	strbmi	r4, [pc], #-3423	; 4388 <_Min_Stack_Size+0x3f88>
    4384:	554f5f45 	strbpl	r5, [pc, #-3909]	; 3447 <_Min_Stack_Size+0x3047>
    4388:	54555054 	ldrbpl	r5, [r5], #-84	; 0xffffffac
    438c:	45504f5f 	ldrbmi	r4, [r0, #-3935]	; 0xfffff0a1
    4390:	52445f4e 	subpl	r5, r4, #312	; 0x138
    4394:	5f4e4941 	svcpl	0x004e4941
    4398:	4d5f3035 	ldclmi	0, cr3, [pc, #-212]	; 42cc <_Min_Stack_Size+0x3ecc>
    439c:	30205a48 	eorcc	r5, r0, r8, asr #20
    43a0:	31313062 	teqcc	r1, r2, rrx
    43a4:	50470031 	subpl	r0, r7, r1, lsr r0
    43a8:	20424f49 	subcs	r4, r2, r9, asr #30
    43ac:	50472828 	subpl	r2, r7, r8, lsr #16
    43b0:	745f4f49 	ldrbvc	r4, [pc], #-3913	; 43b8 <_Min_Stack_Size+0x3fb8>
    43b4:	5047292a 	subpl	r2, r7, sl, lsr #18
    43b8:	5f424f49 	svcpl	0x00424f49
    43bc:	45534142 	ldrbmi	r4, [r3, #-322]	; 0xfffffebe
    43c0:	4444415f 	strbmi	r4, [r4], #-351	; 0xfffffea1
    43c4:	53455245 	movtpl	r5, #21061	; 0x5245
    43c8:	45002953 	strmi	r2, [r0, #-2387]	; 0xfffff6ad
    43cc:	5f495458 	svcpl	0x00495458
    43d0:	5f4e4950 	svcpl	0x004e4950
    43d4:	454e494c 	strbmi	r4, [lr, #-2380]	; 0xfffff6b4
    43d8:	37435037 	smlaldxcc	r5, r3, r7, r0
    43dc:	58452820 	stmdapl	r5, {r5, fp, sp}^
    43e0:	535f4954 	cmppl	pc, #84, 18	; 0x150000
    43e4:	70757465 	rsbsvc	r7, r5, r5, ror #8
    43e8:	7b29745f 	blvc	a6156c <_Min_Stack_Size+0xa6116c>
    43ec:	49545845 	ldmdbmi	r4, {r0, r2, r6, fp, ip, lr}^
    43f0:	50472c37 	subpl	r2, r7, r7, lsr ip
    43f4:	2c434f49 	mcrrcs	15, 4, r4, r3, cr9
    43f8:	4f495047 	svcmi	0x00495047
    43fc:	4e49505f 	mcrmi	0, 2, r5, cr9, cr15, {2}
    4400:	007d375f 	rsbseq	r3, sp, pc, asr r7
    4404:	4c555f5f 	mrrcmi	15, 5, r5, r5, cr15	; <UNPREDICTABLE>
    4408:	43415246 	movtmi	r5, #4678	; 0x1246
    440c:	494d5f54 	stmdbmi	sp, {r2, r4, r6, r8, r9, sl, fp, ip, lr}^
    4410:	205f5f4e 	subscs	r5, pc, lr, asr #30
    4414:	55302e30 	ldrpl	r2, [r0, #-3632]!	; 0xfffff1d0
    4418:	5f00524c 	svcpl	0x0000524c
    441c:	5f51445f 	svcpl	0x0051445f
    4420:	54494249 	strbpl	r4, [r9], #-585	; 0xfffffdb7
    4424:	30205f5f 	eorcc	r5, r0, pc, asr pc
    4428:	415f5f00 	cmpmi	pc, r0, lsl #30
    442c:	425f4d52 	subsmi	r4, pc, #5248	; 0x1480
    4430:	5f363146 	svcpl	0x00363146
    4434:	4d524f46 	ldclmi	15, cr4, [r2, #-280]	; 0xfffffee8
    4438:	415f5441 	cmpmi	pc, r1, asr #8
    443c:	5245544c 	subpl	r5, r5, #76, 8	; 0x4c000000
    4440:	4954414e 	ldmdbmi	r4, {r1, r2, r3, r6, r8, lr}^
    4444:	5f004556 	svcpl	0x00004556
    4448:	544e495f 	strbpl	r4, [lr], #-2399	; 0xfffff6a1
    444c:	545f3233 	ldrbpl	r3, [pc], #-563	; 4454 <_Min_Stack_Size+0x4054>
    4450:	5f455059 	svcpl	0x00455059
    4454:	6f6c205f 	svcvs	0x006c205f
    4458:	6920676e 	stmdbvs	r0!, {r1, r2, r3, r5, r6, r8, r9, sl, sp, lr}
    445c:	5200746e 	andpl	r7, r0, #1845493760	; 0x6e000000
    4460:	435f4343 	cmpmi	pc, #201326593	; 0xc000001
    4464:	455f4352 	ldrbmi	r4, [pc, #-850]	; 411a <_Min_Stack_Size+0x3d1a>
    4468:	2029284e 	eorcs	r2, r9, lr, asr #16
    446c:	2d434352 	stclcs	3, cr4, [r3, #-328]	; 0xfffffeb8
    4470:	4248413e 	submi	r4, r8, #-2147483633	; 0x8000000f
    4474:	20524e45 	subscs	r4, r2, r5, asr #28
    4478:	28203d7c 	stmdacs	r0!, {r2, r3, r4, r5, r6, r8, sl, fp, ip, sp}
    447c:	363c3c31 			; <UNDEFINED> instruction: 0x363c3c31
    4480:	41460029 	cmpmi	r6, r9, lsr #32
    4484:	2045534c 	subcs	r5, r5, ip, asr #6
    4488:	6f622828 	svcvs	0x00622828
    448c:	61656c6f 	cmnvs	r5, pc, ror #24
    4490:	2930296e 	ldmdbcs	r0!, {r1, r2, r3, r5, r6, r8, fp, sp}
    4494:	54584500 	ldrbpl	r4, [r8], #-1280	; 0xfffffb00
    4498:	49505f49 	ldmdbmi	r0, {r0, r3, r6, r8, r9, sl, fp, ip, lr}^
    449c:	494c5f4e 	stmdbmi	ip, {r1, r2, r3, r6, r8, r9, sl, fp, ip, lr}^
    44a0:	5038454e 	eorspl	r4, r8, lr, asr #10
    44a4:	28203841 	stmdacs	r0!, {r0, r6, fp, ip, sp}
    44a8:	49545845 	ldmdbmi	r4, {r0, r2, r6, fp, ip, lr}^
    44ac:	7465535f 	strbtvc	r5, [r5], #-863	; 0xfffffca1
    44b0:	745f7075 	ldrbvc	r7, [pc], #-117	; 44b8 <_Min_Stack_Size+0x40b8>
    44b4:	58457b29 	stmdapl	r5, {r0, r3, r5, r8, r9, fp, ip, sp, lr}^
    44b8:	2c384954 			; <UNDEFINED> instruction: 0x2c384954
    44bc:	4f495047 	svcmi	0x00495047
    44c0:	50472c41 	subpl	r2, r7, r1, asr #24
    44c4:	505f4f49 	subspl	r4, pc, r9, asr #30
    44c8:	385f4e49 	ldmdacc	pc, {r0, r3, r6, r9, sl, fp, lr}^	; <UNPREDICTABLE>
    44cc:	5047007d 	subpl	r0, r7, sp, ror r0
    44d0:	505f4f49 	subspl	r4, pc, r9, asr #30
    44d4:	315f4e49 	cmpcc	pc, r9, asr #28
    44d8:	28282031 	stmdacs	r8!, {r0, r4, r5, sp}
    44dc:	746e6975 	strbtvc	r6, [lr], #-2421	; 0xfffff68b
    44e0:	29745f38 	ldmdbcs	r4!, {r3, r4, r5, r8, r9, sl, fp, ip, lr}^
    44e4:	00293131 	eoreq	r3, r9, r1, lsr r1
    44e8:	5f434352 	svcpl	0x00434352
    44ec:	4f494453 	svcmi	0x00494453
    44f0:	284e455f 	stmdacs	lr, {r0, r1, r2, r3, r4, r6, r8, sl, lr}^
    44f4:	43522029 	cmpmi	r2, #41	; 0x29
    44f8:	413e2d43 	teqmi	lr, r3, asr #26
    44fc:	4e454248 	cdpmi	2, 4, cr4, cr5, cr8, {2}
    4500:	3d7c2052 	ldclcc	0, cr2, [ip, #-328]!	; 0xfffffeb8
    4504:	3c312820 	ldccc	8, cr2, [r1], #-128	; 0xffffff80
    4508:	2930313c 	ldmdbcs	r0!, {r2, r3, r4, r5, r8, ip, sp}
    450c:	54584500 	ldrbpl	r4, [r8], #-1280	; 0xfffffb00
    4510:	49505f49 	ldmdbmi	r0, {r0, r3, r6, r8, r9, sl, fp, ip, lr}^
    4514:	494c5f4e 	stmdbmi	ip, {r1, r2, r3, r6, r8, r9, sl, fp, ip, lr}^
    4518:	5036454e 	eorspl	r4, r6, lr, asr #10
    451c:	28203644 	stmdacs	r0!, {r2, r6, r9, sl, ip, sp}
    4520:	49545845 	ldmdbmi	r4, {r0, r2, r6, fp, ip, lr}^
    4524:	7465535f 	strbtvc	r5, [r5], #-863	; 0xfffffca1
    4528:	745f7075 	ldrbvc	r7, [pc], #-117	; 4530 <_Min_Stack_Size+0x4130>
    452c:	58457b29 	stmdapl	r5, {r0, r3, r5, r8, r9, fp, ip, sp, lr}^
    4530:	2c364954 			; <UNDEFINED> instruction: 0x2c364954
    4534:	4f495047 	svcmi	0x00495047
    4538:	50472c44 	subpl	r2, r7, r4, asr #24
    453c:	505f4f49 	subspl	r4, pc, r9, asr #30
    4540:	365f4e49 	ldrbcc	r4, [pc], -r9, asr #28
    4544:	5f5f007d 	svcpl	0x005f007d
    4548:	5f6d7261 	svcpl	0x006d7261
    454c:	0031205f 	eorseq	r2, r1, pc, asr r0
    4550:	54555f5f 	ldrbpl	r5, [r5], #-3935	; 0xfffff0a1
    4554:	42495f51 	submi	r5, r9, #324	; 0x144
    4558:	5f5f5449 	svcpl	0x005f5449
    455c:	45003020 	strmi	r3, [r0, #-32]	; 0xffffffe0
    4560:	32495458 	subcc	r5, r9, #88, 8	; 0x58000000
    4564:	5f003220 	svcpl	0x00003220
    4568:	5f41535f 	svcpl	0x0041535f
    456c:	54494246 	strbpl	r4, [r9], #-582	; 0xfffffdba
    4570:	31205f5f 			; <UNDEFINED> instruction: 0x31205f5f
    4574:	5f5f0035 	svcpl	0x005f0035
    4578:	33544c46 	cmpcc	r4, #17920	; 0x4600
    457c:	4d5f5832 	ldclmi	8, cr5, [pc, #-200]	; 44bc <_Min_Stack_Size+0x40bc>
    4580:	5f5f5841 	svcpl	0x005f5841
    4584:	372e3120 	strcc	r3, [lr, -r0, lsr #2]!
    4588:	39363739 	ldmdbcc	r6!, {r0, r3, r4, r5, r8, r9, sl, ip, sp}
    458c:	34333133 	ldrtcc	r3, [r3], #-307	; 0xfffffecd
    4590:	33323638 	teqcc	r2, #56, 12	; 0x3800000
    4594:	65373531 	ldrvs	r3, [r7, #-1329]!	; 0xfffffacf
    4598:	3830332b 	ldmdacc	r0!, {r0, r1, r3, r5, r8, r9, ip, sp}
    459c:	78323346 	ldmdavc	r2!, {r1, r2, r6, r8, r9, ip, sp}
    45a0:	434e4900 	movtmi	r4, #59648	; 0xe900
    45a4:	4d54535f 	ldclmi	3, cr5, [r4, #-380]	; 0xfffffe84
    45a8:	31463233 	cmpcc	r6, r3, lsr r2
    45ac:	36583330 			; <UNDEFINED> instruction: 0x36583330
    45b0:	5458455f 	ldrbpl	r4, [r8], #-1375	; 0xfffffaa1
    45b4:	5f485f49 	svcpl	0x00485f49
    45b8:	58450020 	stmdapl	r5, {r5}^
    45bc:	505f4954 	subspl	r4, pc, r4, asr r9	; <UNPREDICTABLE>
    45c0:	4c5f4e49 	mrrcmi	14, 4, r4, pc, cr9	; <UNPREDICTABLE>
    45c4:	31454e49 	cmpcc	r5, r9, asr #28
    45c8:	31445031 	cmpcc	r4, r1, lsr r0
    45cc:	45282031 	strmi	r2, [r8, #-49]!	; 0xffffffcf
    45d0:	5f495458 	svcpl	0x00495458
    45d4:	75746553 	ldrbvc	r6, [r4, #-1363]!	; 0xfffffaad
    45d8:	29745f70 	ldmdbcs	r4!, {r4, r5, r6, r8, r9, sl, fp, ip, lr}^
    45dc:	5458457b 	ldrbpl	r4, [r8], #-1403	; 0xfffffa85
    45e0:	2c313149 	ldfcss	f3, [r1], #-292	; 0xfffffedc
    45e4:	4f495047 	svcmi	0x00495047
    45e8:	50472c44 	subpl	r2, r7, r4, asr #24
    45ec:	505f4f49 	subspl	r4, pc, r9, asr #30
    45f0:	315f4e49 	cmpcc	pc, r9, asr #28
    45f4:	5f007d31 	svcpl	0x00007d31
    45f8:	4d52415f 	ldfmie	f4, [r2, #-380]	; 0xfffffe84
    45fc:	4241455f 	submi	r4, r1, #398458880	; 0x17c00000
    4600:	205f5f49 	subscs	r5, pc, r9, asr #30
    4604:	5f5f0031 	svcpl	0x005f0031
    4608:	5f464c45 	svcpl	0x00464c45
    460c:	0031205f 	eorseq	r2, r1, pc, asr r0
    4610:	4c465f5f 	mcrrmi	15, 5, r5, r6, cr15
    4614:	53495f54 	movtpl	r5, #40788	; 0x9f54
    4618:	4345495f 	movtmi	r4, #22879	; 0x595f
    461c:	3530365f 	ldrcc	r3, [r0, #-1631]!	; 0xfffff9a1
    4620:	5f5f3935 	svcpl	0x005f3935
    4624:	5f003220 	svcpl	0x00003220
    4628:	5548545f 	strbpl	r5, [r8, #-1119]	; 0xfffffba1
    462c:	4c45424d 	sfmmi	f4, 2, [r5], {77}	; 0x4d
    4630:	31205f5f 			; <UNDEFINED> instruction: 0x31205f5f
    4634:	54584500 	ldrbpl	r4, [r8], #-1280	; 0xfffffb00
    4638:	355f3949 	ldrbcc	r3, [pc, #-2377]	; 3cf7 <_Min_Stack_Size+0x38f7>
    463c:	5152495f 	cmppl	r2, pc, asr r9
    4640:	646e6148 	strbtvs	r6, [lr], #-328	; 0xfffffeb8
    4644:	0072656c 	rsbseq	r6, r2, ip, ror #10
    4648:	49545845 	ldmdbmi	r4, {r0, r2, r6, fp, ip, lr}^
    464c:	00372037 	eorseq	r2, r7, r7, lsr r0
    4650:	51515f5f 	cmppl	r1, pc, asr pc
    4654:	4942495f 	stmdbmi	r2, {r0, r1, r2, r3, r4, r6, r8, fp, lr}^
    4658:	205f5f54 	subscs	r5, pc, r4, asr pc	; <UNPREDICTABLE>
    465c:	5f5f0030 	svcpl	0x005f0030
    4660:	43414c4c 	movtmi	r4, #7244	; 0x1c4c
    4664:	5f4d5543 	svcpl	0x004d5543
    4668:	54494246 	strbpl	r4, [r9], #-582	; 0xfffffdba
    466c:	33205f5f 			; <UNDEFINED> instruction: 0x33205f5f
    4670:	5f5f0031 	svcpl	0x005f0031
    4674:	544e4955 	strbpl	r4, [lr], #-2389	; 0xfffff6ab
    4678:	5f58414d 	svcpl	0x0058414d
    467c:	45505954 	ldrbmi	r5, [r0, #-2388]	; 0xfffff6ac
    4680:	6c205f5f 	stcvs	15, cr5, [r0], #-380	; 0xfffffe84
    4684:	20676e6f 	rsbcs	r6, r7, pc, ror #28
    4688:	676e6f6c 	strbvs	r6, [lr, -ip, ror #30]!
    468c:	736e7520 	cmnvc	lr, #32, 10	; 0x8000000
    4690:	656e6769 	strbvs	r6, [lr, #-1897]!	; 0xfffff897
    4694:	6e692064 	cdpvs	0, 6, cr2, cr9, cr4, {3}
    4698:	5f5f0074 	svcpl	0x005f0074
    469c:	5f515355 	svcpl	0x00515355
    46a0:	54494249 	strbpl	r4, [r9], #-585	; 0xfffffdb7
    46a4:	30205f5f 	eorcc	r5, r0, pc, asr pc
    46a8:	475f5f00 	ldrbmi	r5, [pc, -r0, lsl #30]
    46ac:	5f43554e 	svcpl	0x0043554e
    46b0:	4f4e494d 	svcmi	0x004e494d
    46b4:	205f5f52 	subscs	r5, pc, r2, asr pc	; <UNPREDICTABLE>
    46b8:	5f5f0033 	svcpl	0x005f0033
    46bc:	544e4955 	strbpl	r4, [lr], #-2389	; 0xfffff6ab
    46c0:	41454c5f 	cmpmi	r5, pc, asr ip
    46c4:	32335453 	eorscc	r5, r3, #1392508928	; 0x53000000
    46c8:	5059545f 	subspl	r5, r9, pc, asr r4
    46cc:	205f5f45 	subscs	r5, pc, r5, asr #30
    46d0:	676e6f6c 	strbvs	r6, [lr, -ip, ror #30]!
    46d4:	736e7520 	cmnvc	lr, #32, 10	; 0x8000000
    46d8:	656e6769 	strbvs	r6, [lr, #-1897]!	; 0xfffff897
    46dc:	6e692064 	cdpvs	0, 6, cr2, cr9, cr4, {3}
    46e0:	58450074 	stmdapl	r5, {r2, r4, r5, r6}^
    46e4:	505f4954 	subspl	r4, pc, r4, asr r9	; <UNPREDICTABLE>
    46e8:	4c5f4e49 	mrrcmi	14, 4, r4, pc, cr9	; <UNPREDICTABLE>
    46ec:	31454e49 	cmpcc	r5, r9, asr #28
    46f0:	31445032 	cmpcc	r4, r2, lsr r0
    46f4:	45282032 	strmi	r2, [r8, #-50]!	; 0xffffffce
    46f8:	5f495458 	svcpl	0x00495458
    46fc:	75746553 	ldrbvc	r6, [r4, #-1363]!	; 0xfffffaad
    4700:	29745f70 	ldmdbcs	r4!, {r4, r5, r6, r8, r9, sl, fp, ip, lr}^
    4704:	5458457b 	ldrbpl	r4, [r8], #-1403	; 0xfffffa85
    4708:	2c323149 	ldfcss	f3, [r2], #-292	; 0xfffffedc
    470c:	4f495047 	svcmi	0x00495047
    4710:	50472c44 	subpl	r2, r7, r4, asr #24
    4714:	505f4f49 	subspl	r4, pc, r9, asr #30
    4718:	315f4e49 	cmpcc	pc, r9, asr #28
    471c:	5f007d32 	svcpl	0x00007d32
    4720:	4d52415f 	ldfmie	f4, [r2, #-380]	; 0xfffffe84
    4724:	4145465f 	cmpmi	r5, pc, asr r6
    4728:	45525554 	ldrbmi	r5, [r2, #-1364]	; 0xfffffaac
    472c:	4d554e5f 	ldclmi	14, cr4, [r5, #-380]	; 0xfffffe84
    4730:	43495245 	movtmi	r5, #37445	; 0x9245
    4734:	58414d5f 	stmdapl	r1, {r0, r1, r2, r3, r4, r6, r8, sl, fp, lr}^
    4738:	004e494d 	subeq	r4, lr, sp, asr #18
    473c:	4e495f5f 	mcrmi	15, 2, r5, cr9, cr15, {2}
    4740:	58414d54 	stmdapl	r1, {r2, r4, r6, r8, sl, fp, lr}^
    4744:	5059545f 	subspl	r5, r9, pc, asr r4
    4748:	205f5f45 	subscs	r5, pc, r5, asr #30
    474c:	676e6f6c 	strbvs	r6, [lr, -ip, ror #30]!
    4750:	6e6f6c20 	cdpvs	12, 6, cr6, cr15, cr0, {1}
    4754:	6e692067 	cdpvs	0, 6, cr2, cr9, cr7, {3}
    4758:	5f5f0074 	svcpl	0x005f0074
    475c:	5f434347 	svcpl	0x00434347
    4760:	4d4f5441 	cfstrdmi	mvd5, [pc, #-260]	; 4664 <_Min_Stack_Size+0x4264>
    4764:	495f4349 	ldmdbmi	pc, {r0, r3, r6, r8, r9, lr}^	; <UNPREDICTABLE>
    4768:	4c5f544e 	cfldrdmi	mvd5, [pc], {78}	; 0x4e
    476c:	5f4b434f 	svcpl	0x004b434f
    4770:	45455246 	strbmi	r5, [r5, #-582]	; 0xfffffdba
    4774:	5f003220 	svcpl	0x00003220
    4778:	5246535f 	subpl	r5, r6, #2080374785	; 0x7c000001
    477c:	5f544341 	svcpl	0x00544341
    4780:	5f4e494d 	svcpl	0x004e494d
    4784:	2d28205f 	stccs	0, cr2, [r8, #-380]!	; 0xfffffe84
    4788:	48352e30 	ldmdami	r5!, {r4, r5, r9, sl, fp, sp}
    478c:	2e302d52 	mrccs	13, 1, r2, cr0, cr2, {2}
    4790:	29524835 	ldmdbcs	r2, {r0, r2, r4, r5, fp, lr}^
    4794:	415f5f00 	cmpmi	pc, r0, lsl #30
    4798:	465f4d52 			; <UNDEFINED> instruction: 0x465f4d52
    479c:	55544145 	ldrbpl	r4, [r4, #-325]	; 0xfffffebb
    47a0:	465f4552 			; <UNDEFINED> instruction: 0x465f4552
    47a4:	5f363150 	svcpl	0x00363150
    47a8:	4c414353 	mcrrmi	3, 5, r4, r1, cr3
    47ac:	415f5241 	cmpmi	pc, r1, asr #4
    47b0:	48544952 	ldmdami	r4, {r1, r4, r6, r8, fp, lr}^
    47b4:	4954454d 	ldmdbmi	r4, {r0, r2, r3, r6, r8, sl, lr}^
    47b8:	43520043 	cmpmi	r2, #67	; 0x43
    47bc:	49545f43 	ldmdbmi	r4, {r0, r1, r6, r8, r9, sl, fp, ip, lr}^
    47c0:	455f324d 	ldrbmi	r3, [pc, #-589]	; 457b <_Min_Stack_Size+0x417b>
    47c4:	2029284e 	eorcs	r2, r9, lr, asr #16
    47c8:	2d434352 	stclcs	3, cr4, [r3, #-328]	; 0xfffffeb8
    47cc:	4250413e 	subsmi	r4, r0, #-2147483633	; 0x8000000f
    47d0:	524e4531 	subpl	r4, lr, #205520896	; 0xc400000
    47d4:	203d7c20 	eorscs	r7, sp, r0, lsr #24
    47d8:	3c3c3128 	ldfccs	f3, [ip], #-160	; 0xffffff60
    47dc:	5f002930 	svcpl	0x00002930
    47e0:	4c42445f 	cfstrdmi	mvd4, [r2], {95}	; 0x5f
    47e4:	5341485f 	movtpl	r4, #6239	; 0x185f
    47e8:	4955515f 	ldmdbmi	r5, {r0, r1, r2, r3, r4, r6, r8, ip, lr}^
    47ec:	4e5f5445 	cdpmi	4, 5, cr5, cr15, cr5, {2}
    47f0:	5f5f4e41 	svcpl	0x005f4e41
    47f4:	50003120 	andpl	r3, r0, r0, lsr #2
    47f8:	4654414c 	ldrbmi	r4, [r4], -ip, asr #2
    47fc:	5f4d524f 	svcpl	0x004d524f
    4800:	45505954 	ldrbmi	r5, [r0, #-2388]	; 0xfffff6ac
    4804:	5f485f53 	svcpl	0x00485f53
    4808:	43520020 	cmpmi	r2, #32
    480c:	53555f43 	cmppl	r5, #268	; 0x10c
    4810:	31545241 	cmpcc	r4, r1, asr #4
    4814:	5345525f 	movtpl	r5, #21087	; 0x525f
    4818:	29285445 	stmdbcs	r8!, {r0, r2, r6, sl, ip, lr}
    481c:	43435220 	movtmi	r5, #12832	; 0x3220
    4820:	50413e2d 	subpl	r3, r1, sp, lsr #28
    4824:	53523242 	cmppl	r2, #536870916	; 0x20000004
    4828:	7c205254 	sfmvc	f5, 4, [r0], #-336	; 0xfffffeb0
    482c:	3128203d 			; <UNDEFINED> instruction: 0x3128203d
    4830:	34313c3c 	ldrtcc	r3, [r1], #-3132	; 0xfffff3c4
    4834:	50470029 	subpl	r0, r7, r9, lsr #32
    4838:	505f4f49 	subspl	r4, pc, r9, asr #30
    483c:	5f54524f 	svcpl	0x0054524f
    4840:	45444f4d 	strbmi	r4, [r4, #-3917]	; 0xfffff0b3
    4844:	54554f5f 	ldrbpl	r4, [r5], #-3935	; 0xfffff0a1
    4848:	5f545550 	svcpl	0x00545550
    484c:	48535550 	ldmdami	r3, {r4, r6, r8, sl, ip, lr}^
    4850:	4c55505f 	mrrcmi	0, 5, r5, r5, cr15	; <UNPREDICTABLE>
    4854:	5f325f4c 	svcpl	0x00325f4c
    4858:	205a484d 	subscs	r4, sl, sp, asr #16
    485c:	32327830 	eorscc	r7, r2, #48, 16	; 0x300000
    4860:	32323232 	eorscc	r3, r2, #536870915	; 0x20000003
    4864:	5f003232 	svcpl	0x00003232
    4868:	464c4c5f 			; <UNDEFINED> instruction: 0x464c4c5f
    486c:	54434152 	strbpl	r4, [r3], #-338	; 0xfffffeae
    4870:	58414d5f 	stmdapl	r1, {r0, r1, r2, r3, r4, r6, r8, sl, fp, lr}^
    4874:	30205f5f 	eorcc	r5, r0, pc, asr pc
    4878:	46463758 			; <UNDEFINED> instruction: 0x46463758
    487c:	46464646 	strbmi	r4, [r6], -r6, asr #12
    4880:	46464646 	strbmi	r4, [r6], -r6, asr #12
    4884:	46464646 	strbmi	r4, [r6], -r6, asr #12
    4888:	362d5046 	strtcc	r5, [sp], -r6, asr #32
    488c:	524c4c33 	subpl	r4, ip, #13056	; 0x3300
    4890:	535f5f00 	cmppl	pc, #0, 30
    4894:	55434341 	strbpl	r4, [r3, #-833]	; 0xfffffcbf
    4898:	414d5f4d 	cmpmi	sp, sp, asr #30
    489c:	205f5f58 	subscs	r5, pc, r8, asr pc	; <UNPREDICTABLE>
    48a0:	46375830 			; <UNDEFINED> instruction: 0x46375830
    48a4:	2d504646 	ldclcs	6, cr4, [r0, #-280]	; 0xfffffee8
    48a8:	004b4837 	subeq	r4, fp, r7, lsr r8
    48ac:	4e495f5f 	mcrmi	15, 2, r5, cr9, cr15, {2}
    48b0:	52545054 	subspl	r5, r4, #84	; 0x54
    48b4:	5059545f 	subspl	r5, r9, pc, asr r4
    48b8:	205f5f45 	subscs	r5, pc, r5, asr #30
    48bc:	00746e69 	rsbseq	r6, r4, r9, ror #28
    48c0:	49545845 	ldmdbmi	r4, {r0, r2, r6, fp, ip, lr}^
    48c4:	4e49505f 	mcrmi	0, 2, r5, cr9, cr15, {2}
    48c8:	4e494c5f 	mcrmi	12, 2, r4, cr9, cr15, {2}
    48cc:	43503545 	cmpmi	r0, #289406976	; 0x11400000
    48d0:	45282035 	strmi	r2, [r8, #-53]!	; 0xffffffcb
    48d4:	5f495458 	svcpl	0x00495458
    48d8:	75746553 	ldrbvc	r6, [r4, #-1363]!	; 0xfffffaad
    48dc:	29745f70 	ldmdbcs	r4!, {r4, r5, r6, r8, r9, sl, fp, ip, lr}^
    48e0:	5458457b 	ldrbpl	r4, [r8], #-1403	; 0xfffffa85
    48e4:	472c3549 	strmi	r3, [ip, -r9, asr #10]!
    48e8:	434f4950 	movtmi	r4, #63824	; 0xf950
    48ec:	4950472c 	ldmdbmi	r0, {r2, r3, r5, r8, r9, sl, lr}^
    48f0:	49505f4f 	ldmdbmi	r0, {r0, r1, r2, r3, r6, r8, r9, sl, fp, ip, lr}^
    48f4:	7d355f4e 	ldcvc	15, cr5, [r5, #-312]!	; 0xfffffec8
    48f8:	555f5f00 	ldrbpl	r5, [pc, #-3840]	; 3a00 <_Min_Stack_Size+0x3600>
    48fc:	50544e49 	subspl	r4, r4, r9, asr #28
    4900:	545f5254 	ldrbpl	r5, [pc], #-596	; 4908 <_Min_Stack_Size+0x4508>
    4904:	5f455059 	svcpl	0x00455059
    4908:	6e75205f 	mrcvs	0, 3, r2, cr5, cr15, {2}
    490c:	6e676973 			; <UNDEFINED> instruction: 0x6e676973
    4910:	69206465 	stmdbvs	r0!, {r0, r2, r5, r6, sl, sp, lr}
    4914:	4800746e 	stmdami	r0, {r1, r2, r3, r5, r6, sl, ip, sp, lr}
    4918:	435f4953 	cmpmi	pc, #1359872	; 0x14c000
    491c:	28204b4c 	stmdacs	r0!, {r2, r3, r6, r8, r9, fp, lr}
    4920:	746e6975 	strbtvc	r6, [lr], #-2421	; 0xfffff68b
    4924:	745f3233 	ldrbvc	r3, [pc], #-563	; 492c <_Min_Stack_Size+0x452c>
    4928:	30303829 	eorscc	r3, r0, r9, lsr #16
    492c:	30303030 	eorscc	r3, r0, r0, lsr r0
    4930:	49504700 	ldmdbmi	r0, {r8, r9, sl, lr}^
    4934:	49505f4f 	ldmdbmi	r0, {r0, r1, r2, r3, r6, r8, r9, sl, fp, ip, lr}^
    4938:	4154534e 	cmpmi	r4, lr, asr #6
    493c:	485f4554 	ldmdami	pc, {r2, r4, r6, r8, sl, lr}^	; <UNPREDICTABLE>
    4940:	20484749 	subcs	r4, r8, r9, asr #14
    4944:	5f5f0031 	svcpl	0x005f0031
    4948:	33544c46 	cmpcc	r4, #17920	; 0x4600
    494c:	414d5f32 	cmpmi	sp, r2, lsr pc
    4950:	205f5f58 	subscs	r5, pc, r8, asr pc	; <UNPREDICTABLE>
    4954:	30342e33 	eorscc	r2, r4, r3, lsr lr
    4958:	33323832 	teqcc	r2, #3276800	; 0x320000
    495c:	33363634 	teqcc	r6, #52, 12	; 0x3400000
    4960:	38323538 	ldmdacc	r2!, {r3, r4, r5, r8, sl, ip, sp}
    4964:	2b653638 	blcs	195224c <_Min_Stack_Size+0x1951e4c>
    4968:	33463833 	movtcc	r3, #26675	; 0x6833
    496c:	5f5f0032 	svcpl	0x005f0032
    4970:	5f4c4244 	svcpl	0x004c4244
    4974:	5f474944 	svcpl	0x00474944
    4978:	3531205f 	ldrcc	r2, [r1, #-95]!	; 0xffffffa1
    497c:	555f5f00 	ldrbpl	r5, [pc, #-3840]	; 3a84 <_Min_Stack_Size+0x3684>
    4980:	4152464c 	cmpmi	r2, ip, asr #12
    4984:	455f5443 	ldrbmi	r5, [pc, #-1091]	; 4549 <_Min_Stack_Size+0x4149>
    4988:	4c495350 	mcrrmi	3, 5, r5, r9, cr0
    498c:	5f5f4e4f 	svcpl	0x005f4e4f
    4990:	31783020 	cmncc	r8, r0, lsr #32
    4994:	32332d50 	eorscc	r2, r3, #80, 26	; 0x1400
    4998:	00524c55 	subseq	r4, r2, r5, asr ip
    499c:	4f495047 	svcmi	0x00495047
    49a0:	4e49505f 	mcrmi	0, 2, r5, cr9, cr15, {2}
    49a4:	2820395f 	stmdacs	r0!, {r0, r1, r2, r3, r4, r6, r8, fp, ip, sp}
    49a8:	6e697528 	cdpvs	5, 6, cr7, cr9, cr8, {1}
    49ac:	745f3874 	ldrbvc	r3, [pc], #-2164	; 49b4 <_Min_Stack_Size+0x45b4>
    49b0:	00293929 	eoreq	r3, r9, r9, lsr #18
    49b4:	49535f5f 	ldmdbmi	r3, {r0, r1, r2, r3, r4, r6, r8, r9, sl, fp, ip, lr}^
    49b8:	464f455a 			; <UNDEFINED> instruction: 0x464f455a
    49bc:	5a49535f 	bpl	1259740 <_Min_Stack_Size+0x1259340>
    49c0:	5f545f45 	svcpl	0x00545f45
    49c4:	0034205f 	eorseq	r2, r4, pc, asr r0
    49c8:	49555f5f 	ldmdbmi	r5, {r0, r1, r2, r3, r4, r6, r8, r9, sl, fp, ip, lr}^
    49cc:	3436544e 	ldrtcc	r5, [r6], #-1102	; 0xfffffbb2
    49d0:	5059545f 	subspl	r5, r9, pc, asr r4
    49d4:	205f5f45 	subscs	r5, pc, r5, asr #30
    49d8:	676e6f6c 	strbvs	r6, [lr, -ip, ror #30]!
    49dc:	6e6f6c20 	cdpvs	12, 6, cr6, cr15, cr0, {1}
    49e0:	6e752067 	cdpvs	0, 7, cr2, cr5, cr7, {3}
    49e4:	6e676973 			; <UNDEFINED> instruction: 0x6e676973
    49e8:	69206465 	stmdbvs	r0!, {r0, r2, r5, r6, sl, sp, lr}
    49ec:	5f00746e 	svcpl	0x0000746e
    49f0:	544e495f 	strbpl	r4, [lr], #-2399	; 0xfffff6a1
    49f4:	435f3436 	cmpmi	pc, #905969664	; 0x36000000
    49f8:	20296328 	eorcs	r6, r9, r8, lsr #6
    49fc:	23232063 			; <UNDEFINED> instruction: 0x23232063
    4a00:	004c4c20 	subeq	r4, ip, r0, lsr #24
    4a04:	5f434352 	svcpl	0x00434352
    4a08:	434d5346 	movtmi	r5, #54086	; 0xd346
    4a0c:	284e455f 	stmdacs	lr, {r0, r1, r2, r3, r4, r6, r8, sl, lr}^
    4a10:	43522029 	cmpmi	r2, #41	; 0x29
    4a14:	413e2d43 	teqmi	lr, r3, asr #26
    4a18:	4e454248 	cdpmi	2, 4, cr4, cr5, cr8, {2}
    4a1c:	3d7c2052 	ldclcc	0, cr2, [ip, #-328]!	; 0xfffffeb8
    4a20:	3c312820 	ldccc	8, cr2, [r1], #-128	; 0xffffff80
    4a24:	0029383c 	eoreq	r3, r9, ip, lsr r8
    4a28:	49545845 	ldmdbmi	r4, {r0, r2, r6, fp, ip, lr}^
    4a2c:	4e49505f 	mcrmi	0, 2, r5, cr9, cr15, {2}
    4a30:	4e494c5f 	mcrmi	12, 2, r4, cr9, cr15, {2}
    4a34:	41503645 	cmpmi	r0, r5, asr #12
    4a38:	45282036 	strmi	r2, [r8, #-54]!	; 0xffffffca
    4a3c:	5f495458 	svcpl	0x00495458
    4a40:	75746553 	ldrbvc	r6, [r4, #-1363]!	; 0xfffffaad
    4a44:	29745f70 	ldmdbcs	r4!, {r4, r5, r6, r8, r9, sl, fp, ip, lr}^
    4a48:	5458457b 	ldrbpl	r4, [r8], #-1403	; 0xfffffa85
    4a4c:	472c3649 	strmi	r3, [ip, -r9, asr #12]!
    4a50:	414f4950 	cmpmi	pc, r0, asr r9	; <UNPREDICTABLE>
    4a54:	4950472c 	ldmdbmi	r0, {r2, r3, r5, r8, r9, sl, lr}^
    4a58:	49505f4f 	ldmdbmi	r0, {r0, r1, r2, r3, r6, r8, r9, sl, fp, ip, lr}^
    4a5c:	7d365f4e 	ldcvc	15, cr5, [r6, #-312]!	; 0xfffffec8
    4a60:	54584500 	ldrbpl	r4, [r8], #-1280	; 0xfffffb00
    4a64:	49505f49 	ldmdbmi	r0, {r0, r3, r6, r8, r9, sl, fp, ip, lr}^
    4a68:	494c5f4e 	stmdbmi	ip, {r1, r2, r3, r6, r8, r9, sl, fp, ip, lr}^
    4a6c:	3031454e 	eorscc	r4, r1, lr, asr #10
    4a70:	30314250 	eorscc	r4, r1, r0, asr r2
    4a74:	58452820 	stmdapl	r5, {r5, fp, sp}^
    4a78:	535f4954 	cmppl	pc, #84, 18	; 0x150000
    4a7c:	70757465 	rsbsvc	r7, r5, r5, ror #8
    4a80:	7b29745f 	blvc	a61c04 <_Min_Stack_Size+0xa61804>
    4a84:	49545845 	ldmdbmi	r4, {r0, r2, r6, fp, ip, lr}^
    4a88:	472c3031 			; <UNDEFINED> instruction: 0x472c3031
    4a8c:	424f4950 	submi	r4, pc, #80, 18	; 0x140000
    4a90:	4950472c 	ldmdbmi	r0, {r2, r3, r5, r8, r9, sl, lr}^
    4a94:	49505f4f 	ldmdbmi	r0, {r0, r1, r2, r3, r6, r8, r9, sl, fp, ip, lr}^
    4a98:	30315f4e 	eorscc	r5, r1, lr, asr #30
    4a9c:	564e007d 			; <UNDEFINED> instruction: 0x564e007d
    4aa0:	495f4349 	ldmdbmi	pc, {r0, r3, r6, r8, r9, lr}^	; <UNPREDICTABLE>
    4aa4:	31524553 	cmpcc	r2, r3, asr r5
    4aa8:	76282a20 	strtvc	r2, [r8], -r0, lsr #20
    4aac:	746e6975 	strbtvc	r6, [lr], #-2421	; 0xfffff68b
    4ab0:	745f3233 	ldrbvc	r3, [pc], #-563	; 4ab8 <_Min_Stack_Size+0x46b8>
    4ab4:	4e28292a 	vmulmi.f16	s4, s16, s21	; <UNPREDICTABLE>
    4ab8:	5f434956 	svcpl	0x00434956
    4abc:	45534142 	ldrbmi	r4, [r3, #-322]	; 0xfffffebe
    4ac0:	4444415f 	strbmi	r4, [r4], #-351	; 0xfffffea1
    4ac4:	53455245 	movtpl	r5, #21061	; 0x5245
    4ac8:	78302b53 	ldmdavc	r0!, {r0, r1, r4, r6, r8, r9, fp, sp}
    4acc:	29343030 	ldmdbcs	r4!, {r4, r5, ip, sp}
    4ad0:	4c5f5f00 	mrrcmi	15, 0, r5, pc, cr0	; <UNPREDICTABLE>
    4ad4:	5f4c4244 	svcpl	0x004c4244
    4ad8:	5f4e494d 	svcpl	0x004e494d
    4adc:	2e32205f 	mrccs	0, 1, r2, cr2, cr15, {2}
    4ae0:	30353232 	eorscc	r3, r5, r2, lsr r2
    4ae4:	35383337 	ldrcc	r3, [r8, #-823]!	; 0xfffffcc9
    4ae8:	37303538 			; <UNDEFINED> instruction: 0x37303538
    4aec:	34313032 	ldrtcc	r3, [r1], #-50	; 0xffffffce
    4af0:	30332d65 	eorscc	r2, r3, r5, ror #26
    4af4:	5f004c38 	svcpl	0x00004c38
    4af8:	4d52415f 	ldfmie	f4, [r2, #-380]	; 0xfffffe84
    4afc:	4145465f 	cmpmi	r5, pc, asr r6
    4b00:	45525554 	ldrbmi	r5, [r2, #-1364]	; 0xfffffaac
    4b04:	4544435f 	strbmi	r4, [r4, #-863]	; 0xfffffca1
    4b08:	415f5f00 	cmpmi	pc, r0, lsl #30
    4b0c:	4d554343 	ldclmi	3, cr4, [r5, #-268]	; 0xfffffef4
    4b10:	4942495f 	stmdbmi	r2, {r0, r1, r2, r3, r4, r6, r8, fp, lr}^
    4b14:	205f5f54 	subscs	r5, pc, r4, asr pc	; <UNPREDICTABLE>
    4b18:	45003631 	strmi	r3, [r0, #-1585]	; 0xfffff9cf
    4b1c:	5f495458 	svcpl	0x00495458
    4b20:	5f4e4950 	svcpl	0x004e4950
    4b24:	454e494c 	strbmi	r4, [lr, #-2380]	; 0xfffff6b4
    4b28:	34445034 	strbcc	r5, [r4], #-52	; 0xffffffcc
    4b2c:	58452820 	stmdapl	r5, {r5, fp, sp}^
    4b30:	535f4954 	cmppl	pc, #84, 18	; 0x150000
    4b34:	70757465 	rsbsvc	r7, r5, r5, ror #8
    4b38:	7b29745f 	blvc	a61cbc <_Min_Stack_Size+0xa618bc>
    4b3c:	49545845 	ldmdbmi	r4, {r0, r2, r6, fp, ip, lr}^
    4b40:	50472c34 	subpl	r2, r7, r4, lsr ip
    4b44:	2c444f49 	mcrrcs	15, 4, r4, r4, cr9
    4b48:	4f495047 	svcmi	0x00495047
    4b4c:	4e49505f 	mcrmi	0, 2, r5, cr9, cr15, {2}
    4b50:	007d345f 	rsbseq	r3, sp, pc, asr r4
    4b54:	4f494641 	svcmi	0x00494641
    4b58:	5458455f 	ldrbpl	r4, [r8], #-1375	; 0xfffffaa1
    4b5c:	5f524349 	svcpl	0x00524349
    4b60:	65646e49 	strbvs	r6, [r4, #-3657]!	; 0xfffff1b7
    4b64:	5f5f0078 	svcpl	0x005f0078
    4b68:	544e4955 	strbpl	r4, [lr], #-2389	; 0xfffff6ab
    4b6c:	435f3631 	cmpmi	pc, #51380224	; 0x3100000
    4b70:	20296328 	eorcs	r6, r9, r8, lsr #6
    4b74:	5f5f0063 	svcpl	0x005f0063
    4b78:	5f414455 	svcpl	0x00414455
    4b7c:	54494249 	strbpl	r4, [r9], #-585	; 0xfffffdb7
    4b80:	33205f5f 			; <UNDEFINED> instruction: 0x33205f5f
    4b84:	43520032 	cmpmi	r2, #50	; 0x32
    4b88:	32495f43 	subcc	r5, r9, #268	; 0x10c
    4b8c:	455f3143 	ldrbmi	r3, [pc, #-323]	; 4a51 <_Min_Stack_Size+0x4651>
    4b90:	2029284e 	eorcs	r2, r9, lr, asr #16
    4b94:	2d434352 	stclcs	3, cr4, [r3, #-328]	; 0xfffffeb8
    4b98:	4250413e 	subsmi	r4, r0, #-2147483633	; 0x8000000f
    4b9c:	524e4531 	subpl	r4, lr, #205520896	; 0xc400000
    4ba0:	203d7c20 	eorscs	r7, sp, r0, lsr #24
    4ba4:	3c3c3128 	ldfccs	f3, [ip], #-160	; 0xffffff60
    4ba8:	00293132 	eoreq	r3, r9, r2, lsr r1
    4bac:	4f4e5f5f 	svcmi	0x004e5f5f
    4bb0:	4c4e495f 	mcrrmi	9, 5, r4, lr, cr15	; <UNPREDICTABLE>
    4bb4:	5f454e49 	svcpl	0x00454e49
    4bb8:	0031205f 	eorseq	r2, r1, pc, asr r0
    4bbc:	54415f5f 	strbpl	r5, [r1], #-3935	; 0xfffff0a1
    4bc0:	43494d4f 	movtmi	r4, #40271	; 0x9d4f
    4bc4:	4c45525f 	sfmmi	f5, 2, [r5], {95}	; 0x5f
    4bc8:	44455841 	strbmi	r5, [r5], #-2113	; 0xfffff7bf
    4bcc:	5f003020 	svcpl	0x00003020
    4bd0:	4d52415f 	ldfmie	f4, [r2, #-380]	; 0xfffffe84
    4bd4:	4145465f 	cmpmi	r5, pc, asr r6
    4bd8:	45525554 	ldrbmi	r5, [r2, #-1364]	; 0xfffffaac
    4bdc:	504f435f 	subpl	r4, pc, pc, asr r3	; <UNPREDICTABLE>
    4be0:	00434f52 	subeq	r4, r3, r2, asr pc
    4be4:	42445f5f 	submi	r5, r4, #380	; 0x17c
    4be8:	41485f4c 	cmpmi	r8, ip, asr #30
    4bec:	4e495f53 	mcrmi	15, 2, r5, cr9, cr3, {2}
    4bf0:	494e4946 	stmdbmi	lr, {r1, r2, r6, r8, fp, lr}^
    4bf4:	5f5f5954 	svcpl	0x005f5954
    4bf8:	5f003120 	svcpl	0x00003120
    4bfc:	4749535f 	smlsldmi	r5, r9, pc, r3	; <UNPREDICTABLE>
    4c00:	4f54415f 	svcmi	0x0054415f
    4c04:	5f43494d 	svcpl	0x0043494d
    4c08:	5f58414d 	svcpl	0x0058414d
    4c0c:	7830205f 	ldmdavc	r0!, {r0, r1, r2, r3, r4, r6, sp}
    4c10:	66666637 			; <UNDEFINED> instruction: 0x66666637
    4c14:	66666666 	strbtvs	r6, [r6], -r6, ror #12
    4c18:	465f5f00 	ldrbmi	r5, [pc], -r0, lsl #30
    4c1c:	3436544c 	ldrtcc	r5, [r6], #-1100	; 0xfffffbb4
    4c20:	4e414d5f 	mcrmi	13, 2, r4, cr1, cr15, {2}
    4c24:	49445f54 	stmdbmi	r4, {r2, r4, r6, r8, r9, sl, fp, ip, lr}^
    4c28:	205f5f47 	subscs	r5, pc, r7, asr #30
    4c2c:	43003335 	movwmi	r3, #821	; 0x335
    4c30:	425f524c 	subsmi	r5, pc, #76, 4	; 0xc0000004
    4c34:	52285449 	eorpl	r5, r8, #1224736768	; 0x49000000
    4c38:	422c4745 	eormi	r4, ip, #18087936	; 0x1140000
    4c3c:	20295449 	eorcs	r5, r9, r9, asr #8
    4c40:	47455228 	strbmi	r5, [r5, -r8, lsr #4]
    4c44:	203d2620 	eorscs	r2, sp, r0, lsr #12
    4c48:	3c31287e 	ldccc	8, cr2, [r1], #-504	; 0xfffffe08
    4c4c:	5449423c 	strbpl	r4, [r9], #-572	; 0xfffffdc4
    4c50:	45002929 	strmi	r2, [r0, #-2345]	; 0xfffff6d7
    4c54:	33495458 	movtcc	r5, #37976	; 0x9458
    4c58:	5152495f 	cmppl	r2, pc, asr r9
    4c5c:	646e6148 	strbtvs	r6, [lr], #-328	; 0xfffffeb8
    4c60:	0072656c 	rsbseq	r6, r2, ip, ror #10
    4c64:	5f434352 	svcpl	0x00434352
    4c68:	54494c46 	strbpl	r4, [r9], #-3142	; 0xfffff3ba
    4c6c:	4e455f46 	cdpmi	15, 4, cr5, cr5, cr6, {2}
    4c70:	52202928 	eorpl	r2, r0, #40, 18	; 0xa0000
    4c74:	3e2d4343 	cdpcc	3, 2, cr4, cr13, cr3, {2}
    4c78:	45424841 	strbmi	r4, [r2, #-2113]	; 0xfffff7bf
    4c7c:	7c20524e 	sfmvc	f5, 4, [r0], #-312	; 0xfffffec8
    4c80:	3128203d 			; <UNDEFINED> instruction: 0x3128203d
    4c84:	29343c3c 	ldmdbcs	r4!, {r2, r3, r4, r5, sl, fp, ip, sp}
    4c88:	49504700 	ldmdbmi	r0, {r8, r9, sl, lr}^
    4c8c:	2820414f 	stmdacs	r0!, {r0, r1, r2, r3, r6, r8, lr}
    4c90:	49504728 	ldmdbmi	r0, {r3, r5, r8, r9, sl, lr}^
    4c94:	2a745f4f 	bcs	1d1c9d8 <_Min_Stack_Size+0x1d1c5d8>
    4c98:	49504729 	ldmdbmi	r0, {r0, r3, r5, r8, r9, sl, lr}^
    4c9c:	425f414f 	subsmi	r4, pc, #-1073741805	; 0xc0000013
    4ca0:	5f455341 	svcpl	0x00455341
    4ca4:	45444441 	strbmi	r4, [r4, #-1089]	; 0xfffffbbf
    4ca8:	53534552 	cmppl	r3, #343932928	; 0x14800000
    4cac:	5f5f0029 	svcpl	0x005f0029
    4cb0:	53455355 	movtpl	r5, #21333	; 0x5355
    4cb4:	494e495f 	stmdbmi	lr, {r0, r1, r2, r3, r4, r6, r8, fp, lr}^
    4cb8:	4e494654 	mcrmi	6, 2, r4, cr9, cr4, {2}
    4cbc:	205f5f49 	subscs	r5, pc, r9, asr #30
    4cc0:	58450031 	stmdapl	r5, {r0, r4, r5}^
    4cc4:	505f4954 	subspl	r4, pc, r4, asr r9	; <UNPREDICTABLE>
    4cc8:	4c5f4e49 	mrrcmi	14, 4, r4, pc, cr9	; <UNPREDICTABLE>
    4ccc:	31454e49 	cmpcc	r5, r9, asr #28
    4cd0:	31425034 	cmpcc	r2, r4, lsr r0
    4cd4:	45282034 	strmi	r2, [r8, #-52]!	; 0xffffffcc
    4cd8:	5f495458 	svcpl	0x00495458
    4cdc:	75746553 	ldrbvc	r6, [r4, #-1363]!	; 0xfffffaad
    4ce0:	29745f70 	ldmdbcs	r4!, {r4, r5, r6, r8, r9, sl, fp, ip, lr}^
    4ce4:	5458457b 	ldrbpl	r4, [r8], #-1403	; 0xfffffa85
    4ce8:	2c343149 	ldfcss	f3, [r4], #-292	; 0xfffffedc
    4cec:	4f495047 	svcmi	0x00495047
    4cf0:	50472c42 	subpl	r2, r7, r2, asr #24
    4cf4:	505f4f49 	subspl	r4, pc, r9, asr #30
    4cf8:	315f4e49 	cmpcc	pc, r9, asr #28
    4cfc:	52007d34 	andpl	r7, r0, #52, 26	; 0xd00
    4d00:	545f4343 	ldrbpl	r4, [pc], #-835	; 4d08 <_Min_Stack_Size+0x4908>
    4d04:	5f354d49 	svcpl	0x00354d49
    4d08:	29284e45 	stmdbcs	r8!, {r0, r2, r6, r9, sl, fp, lr}
    4d0c:	43435220 	movtmi	r5, #12832	; 0x3220
    4d10:	50413e2d 	subpl	r3, r1, sp, lsr #28
    4d14:	4e453142 	dvfmism	f3, f5, f2
    4d18:	3d7c2052 	ldclcc	0, cr2, [ip, #-328]!	; 0xfffffeb8
    4d1c:	3c312820 	ldccc	8, cr2, [r1], #-128	; 0xffffff80
    4d20:	0029333c 	eoreq	r3, r9, ip, lsr r3
    4d24:	4f495047 	svcmi	0x00495047
    4d28:	41425f43 	cmpmi	r2, r3, asr #30
    4d2c:	415f4553 	cmpmi	pc, r3, asr r5	; <UNPREDICTABLE>
    4d30:	52454444 	subpl	r4, r5, #68, 8	; 0x44000000
    4d34:	20535345 	subscs	r5, r3, r5, asr #6
    4d38:	30347830 	eorscc	r7, r4, r0, lsr r8
    4d3c:	30313130 	eorscc	r3, r1, r0, lsr r1
    4d40:	4c553030 	mrrcmi	0, 3, r3, r5, cr0
    4d44:	43435200 	movtmi	r5, #12800	; 0x3200
    4d48:	5341425f 	movtpl	r4, #4703	; 0x125f
    4d4c:	44415f45 	strbmi	r5, [r1], #-3909	; 0xfffff0bb
    4d50:	45524544 	ldrbmi	r4, [r2, #-1348]	; 0xfffffabc
    4d54:	30205353 	eorcc	r5, r0, r3, asr r3
    4d58:	30303478 	eorscc	r3, r0, r8, ror r4
    4d5c:	30303132 	eorscc	r3, r0, r2, lsr r1
    4d60:	004c5530 	subeq	r5, ip, r0, lsr r5
    4d64:	4f495047 	svcmi	0x00495047
    4d68:	4e49505f 	mcrmi	0, 2, r5, cr9, cr15, {2}
    4d6c:	444f4d5f 	strbmi	r4, [pc], #-3423	; 4d74 <_Min_Stack_Size+0x4974>
    4d70:	4e415f45 	cdpmi	15, 4, cr5, cr1, cr5, {2}
    4d74:	474f4c41 	strbmi	r4, [pc, -r1, asr #24]
    4d78:	30623020 	rsbcc	r3, r2, r0, lsr #32
    4d7c:	00303030 	eorseq	r3, r0, r0, lsr r0
    4d80:	4349564e 	movtmi	r5, #38478	; 0x964e
    4d84:	4553495f 	ldrbmi	r4, [r3, #-2399]	; 0xfffff6a1
    4d88:	2a203252 	bcs	8116d8 <_Min_Stack_Size+0x8112d8>
    4d8c:	69757628 	ldmdbvs	r5!, {r3, r5, r9, sl, ip, sp, lr}^
    4d90:	3233746e 	eorscc	r7, r3, #1845493760	; 0x6e000000
    4d94:	292a745f 	stmdbcs	sl!, {r0, r1, r2, r3, r4, r6, sl, ip, sp, lr}
    4d98:	49564e28 	ldmdbmi	r6, {r3, r5, r9, sl, fp, lr}^
    4d9c:	41425f43 	cmpmi	r2, r3, asr #30
    4da0:	415f4553 	cmpmi	pc, r3, asr r5	; <UNPREDICTABLE>
    4da4:	52454444 	subpl	r4, r5, #68, 8	; 0x44000000
    4da8:	2b535345 	blcs	14d9ac4 <_Min_Stack_Size+0x14d96c4>
    4dac:	30307830 	eorscc	r7, r0, r0, lsr r8
    4db0:	5f002938 	svcpl	0x00002938
    4db4:	544e495f 	strbpl	r4, [lr], #-2399	; 0xfffff6a1
    4db8:	4d5f3631 	ldclmi	6, cr3, [pc, #-196]	; 4cfc <_Min_Stack_Size+0x48fc>
    4dbc:	5f5f5841 	svcpl	0x005f5841
    4dc0:	37783020 	ldrbcc	r3, [r8, -r0, lsr #32]!
    4dc4:	00666666 	rsbeq	r6, r6, r6, ror #12
    4dc8:	4e495f5f 	mcrmi	15, 2, r5, cr9, cr15, {2}
    4dcc:	49575f54 	ldmdbmi	r7, {r2, r4, r6, r8, r9, sl, fp, ip, lr}^
    4dd0:	5f485444 	svcpl	0x00485444
    4dd4:	3233205f 	eorscc	r2, r3, #95	; 0x5f
    4dd8:	4c554e00 	mrrcmi	14, 0, r4, r5, cr0
    4ddc:	2828204c 	stmdacs	r8!, {r2, r3, r6, sp}
    4de0:	64696f76 	strbtvs	r6, [r9], #-3958	; 0xfffff08a
    4de4:	2930292a 	ldmdbcs	r0!, {r1, r3, r5, r8, fp, sp}
    4de8:	52534200 	subspl	r4, r3, #0, 4
    4dec:	58450052 	stmdapl	r5, {r1, r4, r6}^
    4df0:	505f4954 	subspl	r4, pc, r4, asr r9	; <UNPREDICTABLE>
    4df4:	4c5f4e49 	mrrcmi	14, 4, r4, pc, cr9	; <UNPREDICTABLE>
    4df8:	33454e49 	movtcc	r4, #24137	; 0x5e49
    4dfc:	20334350 	eorscs	r4, r3, r0, asr r3
    4e00:	54584528 	ldrbpl	r4, [r8], #-1320	; 0xfffffad8
    4e04:	65535f49 	ldrbvs	r5, [r3, #-3913]	; 0xfffff0b7
    4e08:	5f707574 	svcpl	0x00707574
    4e0c:	457b2974 	ldrbmi	r2, [fp, #-2420]!	; 0xfffff68c
    4e10:	33495458 	movtcc	r5, #37976	; 0x9458
    4e14:	4950472c 	ldmdbmi	r0, {r2, r3, r5, r8, r9, sl, lr}^
    4e18:	472c434f 	strmi	r4, [ip, -pc, asr #6]!
    4e1c:	5f4f4950 	svcpl	0x004f4950
    4e20:	5f4e4950 	svcpl	0x004e4950
    4e24:	45007d33 	strmi	r7, [r0, #-3379]	; 0xfffff2cd
    4e28:	5f495458 	svcpl	0x00495458
    4e2c:	5f4e4950 	svcpl	0x004e4950
    4e30:	454e494c 	strbmi	r4, [lr, #-2380]	; 0xfffff6b4
    4e34:	42503531 	subsmi	r3, r0, #205520896	; 0xc400000
    4e38:	28203531 	stmdacs	r0!, {r0, r4, r5, r8, sl, ip, sp}
    4e3c:	49545845 	ldmdbmi	r4, {r0, r2, r6, fp, ip, lr}^
    4e40:	7465535f 	strbtvc	r5, [r5], #-863	; 0xfffffca1
    4e44:	745f7075 	ldrbvc	r7, [pc], #-117	; 4e4c <_Min_Stack_Size+0x4a4c>
    4e48:	58457b29 	stmdapl	r5, {r0, r3, r5, r8, r9, fp, ip, sp, lr}^
    4e4c:	35314954 	ldrcc	r4, [r1, #-2388]!	; 0xfffff6ac
    4e50:	4950472c 	ldmdbmi	r0, {r2, r3, r5, r8, r9, sl, lr}^
    4e54:	472c424f 	strmi	r4, [ip, -pc, asr #4]!
    4e58:	5f4f4950 	svcpl	0x004f4950
    4e5c:	5f4e4950 	svcpl	0x004e4950
    4e60:	007d3531 	rsbseq	r3, sp, r1, lsr r5
    4e64:	455f4f4e 	ldrbmi	r4, [pc, #-3918]	; 3f1e <_Min_Stack_Size+0x3b1e>
    4e68:	524f5252 	subpl	r5, pc, #536870917	; 0x20000005
    4e6c:	5f003020 	svcpl	0x00003020
    4e70:	4749535f 	smlsldmi	r5, r9, pc, r3	; <UNPREDICTABLE>
    4e74:	4f54415f 	svcmi	0x0054415f
    4e78:	5f43494d 	svcpl	0x0043494d
    4e7c:	54444957 	strbpl	r4, [r4], #-2391	; 0xfffff6a9
    4e80:	205f5f48 	subscs	r5, pc, r8, asr #30
    4e84:	5f003233 	svcpl	0x00003233
    4e88:	544c465f 	strbpl	r4, [ip], #-1631	; 0xfffff9a1
    4e8c:	455f3436 	ldrbmi	r3, [pc, #-1078]	; 4a5e <_Min_Stack_Size+0x465e>
    4e90:	4c495350 	mcrrmi	3, 5, r5, r9, cr0
    4e94:	5f5f4e4f 	svcpl	0x005f4e4f
    4e98:	322e3220 	eorcc	r3, lr, #32, 4
    4e9c:	34343032 	ldrtcc	r3, [r4], #-50	; 0xffffffce
    4ea0:	39343036 	ldmdbcc	r4!, {r1, r2, r4, r5, ip, sp}
    4ea4:	33303532 	teqcc	r0, #209715200	; 0xc800000
    4ea8:	65313331 	ldrvs	r3, [r1, #-817]!	; 0xfffffccf
    4eac:	4636312d 	ldrtmi	r3, [r6], -sp, lsr #2
    4eb0:	45003436 	strmi	r3, [r0, #-1078]	; 0xfffffbca
    4eb4:	30495458 	subcc	r5, r9, r8, asr r4
    4eb8:	5152495f 	cmppl	r2, pc, asr r9
    4ebc:	646e6148 	strbtvs	r6, [lr], #-328	; 0xfffffeb8
    4ec0:	0072656c 	rsbseq	r6, r2, ip, ror #10
    4ec4:	54555f5f 	ldrbpl	r5, [r5], #-3935	; 0xfffff0a1
    4ec8:	42495f41 	submi	r5, r9, #260	; 0x104
    4ecc:	5f5f5449 	svcpl	0x005f5449
    4ed0:	00343620 	eorseq	r3, r4, r0, lsr #12
    4ed4:	4c555f5f 	mrrcmi	15, 5, r5, r5, cr15	; <UNPREDICTABLE>
    4ed8:	4343414c 	movtmi	r4, #12620	; 0x314c
    4edc:	495f4d55 	ldmdbmi	pc, {r0, r2, r4, r6, r8, sl, fp, lr}^	; <UNPREDICTABLE>
    4ee0:	5f544942 	svcpl	0x00544942
    4ee4:	3233205f 	eorscc	r2, r3, #95	; 0x5f
    4ee8:	555f5f00 	ldrbpl	r5, [pc, #-3840]	; 3ff0 <_Min_Stack_Size+0x3bf0>
    4eec:	52464c4c 	subpl	r4, r6, #76, 24	; 0x4c00
    4ef0:	5f544341 	svcpl	0x00544341
    4ef4:	49535045 	ldmdbmi	r3, {r0, r2, r6, ip, lr}^
    4ef8:	5f4e4f4c 	svcpl	0x004e4f4c
    4efc:	7830205f 	ldmdavc	r0!, {r0, r1, r2, r3, r4, r6, sp}
    4f00:	362d5031 			; <UNDEFINED> instruction: 0x362d5031
    4f04:	4c4c5534 	cfstr64mi	mvdx5, [ip], {52}	; 0x34
    4f08:	5f5f0052 	svcpl	0x005f0052
    4f0c:	5f544e49 	svcpl	0x00544e49
    4f10:	5341454c 	movtpl	r4, #5452	; 0x154c
    4f14:	5f343654 	svcpl	0x00343654
    4f18:	45505954 	ldrbmi	r5, [r0, #-2388]	; 0xfffff6ac
    4f1c:	6c205f5f 	stcvs	15, cr5, [r0], #-380	; 0xfffffe84
    4f20:	20676e6f 	rsbcs	r6, r7, pc, ror #28
    4f24:	676e6f6c 	strbvs	r6, [lr, -ip, ror #30]!
    4f28:	746e6920 	strbtvc	r6, [lr], #-2336	; 0xfffff6e0
    4f2c:	535f5f00 	cmppl	pc, #0, 30
    4f30:	4f455a49 	svcmi	0x00455a49
    4f34:	49575f46 	ldmdbmi	r7, {r1, r2, r6, r8, r9, sl, fp, ip, lr}^
    4f38:	545f544e 	ldrbpl	r5, [pc], #-1102	; 4f40 <_Min_Stack_Size+0x4b40>
    4f3c:	34205f5f 	strtcc	r5, [r0], #-3935	; 0xfffff0a1
    4f40:	54584500 	ldrbpl	r4, [r8], #-1280	; 0xfffffb00
    4f44:	49505f49 	ldmdbmi	r0, {r0, r3, r6, r8, r9, sl, fp, ip, lr}^
    4f48:	494c5f4e 	stmdbmi	ip, {r1, r2, r3, r6, r8, r9, sl, fp, ip, lr}^
    4f4c:	5034454e 	eorspl	r4, r4, lr, asr #10
    4f50:	28203441 	stmdacs	r0!, {r0, r6, sl, ip, sp}
    4f54:	49545845 	ldmdbmi	r4, {r0, r2, r6, fp, ip, lr}^
    4f58:	7465535f 	strbtvc	r5, [r5], #-863	; 0xfffffca1
    4f5c:	745f7075 	ldrbvc	r7, [pc], #-117	; 4f64 <_Min_Stack_Size+0x4b64>
    4f60:	58457b29 	stmdapl	r5, {r0, r3, r5, r8, r9, fp, ip, sp, lr}^
    4f64:	2c344954 			; <UNDEFINED> instruction: 0x2c344954
    4f68:	4f495047 	svcmi	0x00495047
    4f6c:	50472c41 	subpl	r2, r7, r1, asr #24
    4f70:	505f4f49 	subspl	r4, pc, r9, asr #30
    4f74:	345f4e49 	ldrbcc	r4, [pc], #-3657	; 4f7c <_Min_Stack_Size+0x4b7c>
    4f78:	5f5f007d 	svcpl	0x005f007d
    4f7c:	5f4d5241 	svcpl	0x004d5241
    4f80:	54414546 	strbpl	r4, [r1], #-1350	; 0xfffffaba
    4f84:	5f455255 	svcpl	0x00455255
    4f88:	4c414e55 	mcrrmi	14, 5, r4, r1, cr5
    4f8c:	454e4749 	strbmi	r4, [lr, #-1865]	; 0xfffff8b7
    4f90:	00312044 	eorseq	r2, r1, r4, asr #32
    4f94:	58475f5f 	stmdapl	r7, {r0, r1, r2, r3, r4, r6, r8, r9, sl, fp, ip, lr}^
    4f98:	59545f58 	ldmdbpl	r4, {r3, r4, r6, r8, r9, sl, fp, ip, lr}^
    4f9c:	4e494550 	mcrmi	5, 2, r4, cr9, cr0, {2}
    4fa0:	455f4f46 	ldrbmi	r4, [pc, #-3910]	; 4062 <_Min_Stack_Size+0x3c62>
    4fa4:	4c415551 	cfstr64mi	mvdx5, [r1], {81}	; 0x51
    4fa8:	5f595449 	svcpl	0x00595449
    4fac:	494c4e49 	stmdbmi	ip, {r0, r3, r6, r9, sl, fp, lr}^
    4fb0:	3020454e 	eorcc	r4, r0, lr, asr #10
    4fb4:	4c5f5f00 	mrrcmi	15, 0, r5, pc, cr0	; <UNPREDICTABLE>
    4fb8:	5f4c4244 	svcpl	0x004c4244
    4fbc:	49434544 	stmdbmi	r3, {r2, r6, r8, sl, lr}^
    4fc0:	5f4c414d 	svcpl	0x004c414d
    4fc4:	5f474944 	svcpl	0x00474944
    4fc8:	3731205f 			; <UNDEFINED> instruction: 0x3731205f
    4fcc:	555f5f00 	ldrbpl	r5, [pc, #-3840]	; 40d4 <_Min_Stack_Size+0x3cd4>
    4fd0:	495f4153 	ldmdbmi	pc, {r0, r1, r4, r6, r8, lr}^	; <UNPREDICTABLE>
    4fd4:	5f544942 	svcpl	0x00544942
    4fd8:	3631205f 			; <UNDEFINED> instruction: 0x3631205f
    4fdc:	4c5f5f00 	mrrcmi	15, 0, r5, pc, cr0	; <UNPREDICTABLE>
    4fe0:	55434341 	strbpl	r4, [r3, #-833]	; 0xfffffcbf
    4fe4:	494d5f4d 	stmdbmi	sp, {r0, r2, r3, r6, r8, r9, sl, fp, ip, lr}^
    4fe8:	205f5f4e 	subscs	r5, pc, lr, asr #30
    4fec:	58302d28 	ldmdapl	r0!, {r3, r5, r8, sl, fp, sp}
    4ff0:	31335031 	teqcc	r3, r1, lsr r0
    4ff4:	302d4b4c 	eorcc	r4, sp, ip, asr #22
    4ff8:	33503158 	cmpcc	r0, #88, 2
    4ffc:	294b4c31 	stmdbcs	fp, {r0, r4, r5, sl, fp, lr}^
    5000:	495f5f00 	ldmdbmi	pc, {r8, r9, sl, fp, ip, lr}^	; <UNPREDICTABLE>
    5004:	465f544e 	ldrbmi	r5, [pc], -lr, asr #8
    5008:	38545341 	ldmdacc	r4, {r0, r6, r8, r9, ip, lr}^
    500c:	58414d5f 	stmdapl	r1, {r0, r1, r2, r3, r4, r6, r8, sl, fp, lr}^
    5010:	30205f5f 	eorcc	r5, r0, pc, asr pc
    5014:	66663778 			; <UNDEFINED> instruction: 0x66663778
    5018:	66666666 	strbtvs	r6, [r6], -r6, ror #12
    501c:	5f5f0066 	svcpl	0x005f0066
    5020:	33544c46 	cmpcc	r4, #17920	; 0x4600
    5024:	41485f32 	cmpmi	r8, r2, lsr pc
    5028:	45445f53 	strbmi	r5, [r4, #-3923]	; 0xfffff0ad
    502c:	4d524f4e 	ldclmi	15, cr4, [r2, #-312]	; 0xfffffec8
    5030:	31205f5f 			; <UNDEFINED> instruction: 0x31205f5f
    5034:	54454700 	strbpl	r4, [r5], #-1792	; 0xfffff900
    5038:	5449425f 	strbpl	r4, [r9], #-607	; 0xfffffda1
    503c:	47455228 	strbmi	r5, [r5, -r8, lsr #4]
    5040:	5449422c 	strbpl	r4, [r9], #-556	; 0xfffffdd4
    5044:	28282029 	stmdacs	r8!, {r0, r3, r5, sp}
    5048:	3e474552 	mcrcc	5, 2, r4, cr7, cr2, {2}
    504c:	5449423e 	strbpl	r4, [r9], #-574	; 0xfffffdc2
    5050:	29312629 	ldmdbcs	r1!, {r0, r3, r5, r9, sl, sp}
    5054:	445f5f00 	ldrbmi	r5, [pc], #-3840	; 505c <_Min_Stack_Size+0x4c5c>
    5058:	445f4c42 	ldrbmi	r4, [pc], #-3138	; 5060 <_Min_Stack_Size+0x4c60>
    505c:	524f4e45 	subpl	r4, pc, #1104	; 0x450
    5060:	494d5f4d 	stmdbmi	sp, {r0, r2, r3, r6, r8, r9, sl, fp, ip, lr}^
    5064:	205f5f4e 	subscs	r5, pc, lr, asr #30
    5068:	6f642828 	svcvs	0x00642828
    506c:	656c6275 	strbvs	r6, [ip, #-629]!	; 0xfffffd8b
    5070:	392e3429 	stmdbcc	lr!, {r0, r3, r5, sl, ip, sp}
    5074:	35363034 	ldrcc	r3, [r6, #-52]!	; 0xffffffcc
    5078:	38353436 	ldmdacc	r5!, {r1, r2, r4, r5, sl, ip, sp}
    507c:	34323134 	ldrtcc	r3, [r2], #-308	; 0xfffffecc
    5080:	65343536 	ldrvs	r3, [r4, #-1334]!	; 0xfffffaca
    5084:	3432332d 	ldrtcc	r3, [r2], #-813	; 0xfffffcd3
    5088:	4500294c 	strmi	r2, [r0, #-2380]	; 0xfffff6b4
    508c:	5f495458 	svcpl	0x00495458
    5090:	54415453 	strbpl	r5, [r1], #-1107	; 0xfffffbad
    5094:	4e455f45 	cdpmi	15, 4, cr5, cr5, cr5, {2}
    5098:	454c4241 	strbmi	r4, [ip, #-577]	; 0xfffffdbf
    509c:	5f003120 	svcpl	0x00003120
    50a0:	4c4c555f 	cfstr64mi	mvdx5, [ip], {95}	; 0x5f
    50a4:	55434341 	strbpl	r4, [r3, #-833]	; 0xfffffcbf
    50a8:	494d5f4d 	stmdbmi	sp, {r0, r2, r3, r6, r8, r9, sl, fp, ip, lr}^
    50ac:	205f5f4e 	subscs	r5, pc, lr, asr #30
    50b0:	55302e30 	ldrpl	r2, [r0, #-3632]!	; 0xfffff1d0
    50b4:	004b4c4c 	subeq	r4, fp, ip, asr #24
    50b8:	4e495f5f 	mcrmi	15, 2, r5, cr9, cr15, {2}
    50bc:	41465f54 	cmpmi	r6, r4, asr pc
    50c0:	32335453 	eorscc	r5, r3, #1392508928	; 0x53000000
    50c4:	4449575f 	strbmi	r5, [r9], #-1887	; 0xfffff8a1
    50c8:	5f5f4854 	svcpl	0x005f4854
    50cc:	00323320 	eorseq	r3, r2, r0, lsr #6
    50d0:	4349564e 	movtmi	r5, #38478	; 0x964e
    50d4:	4543495f 	strbmi	r4, [r3, #-2399]	; 0xfffff6a1
    50d8:	2a203052 	bcs	811228 <_Min_Stack_Size+0x810e28>
    50dc:	69757628 	ldmdbvs	r5!, {r3, r5, r9, sl, ip, sp, lr}^
    50e0:	3233746e 	eorscc	r7, r3, #1845493760	; 0x6e000000
    50e4:	292a745f 	stmdbcs	sl!, {r0, r1, r2, r3, r4, r6, sl, ip, sp, lr}
    50e8:	49564e28 	ldmdbmi	r6, {r3, r5, r9, sl, fp, lr}^
    50ec:	41425f43 	cmpmi	r2, r3, asr #30
    50f0:	415f4553 	cmpmi	pc, r3, asr r5	; <UNPREDICTABLE>
    50f4:	52454444 	subpl	r4, r5, #68, 8	; 0x44000000
    50f8:	2b535345 	blcs	14d9e14 <_Min_Stack_Size+0x14d9a14>
    50fc:	38307830 	ldmdacc	r0!, {r4, r5, fp, ip, sp, lr}
    5100:	5f002930 	svcpl	0x00002930
    5104:	4e49555f 	mcrmi	5, 2, r5, cr9, cr15, {2}
    5108:	41465f54 	cmpmi	r6, r4, asr pc
    510c:	34365453 	ldrtcc	r5, [r6], #-1107	; 0xfffffbad
    5110:	5059545f 	subspl	r5, r9, pc, asr r4
    5114:	205f5f45 	subscs	r5, pc, r5, asr #30
    5118:	676e6f6c 	strbvs	r6, [lr, -ip, ror #30]!
    511c:	6e6f6c20 	cdpvs	12, 6, cr6, cr15, cr0, {1}
    5120:	6e752067 	cdpvs	0, 7, cr2, cr5, cr7, {3}
    5124:	6e676973 			; <UNDEFINED> instruction: 0x6e676973
    5128:	69206465 	stmdbvs	r0!, {r0, r2, r5, r6, sl, sp, lr}
    512c:	5f00746e 	svcpl	0x0000746e
    5130:	4d52415f 	ldfmie	f4, [r2, #-380]	; 0xfffffe84
    5134:	4d53415f 	ldfmie	f4, [r3, #-380]	; 0xfffffe84
    5138:	4e59535f 	mrcmi	3, 2, r5, cr9, cr15, {2}
    513c:	5f584154 	svcpl	0x00584154
    5140:	46494e55 			; <UNDEFINED> instruction: 0x46494e55
    5144:	5f444549 	svcpl	0x00444549
    5148:	0031205f 	eorseq	r2, r1, pc, asr r0
    514c:	49555f5f 	ldmdbmi	r5, {r0, r1, r2, r3, r4, r6, r8, r9, sl, fp, ip, lr}^
    5150:	3233544e 	eorscc	r5, r3, #1308622848	; 0x4e000000
    5154:	5059545f 	subspl	r5, r9, pc, asr r4
    5158:	205f5f45 	subscs	r5, pc, r5, asr #30
    515c:	676e6f6c 	strbvs	r6, [lr, -ip, ror #30]!
    5160:	736e7520 	cmnvc	lr, #32, 10	; 0x8000000
    5164:	656e6769 	strbvs	r6, [lr, #-1897]!	; 0xfffff897
    5168:	6e692064 	cdpvs	0, 6, cr2, cr9, cr4, {3}
    516c:	5f5f0074 	svcpl	0x005f0074
    5170:	5f4d5241 	svcpl	0x004d5241
    5174:	54414546 	strbpl	r4, [r1], #-1350	; 0xfffffaba
    5178:	5f455255 	svcpl	0x00455255
    517c:	50544f44 	subspl	r4, r4, r4, asr #30
    5180:	00444f52 	subeq	r4, r4, r2, asr pc
    5184:	68745f5f 	ldmdavs	r4!, {r0, r1, r2, r3, r4, r6, r8, r9, sl, fp, ip, lr}^
    5188:	32626d75 	rsbcc	r6, r2, #7488	; 0x1d40
    518c:	31205f5f 			; <UNDEFINED> instruction: 0x31205f5f
    5190:	475f5f00 	ldrbmi	r5, [pc, -r0, lsl #30]
    5194:	485f4343 	ldmdami	pc, {r0, r1, r6, r8, r9, lr}^	; <UNPREDICTABLE>
    5198:	5f455641 	svcpl	0x00455641
    519c:	434e5953 	movtmi	r5, #59731	; 0xe953
    51a0:	4d4f435f 	stclmi	3, cr4, [pc, #-380]	; 502c <_Min_Stack_Size+0x4c2c>
    51a4:	45524150 	ldrbmi	r4, [r2, #-336]	; 0xfffffeb0
    51a8:	444e415f 	strbmi	r4, [lr], #-351	; 0xfffffea1
    51ac:	4157535f 	cmpmi	r7, pc, asr r3
    51b0:	20325f50 	eorscs	r5, r2, r0, asr pc
    51b4:	58450031 	stmdapl	r5, {r0, r4, r5}^
    51b8:	35314954 	ldrcc	r4, [r1, #-2388]!	; 0xfffff6ac
    51bc:	5f30315f 	svcpl	0x0030315f
    51c0:	48515249 	ldmdami	r1, {r0, r3, r6, r9, ip, lr}^
    51c4:	6c646e61 	stclvs	14, cr6, [r4], #-388	; 0xfffffe7c
    51c8:	5f007265 	svcpl	0x00007265
    51cc:	4e49575f 	mcrmi	7, 2, r5, cr9, cr15, {2}
    51d0:	49575f54 	ldmdbmi	r7, {r2, r4, r6, r8, r9, sl, fp, ip, lr}^
    51d4:	5f485444 	svcpl	0x00485444
    51d8:	3233205f 	eorscc	r2, r3, #95	; 0x5f
    51dc:	555f5f00 	ldrbpl	r5, [pc, #-3840]	; 42e4 <_Min_Stack_Size+0x3ee4>
    51e0:	52464c4c 	subpl	r4, r6, #76, 24	; 0x4c00
    51e4:	5f544341 	svcpl	0x00544341
    51e8:	5f4e494d 	svcpl	0x004e494d
    51ec:	2e30205f 	mrccs	0, 1, r2, cr0, cr15, {2}
    51f0:	4c4c5530 	cfstr64mi	mvdx5, [ip], {48}	; 0x30
    51f4:	50470052 	subpl	r0, r7, r2, asr r0
    51f8:	505f4f49 	subspl	r4, pc, r9, asr #30
    51fc:	4d5f4e49 	ldclmi	14, cr4, [pc, #-292]	; 50e0 <_Min_Stack_Size+0x4ce0>
    5200:	5f45444f 	svcpl	0x0045444f
    5204:	45544c41 	ldrbmi	r4, [r4, #-3137]	; 0xfffff3bf
    5208:	54414e52 	strbpl	r4, [r1], #-3666	; 0xfffff1ae
    520c:	55505f45 	ldrbpl	r5, [r0, #-3909]	; 0xfffff0bb
    5210:	505f4853 	subspl	r4, pc, r3, asr r8	; <UNPREDICTABLE>
    5214:	5f4c4c55 	svcpl	0x004c4c55
    5218:	484d5f32 	stmdami	sp, {r1, r4, r5, r8, r9, sl, fp, ip, lr}^
    521c:	6230205a 	eorsvs	r2, r0, #90	; 0x5a
    5220:	30313031 	eorscc	r3, r1, r1, lsr r0
    5224:	535f5f00 	cmppl	pc, #0, 30
    5228:	4f455a49 	svcmi	0x00455a49
    522c:	4e495f46 	cdpmi	15, 4, cr5, cr9, cr6, {2}
    5230:	205f5f54 	subscs	r5, pc, r4, asr pc	; <UNPREDICTABLE>
    5234:	5f5f0034 	svcpl	0x005f0034
    5238:	52464c4c 	subpl	r4, r6, #76, 24	; 0x4c00
    523c:	5f544341 	svcpl	0x00544341
    5240:	54494249 	strbpl	r4, [r9], #-585	; 0xfffffdb7
    5244:	30205f5f 	eorcc	r5, r0, pc, asr pc
    5248:	54584500 	ldrbpl	r4, [r8], #-1280	; 0xfffffb00
    524c:	49505f49 	ldmdbmi	r0, {r0, r3, r6, r8, r9, sl, fp, ip, lr}^
    5250:	494c5f4e 	stmdbmi	ip, {r1, r2, r3, r6, r8, r9, sl, fp, ip, lr}^
    5254:	5032454e 	eorspl	r4, r2, lr, asr #10
    5258:	28203242 	stmdacs	r0!, {r1, r6, r9, ip, sp}
    525c:	49545845 	ldmdbmi	r4, {r0, r2, r6, fp, ip, lr}^
    5260:	7465535f 	strbtvc	r5, [r5], #-863	; 0xfffffca1
    5264:	745f7075 	ldrbvc	r7, [pc], #-117	; 526c <_Min_Stack_Size+0x4e6c>
    5268:	58457b29 	stmdapl	r5, {r0, r3, r5, r8, r9, fp, ip, sp, lr}^
    526c:	2c324954 			; <UNDEFINED> instruction: 0x2c324954
    5270:	4f495047 	svcmi	0x00495047
    5274:	50472c42 	subpl	r2, r7, r2, asr #24
    5278:	505f4f49 	subspl	r4, pc, r9, asr #30
    527c:	325f4e49 	subscc	r4, pc, #1168	; 0x490
    5280:	5253007d 	subspl	r0, r3, #125	; 0x7d
    5284:	425f4d41 	subsmi	r4, pc, #4160	; 0x1040
    5288:	5f455341 	svcpl	0x00455341
    528c:	20444441 	subcs	r4, r4, r1, asr #8
    5290:	30327830 	eorscc	r7, r2, r0, lsr r8
    5294:	30303030 	eorscc	r3, r0, r0, lsr r0
    5298:	4c553030 	mrrcmi	0, 3, r3, r5, cr0
    529c:	49504700 	ldmdbmi	r0, {r8, r9, sl, lr}^
    52a0:	49505f4f 	ldmdbmi	r0, {r0, r1, r2, r3, r6, r8, r9, sl, fp, ip, lr}^
    52a4:	20355f4e 	eorscs	r5, r5, lr, asr #30
    52a8:	69752828 	ldmdbvs	r5!, {r3, r5, fp, sp}^
    52ac:	5f38746e 	svcpl	0x0038746e
    52b0:	29352974 	ldmdbcs	r5!, {r2, r4, r5, r6, r8, fp, sp}
    52b4:	535f5f00 	cmppl	pc, #0, 30
    52b8:	55434341 	strbpl	r4, [r3, #-833]	; 0xfffffcbf
    52bc:	50455f4d 	subpl	r5, r5, sp, asr #30
    52c0:	4f4c4953 	svcmi	0x004c4953
    52c4:	205f5f4e 	subscs	r5, pc, lr, asr #30
    52c8:	50317830 	eorspl	r7, r1, r0, lsr r8
    52cc:	4b48372d 	blmi	1212f88 <_Min_Stack_Size+0x1212b88>
    52d0:	475f5f00 	ldrbmi	r5, [pc, -r0, lsl #30]
    52d4:	415f4343 	cmpmi	pc, r3, asr #6
    52d8:	465f4d53 			; <UNDEFINED> instruction: 0x465f4d53
    52dc:	5f47414c 	svcpl	0x0047414c
    52e0:	5054554f 	subspl	r5, r4, pc, asr #10
    52e4:	5f535455 	svcpl	0x00535455
    52e8:	0031205f 	eorseq	r2, r1, pc, asr r0
    52ec:	4f495047 	svcmi	0x00495047
    52f0:	524f505f 	subpl	r5, pc, #95	; 0x5f
    52f4:	4f4d5f54 	svcmi	0x004d5f54
    52f8:	415f4544 	cmpmi	pc, r4, asr #10
    52fc:	5245544c 	subpl	r5, r5, #76, 8	; 0x4c000000
    5300:	4554414e 	ldrbmi	r4, [r4, #-334]	; 0xfffffeb2
    5304:	45504f5f 	ldrbmi	r4, [r0, #-3935]	; 0xfffff0a1
    5308:	52445f4e 	subpl	r5, r4, #312	; 0x138
    530c:	5f4e4941 	svcpl	0x004e4941
    5310:	484d5f32 	stmdami	sp, {r1, r4, r5, r8, r9, sl, fp, ip, lr}^
    5314:	7830205a 	ldmdavc	r0!, {r1, r3, r4, r6, sp}
    5318:	45454545 	strbmi	r4, [r5, #-1349]	; 0xfffffabb
    531c:	45454545 	strbmi	r4, [r5, #-1349]	; 0xfffffabb
    5320:	535f5f00 	cmppl	pc, #0, 30
    5324:	4f455a49 	svcmi	0x00455a49
    5328:	43575f46 	cmpmi	r7, #280	; 0x118
    532c:	5f524148 	svcpl	0x00524148
    5330:	205f5f54 	subscs	r5, pc, r4, asr pc	; <UNPREDICTABLE>
    5334:	5f5f0034 	svcpl	0x005f0034
    5338:	43434155 	movtmi	r4, #12629	; 0x3155
    533c:	465f4d55 			; <UNDEFINED> instruction: 0x465f4d55
    5340:	5f544942 	svcpl	0x00544942
    5344:	3631205f 			; <UNDEFINED> instruction: 0x3631205f
    5348:	43435200 	movtmi	r5, #12800	; 0x3200
    534c:	4d49545f 	cfstrdmi	mvd5, [r9, #-380]	; 0xfffffe84
    5350:	4e455f33 	mcrmi	15, 2, r5, cr5, cr3, {1}
    5354:	52202928 	eorpl	r2, r0, #40, 18	; 0xa0000
    5358:	3e2d4343 	cdpcc	3, 2, cr4, cr13, cr3, {2}
    535c:	31425041 	cmpcc	r2, r1, asr #32
    5360:	20524e45 	subscs	r4, r2, r5, asr #28
    5364:	28203d7c 	stmdacs	r0!, {r2, r3, r4, r5, r6, r8, sl, fp, ip, sp}
    5368:	313c3c31 	teqcc	ip, r1, lsr ip
    536c:	564e0029 	strbpl	r0, [lr], -r9, lsr #32
    5370:	495f4349 	ldmdbmi	pc, {r0, r3, r6, r8, r9, lr}^	; <UNPREDICTABLE>
    5374:	30315152 	eorscc	r5, r1, r2, asr r1
    5378:	5458455f 	ldrbpl	r4, [r8], #-1375	; 0xfffffaa1
    537c:	445f3449 	ldrbmi	r3, [pc], #-1097	; 5384 <_Min_Stack_Size+0x4f84>
    5380:	42415349 	submi	r5, r1, #603979777	; 0x24000001
    5384:	4e20454c 	cfsh64mi	mvdx4, mvdx0, #44
    5388:	5f434956 	svcpl	0x00434956
    538c:	52454349 	subpl	r4, r5, #603979777	; 0x24000001
    5390:	3d7c2030 	ldclcc	0, cr2, [ip, #-192]!	; 0xffffff40
    5394:	3c312820 	ldccc	8, cr2, [r1], #-128	; 0xffffff80
    5398:	2930313c 	ldmdbcs	r0!, {r2, r3, r4, r5, r8, ip, sp}
    539c:	5f5f003b 	svcpl	0x005f003b
    53a0:	544e4955 	strbpl	r4, [lr], #-2389	; 0xfffff6ab
    53a4:	5341465f 	movtpl	r4, #5727	; 0x165f
    53a8:	5f363154 	svcpl	0x00363154
    53ac:	45505954 	ldrbmi	r5, [r0, #-2388]	; 0xfffff6ac
    53b0:	75205f5f 	strvc	r5, [r0, #-3935]!	; 0xfffff0a1
    53b4:	6769736e 	strbvs	r7, [r9, -lr, ror #6]!
    53b8:	2064656e 	rsbcs	r6, r4, lr, ror #10
    53bc:	00746e69 	rsbseq	r6, r4, r9, ror #28
    53c0:	48555f5f 	ldmdami	r5, {r0, r1, r2, r3, r4, r6, r8, r9, sl, fp, ip, lr}^
    53c4:	42495f41 	submi	r5, r9, #260	; 0x104
    53c8:	5f5f5449 	svcpl	0x005f5449
    53cc:	47003820 	strmi	r3, [r0, -r0, lsr #16]
    53d0:	5f4f4950 	svcpl	0x004f4950
    53d4:	54524f50 	ldrbpl	r4, [r2], #-3920	; 0xfffff0b0
    53d8:	444f4d5f 	strbmi	r4, [pc], #-3423	; 53e0 <_Min_Stack_Size+0x4fe0>
    53dc:	4e495f45 	cdpmi	15, 4, cr5, cr9, cr5, {2}
    53e0:	5f545550 	svcpl	0x00545550
    53e4:	4c4c5550 	cfstr64mi	mvdx5, [ip], {80}	; 0x50
    53e8:	574f445f 	smlsldpl	r4, pc, pc, r4	; <UNPREDICTABLE>
    53ec:	7830204e 	ldmdavc	r0!, {r1, r2, r3, r6, sp}
    53f0:	38383838 	ldmdacc	r8!, {r3, r4, r5, fp, ip, sp}
    53f4:	38383838 	ldmdacc	r8!, {r3, r4, r5, fp, ip, sp}
    53f8:	415f5f00 	cmpmi	pc, r0, lsl #30
    53fc:	4d554343 	ldclmi	3, cr4, [r5, #-268]	; 0xfffffef4
    5400:	5350455f 	cmppl	r0, #398458880	; 0x17c00000
    5404:	4e4f4c49 	cdpmi	12, 4, cr4, cr15, cr9, {2}
    5408:	30205f5f 	eorcc	r5, r0, pc, asr pc
    540c:	2d503178 	ldfcse	f3, [r0, #-480]	; 0xfffffe20
    5410:	004b3531 	subeq	r3, fp, r1, lsr r5
    5414:	4c555f5f 	mrrcmi	15, 5, r5, r5, cr15	; <UNPREDICTABLE>
    5418:	55434341 	strbpl	r4, [r3, #-833]	; 0xfffffcbf
    541c:	50455f4d 	subpl	r5, r5, sp, asr #30
    5420:	4f4c4953 	svcmi	0x004c4953
    5424:	205f5f4e 	subscs	r5, pc, lr, asr #30
    5428:	50317830 	eorspl	r7, r1, r0, lsr r8
    542c:	5532332d 	ldrpl	r3, [r2, #-813]!	; 0xfffffcd3
    5430:	5f004b4c 	svcpl	0x00004b4c
    5434:	42444c5f 	submi	r4, r4, #24320	; 0x5f00
    5438:	49445f4c 	stmdbmi	r4, {r2, r3, r6, r8, r9, sl, fp, ip, lr}^
    543c:	205f5f47 	subscs	r5, pc, r7, asr #30
    5440:	5f003531 	svcpl	0x00003531
    5444:	5a49535f 	bpl	125a1c8 <_Min_Stack_Size+0x1259dc8>
    5448:	49575f45 	ldmdbmi	r7, {r0, r2, r6, r8, r9, sl, fp, ip, lr}^
    544c:	5f485444 	svcpl	0x00485444
    5450:	3233205f 	eorscc	r2, r3, #95	; 0x5f
    5454:	54584500 	ldrbpl	r4, [r8], #-1280	; 0xfffffb00
    5458:	49505f49 	ldmdbmi	r0, {r0, r3, r6, r8, r9, sl, fp, ip, lr}^
    545c:	494c5f4e 	stmdbmi	ip, {r1, r2, r3, r6, r8, r9, sl, fp, ip, lr}^
    5460:	5031454e 	eorspl	r4, r1, lr, asr #10
    5464:	28203143 	stmdacs	r0!, {r0, r1, r6, r8, ip, sp}
    5468:	49545845 	ldmdbmi	r4, {r0, r2, r6, fp, ip, lr}^
    546c:	7465535f 	strbtvc	r5, [r5], #-863	; 0xfffffca1
    5470:	745f7075 	ldrbvc	r7, [pc], #-117	; 5478 <_Min_Stack_Size+0x5078>
    5474:	58457b29 	stmdapl	r5, {r0, r3, r5, r8, r9, fp, ip, sp, lr}^
    5478:	2c314954 			; <UNDEFINED> instruction: 0x2c314954
    547c:	4f495047 	svcmi	0x00495047
    5480:	50472c43 	subpl	r2, r7, r3, asr #24
    5484:	505f4f49 	subspl	r4, pc, r9, asr #30
    5488:	315f4e49 	cmpcc	pc, r9, asr #28
    548c:	4352007d 	cmpmi	r2, #125	; 0x7d
    5490:	44415f43 	strbmi	r5, [r1], #-3907	; 0xfffff0bd
    5494:	455f3143 	ldrbmi	r3, [pc, #-323]	; 5359 <_Min_Stack_Size+0x4f59>
    5498:	2029284e 	eorcs	r2, r9, lr, asr #16
    549c:	2d434352 	stclcs	3, cr4, [r3, #-328]	; 0xfffffeb8
    54a0:	4250413e 	subsmi	r4, r0, #-2147483633	; 0x8000000f
    54a4:	524e4532 	subpl	r4, lr, #209715200	; 0xc800000
    54a8:	203d7c20 	eorscs	r7, sp, r0, lsr #24
    54ac:	3c3c3128 	ldfccs	f3, [ip], #-160	; 0xffffff60
    54b0:	5f002939 	svcpl	0x00002939
    54b4:	544c465f 	strbpl	r4, [ip], #-1631	; 0xfffff9a1
    54b8:	445f3436 	ldrbmi	r3, [pc], #-1078	; 54c0 <_Min_Stack_Size+0x50c0>
    54bc:	5f5f4749 	svcpl	0x005f4749
    54c0:	00353120 	eorseq	r3, r5, r0, lsr #2
    54c4:	49545845 	ldmdbmi	r4, {r0, r2, r6, fp, ip, lr}^
    54c8:	4952545f 	ldmdbmi	r2, {r0, r1, r2, r3, r4, r6, sl, ip, lr}^
    54cc:	52454747 	subpl	r4, r5, #18612224	; 0x11c0000
    54d0:	5349525f 	movtpl	r5, #37471	; 0x925f
    54d4:	5f474e49 	svcpl	0x00474e49
    54d8:	5f444e41 	svcpl	0x00444e41
    54dc:	4c4c4146 	stfmie	f4, [ip], {70}	; 0x46
    54e0:	20474e49 	subcs	r4, r7, r9, asr #28
    54e4:	5f5f0032 	svcpl	0x005f0032
    54e8:	544e4957 	strbpl	r4, [lr], #-2391	; 0xfffff6a9
    54ec:	58414d5f 	stmdapl	r1, {r0, r1, r2, r3, r4, r6, r8, sl, fp, lr}^
    54f0:	30205f5f 	eorcc	r5, r0, pc, asr pc
    54f4:	66666678 			; <UNDEFINED> instruction: 0x66666678
    54f8:	66666666 	strbtvs	r6, [r6], -r6, ror #12
    54fc:	5f005566 	svcpl	0x00005566
    5500:	544e495f 	strbpl	r4, [lr], #-2399	; 0xfffff6a1
    5504:	41454c5f 	cmpmi	r5, pc, asr ip
    5508:	5f385453 	svcpl	0x00385453
    550c:	54444957 	strbpl	r4, [r4], #-2391	; 0xfffff6a9
    5510:	205f5f48 	subscs	r5, pc, r8, asr #30
    5514:	53550038 	cmppl	r5, #56	; 0x38
    5518:	32545241 	subscc	r5, r4, #268435460	; 0x10000004
    551c:	5341425f 	movtpl	r4, #4703	; 0x125f
    5520:	44415f45 	strbmi	r5, [r1], #-3909	; 0xfffff0bb
    5524:	45524544 	ldrbmi	r4, [r2, #-1348]	; 0xfffffabc
    5528:	30205353 	eorcc	r5, r0, r3, asr r3
    552c:	30303478 	eorscc	r3, r0, r8, ror r4
    5530:	30343431 	eorscc	r3, r4, r1, lsr r4
    5534:	004c5530 	subeq	r5, ip, r0, lsr r5
    5538:	4e495f5f 	mcrmi	15, 2, r5, cr9, cr15, {2}
    553c:	454c5f54 	strbmi	r5, [ip, #-3924]	; 0xfffff0ac
    5540:	31545341 	cmpcc	r4, r1, asr #6
    5544:	59545f36 	ldmdbpl	r4, {r1, r2, r4, r5, r8, r9, sl, fp, ip, lr}^
    5548:	5f5f4550 	svcpl	0x005f4550
    554c:	6f687320 	svcvs	0x00687320
    5550:	69207472 	stmdbvs	r0!, {r1, r4, r5, r6, sl, ip, sp, lr}
    5554:	4e00746e 	cdpmi	4, 0, cr7, cr0, cr14, {3}
    5558:	5f434956 	svcpl	0x00434956
    555c:	31515249 	cmpcc	r1, r9, asr #4
    5560:	58455f30 	stmdapl	r5, {r4, r5, r8, r9, sl, fp, ip, lr}^
    5564:	5f344954 	svcpl	0x00344954
    5568:	42414e45 	submi	r4, r1, #1104	; 0x450
    556c:	4e20454c 	cfsh64mi	mvdx4, mvdx0, #44
    5570:	5f434956 	svcpl	0x00434956
    5574:	52455349 	subpl	r5, r5, #603979777	; 0x24000001
    5578:	3d7c2030 	ldclcc	0, cr2, [ip, #-192]!	; 0xffffff40
    557c:	3c312820 	ldccc	8, cr2, [r1], #-128	; 0xffffff80
    5580:	2930313c 	ldmdbcs	r0!, {r2, r3, r4, r5, r8, ip, sp}
    5584:	5f5f003b 	svcpl	0x005f003b
    5588:	465f5151 			; <UNDEFINED> instruction: 0x465f5151
    558c:	5f544942 	svcpl	0x00544942
    5590:	0037205f 	eorseq	r2, r7, pc, asr r0
    5594:	42445f5f 	submi	r5, r4, #380	; 0x17c
    5598:	414d5f4c 	cmpmi	sp, ip, asr #30
    559c:	205f5f58 	subscs	r5, pc, r8, asr pc	; <UNPREDICTABLE>
    55a0:	6f642828 	svcvs	0x00642828
    55a4:	656c6275 	strbvs	r6, [ip, #-629]!	; 0xfffffd8b
    55a8:	372e3129 	strcc	r3, [lr, -r9, lsr #2]!
    55ac:	39363739 	ldmdbcc	r6!, {r0, r3, r4, r5, r8, r9, sl, ip, sp}
    55b0:	34333133 	ldrtcc	r3, [r3], #-307	; 0xfffffecd
    55b4:	33323638 	teqcc	r2, #56, 12	; 0x3800000
    55b8:	65373531 	ldrvs	r3, [r7, #-1329]!	; 0xfffffacf
    55bc:	3830332b 	ldmdacc	r0!, {r0, r1, r3, r5, r8, r9, ip, sp}
    55c0:	5f00294c 	svcpl	0x0000294c
    55c4:	464c4c5f 			; <UNDEFINED> instruction: 0x464c4c5f
    55c8:	54434152 	strbpl	r4, [r3], #-338	; 0xfffffeae
    55cc:	4942465f 	stmdbmi	r2, {r0, r1, r2, r3, r4, r6, r9, sl, lr}^
    55d0:	205f5f54 	subscs	r5, pc, r4, asr pc	; <UNPREDICTABLE>
    55d4:	5f003336 	svcpl	0x00003336
    55d8:	544c465f 	strbpl	r4, [ip], #-1631	; 0xfffff9a1
    55dc:	485f3233 	ldmdami	pc, {r0, r1, r4, r5, r9, ip, sp}^	; <UNPREDICTABLE>
    55e0:	495f5341 	ldmdbmi	pc, {r0, r6, r8, r9, ip, lr}^	; <UNPREDICTABLE>
    55e4:	4e49464e 	cdpmi	6, 4, cr4, cr9, cr14, {2}
    55e8:	5f595449 	svcpl	0x00595449
    55ec:	0031205f 	eorseq	r2, r1, pc, asr r0
    55f0:	4f495047 	svcmi	0x00495047
    55f4:	4e49505f 	mcrmi	0, 2, r5, cr9, cr15, {2}
    55f8:	444f4d5f 	strbmi	r4, [pc], #-3423	; 5600 <_Min_Stack_Size+0x5200>
    55fc:	554f5f45 	strbpl	r5, [pc, #-3909]	; 46bf <_Min_Stack_Size+0x42bf>
    5600:	54555054 	ldrbpl	r5, [r5], #-84	; 0xffffffac
    5604:	5355505f 	cmppl	r5, #95	; 0x5f
    5608:	55505f48 	ldrbpl	r5, [r0, #-3912]	; 0xfffff0b8
    560c:	355f4c4c 	ldrbcc	r4, [pc, #-3148]	; 49c8 <_Min_Stack_Size+0x45c8>
    5610:	484d5f30 	stmdami	sp, {r4, r5, r8, r9, sl, fp, ip, lr}^
    5614:	6230205a 	eorsvs	r2, r0, #90	; 0x5a
    5618:	31313030 	teqcc	r1, r0, lsr r0
    561c:	745f5f00 	ldrbvc	r5, [pc], #-3840	; 5624 <_Min_Stack_Size+0x5224>
    5620:	626d7568 	rsbvs	r7, sp, #104, 10	; 0x1a000000
    5624:	31205f5f 			; <UNDEFINED> instruction: 0x31205f5f
    5628:	415f5f00 	cmpmi	pc, r0, lsl #30
    562c:	4c454d52 	mcrrmi	13, 5, r4, r5, cr2
    5630:	31205f5f 			; <UNDEFINED> instruction: 0x31205f5f
    5634:	49504700 	ldmdbmi	r0, {r8, r9, sl, lr}^
    5638:	4f505f4f 	svcmi	0x00505f4f
    563c:	4d5f5452 	cfldrdmi	mvd5, [pc, #-328]	; 54fc <_Min_Stack_Size+0x50fc>
    5640:	5f45444f 	svcpl	0x0045444f
    5644:	45544c41 	ldrbmi	r4, [r4, #-3137]	; 0xfffff3bf
    5648:	54414e52 	strbpl	r4, [r1], #-3666	; 0xfffff1ae
    564c:	4e495f45 	cdpmi	15, 4, cr5, cr9, cr5, {2}
    5650:	20545550 	subscs	r5, r4, r0, asr r5
    5654:	34347830 	ldrtcc	r7, [r4], #-2096	; 0xfffff7d0
    5658:	34343434 	ldrtcc	r3, [r4], #-1076	; 0xfffffbcc
    565c:	5f003434 	svcpl	0x00003434
    5660:	5f51485f 	svcpl	0x0051485f
    5664:	54494246 	strbpl	r4, [r9], #-582	; 0xfffffdba
    5668:	31205f5f 			; <UNDEFINED> instruction: 0x31205f5f
    566c:	43520035 	cmpmi	r2, #53	; 0x35
    5670:	41555f43 	cmpmi	r5, r3, asr #30
    5674:	5f355452 	svcpl	0x00355452
    5678:	29284e45 	stmdbcs	r8!, {r0, r2, r6, r9, sl, fp, lr}
    567c:	43435220 	movtmi	r5, #12832	; 0x3220
    5680:	50413e2d 	subpl	r3, r1, sp, lsr #28
    5684:	4e453142 	dvfmism	f3, f5, f2
    5688:	3d7c2052 	ldclcc	0, cr2, [ip, #-328]!	; 0xfffffeb8
    568c:	3c312820 	ldccc	8, cr2, [r1], #-128	; 0xffffff80
    5690:	2930323c 	ldmdbcs	r0!, {r2, r3, r4, r5, r9, ip, sp}
    5694:	535f5f00 	cmppl	pc, #0, 30
    5698:	5f455a49 	svcpl	0x00455a49
    569c:	5f58414d 	svcpl	0x0058414d
    56a0:	7830205f 	ldmdavc	r0!, {r0, r1, r2, r3, r4, r6, sp}
    56a4:	66666666 	strbtvs	r6, [r6], -r6, ror #12
    56a8:	66666666 	strbtvs	r6, [r6], -r6, ror #12
    56ac:	5f5f0055 	svcpl	0x005f0055
    56b0:	5f4d5241 	svcpl	0x004d5241
    56b4:	48435241 	stmdami	r3, {r0, r6, r9, ip, lr}^
    56b8:	4c5f5f00 	mrrcmi	15, 0, r5, pc, cr0	; <UNPREDICTABLE>
    56bc:	5f474e4f 	svcpl	0x00474e4f
    56c0:	5f58414d 	svcpl	0x0058414d
    56c4:	7830205f 	ldmdavc	r0!, {r0, r1, r2, r3, r4, r6, sp}
    56c8:	66666637 			; <UNDEFINED> instruction: 0x66666637
    56cc:	66666666 	strbtvs	r6, [r6], -r6, ror #12
    56d0:	5845004c 	stmdapl	r5, {r2, r3, r6}^
    56d4:	745f4954 	ldrbvc	r4, [pc], #-2388	; 56dc <_Min_Stack_Size+0x52dc>
    56d8:	54584500 	ldrbpl	r4, [r8], #-1280	; 0xfffffb00
    56dc:	33203349 			; <UNDEFINED> instruction: 0x33203349
    56e0:	49504700 	ldmdbmi	r0, {r8, r9, sl, lr}^
    56e4:	4f505f4f 	svcmi	0x00505f4f
    56e8:	4d5f5452 	cfldrdmi	mvd5, [pc, #-328]	; 55a8 <_Min_Stack_Size+0x51a8>
    56ec:	5f45444f 	svcpl	0x0045444f
    56f0:	5054554f 	subspl	r5, r4, pc, asr #10
    56f4:	505f5455 	subspl	r5, pc, r5, asr r4	; <UNPREDICTABLE>
    56f8:	5f485355 	svcpl	0x00485355
    56fc:	4c4c5550 	cfstr64mi	mvdx5, [ip], {80}	; 0x50
    5700:	5f30315f 	svcpl	0x0030315f
    5704:	205a484d 	subscs	r4, sl, sp, asr #16
    5708:	31317830 	teqcc	r1, r0, lsr r8
    570c:	31313131 	teqcc	r1, r1, lsr r1
    5710:	52003131 	andpl	r3, r0, #1073741836	; 0x4000000c
    5714:	435f4343 	cmpmi	pc, #201326593	; 0xc000001
    5718:	455f4e41 	ldrbmi	r4, [pc, #-3649]	; 48df <_Min_Stack_Size+0x44df>
    571c:	2029284e 	eorcs	r2, r9, lr, asr #16
    5720:	2d434352 	stclcs	3, cr4, [r3, #-328]	; 0xfffffeb8
    5724:	4250413e 	subsmi	r4, r0, #-2147483633	; 0x8000000f
    5728:	524e4531 	subpl	r4, lr, #205520896	; 0xc400000
    572c:	203d7c20 	eorscs	r7, sp, r0, lsr #24
    5730:	3c3c3128 	ldfccs	f3, [ip], #-160	; 0xffffff60
    5734:	00293532 	eoreq	r3, r9, r2, lsr r5
    5738:	52415f5f 	subpl	r5, r1, #380	; 0x17c
    573c:	45465f4d 	strbmi	r5, [r6, #-3917]	; 0xfffff0b3
    5740:	52555441 	subspl	r5, r5, #1090519040	; 0x41000000
    5744:	444c5f45 	strbmi	r5, [ip], #-3909	; 0xfffff0bb
    5748:	20584552 	subscs	r4, r8, r2, asr r5
    574c:	5f5f0037 	svcpl	0x005f0037
    5750:	455a4953 	ldrbmi	r4, [sl, #-2387]	; 0xfffff6ad
    5754:	4c5f464f 	mrrcmi	6, 4, r4, pc, cr15	; <UNPREDICTABLE>
    5758:	5f474e4f 	svcpl	0x00474e4f
    575c:	42554f44 	subsmi	r4, r5, #68, 30	; 0x110
    5760:	5f5f454c 	svcpl	0x005f454c
    5764:	5f003820 	svcpl	0x00003820
    5768:	464c4c5f 			; <UNDEFINED> instruction: 0x464c4c5f
    576c:	54434152 	strbpl	r4, [r3], #-338	; 0xfffffeae
    5770:	5350455f 	cmppl	r0, #398458880	; 0x17c00000
    5774:	4e4f4c49 	cdpmi	12, 4, cr4, cr15, cr9, {2}
    5778:	30205f5f 	eorcc	r5, r0, pc, asr pc
    577c:	2d503178 	ldfcse	f3, [r0, #-480]	; 0xfffffe20
    5780:	4c4c3336 	mcrrmi	3, 3, r3, ip, cr6
    5784:	5f5f0052 	svcpl	0x005f0052
    5788:	5f4d5241 	svcpl	0x004d5241
    578c:	54414546 	strbpl	r4, [r1], #-1350	; 0xfffffaba
    5790:	5f455255 	svcpl	0x00455255
    5794:	444d4953 	strbmi	r4, [sp], #-2387	; 0xfffff6ad
    5798:	5f003233 	svcpl	0x00003233
    579c:	544c465f 	strbpl	r4, [ip], #-1631	; 0xfffff9a1
    57a0:	5f583233 	svcpl	0x00583233
    57a4:	544e414d 	strbpl	r4, [lr], #-333	; 0xfffffeb3
    57a8:	4749445f 	smlsldmi	r4, r9, pc, r4	; <UNPREDICTABLE>
    57ac:	35205f5f 	strcc	r5, [r0, #-3935]!	; 0xfffff0a1
    57b0:	58450033 	stmdapl	r5, {r0, r1, r4, r5}^
    57b4:	20384954 	eorscs	r4, r8, r4, asr r9
    57b8:	5f5f0038 	svcpl	0x005f0038
    57bc:	41484357 	cmpmi	r8, r7, asr r3
    57c0:	49575f52 	ldmdbmi	r7, {r1, r4, r6, r8, r9, sl, fp, ip, lr}^
    57c4:	5f485444 	svcpl	0x00485444
    57c8:	3233205f 	eorscc	r2, r3, #95	; 0x5f
    57cc:	54584500 	ldrbpl	r4, [r8], #-1280	; 0xfffffb00
    57d0:	49505f49 	ldmdbmi	r0, {r0, r3, r6, r8, r9, sl, fp, ip, lr}^
    57d4:	494c5f4e 	stmdbmi	ip, {r1, r2, r3, r6, r8, r9, sl, fp, ip, lr}^
    57d8:	5030454e 	eorspl	r4, r0, lr, asr #10
    57dc:	28203042 	stmdacs	r0!, {r1, r6, ip, sp}
    57e0:	49545845 	ldmdbmi	r4, {r0, r2, r6, fp, ip, lr}^
    57e4:	7465535f 	strbtvc	r5, [r5], #-863	; 0xfffffca1
    57e8:	745f7075 	ldrbvc	r7, [pc], #-117	; 57f0 <_Min_Stack_Size+0x53f0>
    57ec:	58457b29 	stmdapl	r5, {r0, r3, r5, r8, r9, fp, ip, sp, lr}^
    57f0:	2c304954 			; <UNDEFINED> instruction: 0x2c304954
    57f4:	4f495047 	svcmi	0x00495047
    57f8:	50472c42 	subpl	r2, r7, r2, asr #24
    57fc:	505f4f49 	subspl	r4, pc, r9, asr #30
    5800:	305f4e49 	subscc	r4, pc, r9, asr #28
    5804:	5f5f007d 	svcpl	0x005f007d
    5808:	31544e49 	cmpcc	r4, r9, asr #28
    580c:	28435f36 	stmdacs	r3, {r1, r2, r4, r5, r8, r9, sl, fp, ip, lr}^
    5810:	63202963 			; <UNDEFINED> instruction: 0x63202963
    5814:	43435200 	movtmi	r5, #12800	; 0x3200
    5818:	4152535f 	cmpmi	r2, pc, asr r3
    581c:	4e455f4d 	cdpmi	15, 4, cr5, cr5, cr13, {2}
    5820:	52202928 	eorpl	r2, r0, #40, 18	; 0xa0000
    5824:	3e2d4343 	cdpcc	3, 2, cr4, cr13, cr3, {2}
    5828:	45424841 	strbmi	r4, [r2, #-2113]	; 0xfffff7bf
    582c:	7c20524e 	sfmvc	f5, 4, [r0], #-312	; 0xfffffec8
    5830:	3128203d 			; <UNDEFINED> instruction: 0x3128203d
    5834:	29323c3c 	ldmdbcs	r2!, {r2, r3, r4, r5, sl, fp, ip, sp}
    5838:	49504700 	ldmdbmi	r0, {r8, r9, sl, lr}^
    583c:	4f505f4f 	svcmi	0x00505f4f
    5840:	4d5f5452 	cfldrdmi	mvd5, [pc, #-328]	; 5700 <_Min_Stack_Size+0x5300>
    5844:	5f45444f 	svcpl	0x0045444f
    5848:	5054554f 	subspl	r5, r4, pc, asr #10
    584c:	4f5f5455 	svcmi	0x005f5455
    5850:	5f4e4550 	svcpl	0x004e4550
    5854:	49415244 	stmdbmi	r1, {r2, r6, r9, ip, lr}^
    5858:	30355f4e 	eorscc	r5, r5, lr, asr #30
    585c:	5a484d5f 	bpl	1218de0 <_Min_Stack_Size+0x12189e0>
    5860:	37783020 	ldrbcc	r3, [r8, -r0, lsr #32]!
    5864:	37373737 			; <UNDEFINED> instruction: 0x37373737
    5868:	00373737 	eorseq	r3, r7, r7, lsr r7
    586c:	41445f5f 	cmpmi	r4, pc, asr pc
    5870:	4942495f 	stmdbmi	r2, {r0, r1, r2, r3, r4, r6, r8, fp, lr}^
    5874:	205f5f54 	subscs	r5, pc, r4, asr pc	; <UNPREDICTABLE>
    5878:	45003233 	strmi	r3, [r0, #-563]	; 0xfffffdcd
    587c:	31495458 	cmpcc	r9, r8, asr r4
    5880:	5152495f 	cmppl	r2, pc, asr r9
    5884:	646e6148 	strbtvs	r6, [lr], #-328	; 0xfffffeb8
    5888:	0072656c 	rsbseq	r6, r2, ip, ror #10
    588c:	4349564e 	movtmi	r5, #38478	; 0x964e
    5890:	5152495f 	cmppl	r2, pc, asr r9
    5894:	555f3833 	ldrbpl	r3, [pc, #-2099]	; 5069 <_Min_Stack_Size+0x4c69>
    5898:	54524153 	ldrbpl	r4, [r2], #-339	; 0xfffffead
    589c:	49445f32 	stmdbmi	r4, {r1, r4, r5, r8, r9, sl, fp, ip, lr}^
    58a0:	4c424153 	stfmie	f4, [r2], {83}	; 0x53
    58a4:	564e2045 	strbpl	r2, [lr], -r5, asr #32
    58a8:	495f4349 	ldmdbmi	pc, {r0, r3, r6, r8, r9, lr}^	; <UNPREDICTABLE>
    58ac:	31524543 	cmpcc	r2, r3, asr #10
    58b0:	203d7c20 	eorscs	r7, sp, r0, lsr #24
    58b4:	3c3c3128 	ldfccs	f3, [ip], #-160	; 0xffffff60
    58b8:	003b2936 	eorseq	r2, fp, r6, lsr r9
    58bc:	54415f5f 	strbpl	r5, [r1], #-3935	; 0xfffff0a1
    58c0:	43494d4f 	movtmi	r4, #40271	; 0x9d4f
    58c4:	5143415f 	cmppl	r3, pc, asr r1
    58c8:	4c45525f 	sfmmi	f5, 2, [r5], {95}	; 0x5f
    58cc:	5f003420 	svcpl	0x00003420
    58d0:	5f51485f 	svcpl	0x0051485f
    58d4:	54494249 	strbpl	r4, [r9], #-585	; 0xfffffdb7
    58d8:	30205f5f 	eorcc	r5, r0, pc, asr pc
    58dc:	445f5f00 	ldrbmi	r5, [pc], #-3840	; 58e4 <_Min_Stack_Size+0x54e4>
    58e0:	4d5f4c42 	ldclmi	12, cr4, [pc, #-264]	; 57e0 <_Min_Stack_Size+0x53e0>
    58e4:	315f4e49 	cmpcc	pc, r9, asr #28
    58e8:	58455f30 	stmdapl	r5, {r4, r5, r8, r9, sl, fp, ip, lr}^
    58ec:	205f5f50 	subscs	r5, pc, r0, asr pc	; <UNPREDICTABLE>
    58f0:	30332d28 	eorscc	r2, r3, r8, lsr #26
    58f4:	53002937 	movwpl	r2, #2359	; 0x937
    58f8:	32334d54 	eorscc	r4, r3, #84, 26	; 0x1500
    58fc:	31203146 			; <UNDEFINED> instruction: 0x31203146
    5900:	49504700 	ldmdbmi	r0, {r8, r9, sl, lr}^
    5904:	425f414f 	subsmi	r4, pc, #-1073741805	; 0xc0000013
    5908:	5f455341 	svcpl	0x00455341
    590c:	45444441 	strbmi	r4, [r4, #-1089]	; 0xfffffbbf
    5910:	53534552 	cmppl	r3, #343932928	; 0x14800000
    5914:	34783020 	ldrbtcc	r3, [r8], #-32	; 0xffffffe0
    5918:	30313030 	eorscc	r3, r1, r0, lsr r0
    591c:	55303038 	ldrpl	r3, [r0, #-56]!	; 0xffffffc8
    5920:	5f5f004c 	svcpl	0x005f004c
    5924:	33544c46 	cmpcc	r4, #17920	; 0x4600
    5928:	4f4e5f32 	svcmi	0x004e5f32
    592c:	4d5f4d52 	ldclmi	13, cr4, [pc, #-328]	; 57ec <_Min_Stack_Size+0x53ec>
    5930:	5f5f5841 	svcpl	0x005f5841
    5934:	342e3320 	strtcc	r3, [lr], #-800	; 0xfffffce0
    5938:	32383230 	eorscc	r3, r8, #48, 4
    593c:	36363433 			; <UNDEFINED> instruction: 0x36363433
    5940:	32353833 	eorscc	r3, r5, #3342336	; 0x330000
    5944:	65363838 	ldrvs	r3, [r6, #-2104]!	; 0xfffff7c8
    5948:	4638332b 	ldrtmi	r3, [r8], -fp, lsr #6
    594c:	45003233 	strmi	r3, [r0, #-563]	; 0xfffffdcd
    5950:	5f495458 	svcpl	0x00495458
    5954:	5f4e4950 	svcpl	0x004e4950
    5958:	454e494c 	strbmi	r4, [lr, #-2380]	; 0xfffff6b4
    595c:	43503431 	cmpmi	r0, #822083584	; 0x31000000
    5960:	28203431 	stmdacs	r0!, {r0, r4, r5, sl, ip, sp}
    5964:	49545845 	ldmdbmi	r4, {r0, r2, r6, fp, ip, lr}^
    5968:	7465535f 	strbtvc	r5, [r5], #-863	; 0xfffffca1
    596c:	745f7075 	ldrbvc	r7, [pc], #-117	; 5974 <_Min_Stack_Size+0x5574>
    5970:	58457b29 	stmdapl	r5, {r0, r3, r5, r8, r9, fp, ip, sp, lr}^
    5974:	34314954 	ldrtcc	r4, [r1], #-2388	; 0xfffff6ac
    5978:	4950472c 	ldmdbmi	r0, {r2, r3, r5, r8, r9, sl, lr}^
    597c:	472c434f 	strmi	r4, [ip, -pc, asr #6]!
    5980:	5f4f4950 	svcpl	0x004f4950
    5984:	5f4e4950 	svcpl	0x004e4950
    5988:	007d3431 	rsbseq	r3, sp, r1, lsr r4
    598c:	4f495047 	svcmi	0x00495047
    5990:	4e49505f 	mcrmi	0, 2, r5, cr9, cr15, {2}
    5994:	2035315f 	eorscs	r3, r5, pc, asr r1
    5998:	69752828 	ldmdbvs	r5!, {r3, r5, fp, sp}^
    599c:	5f38746e 	svcpl	0x0038746e
    59a0:	35312974 	ldrcc	r2, [r1, #-2420]!	; 0xfffff68c
    59a4:	5f5f0029 	svcpl	0x005f0029
    59a8:	544e4955 	strbpl	r4, [lr], #-2389	; 0xfffff6ab
    59ac:	5f58414d 	svcpl	0x0058414d
    59b0:	5f58414d 	svcpl	0x0058414d
    59b4:	7830205f 	ldmdavc	r0!, {r0, r1, r2, r3, r4, r6, sp}
    59b8:	66666666 	strbtvs	r6, [r6], -r6, ror #12
    59bc:	66666666 	strbtvs	r6, [r6], -r6, ror #12
    59c0:	66666666 	strbtvs	r6, [r6], -r6, ror #12
    59c4:	66666666 	strbtvs	r6, [r6], -r6, ror #12
    59c8:	004c4c55 	subeq	r4, ip, r5, asr ip
    59cc:	42445f5f 	submi	r5, r4, #380	; 0x17c
    59d0:	414d5f4c 	cmpmi	sp, ip, asr #30
    59d4:	445f544e 	ldrbmi	r5, [pc], #-1102	; 59dc <_Min_Stack_Size+0x55dc>
    59d8:	5f5f4749 	svcpl	0x005f4749
    59dc:	00333520 	eorseq	r3, r3, r0, lsr #10
    59e0:	4c555f5f 	mrrcmi	15, 5, r5, r5, cr15	; <UNPREDICTABLE>
    59e4:	43415246 	movtmi	r5, #4678	; 0x1246
    59e8:	42495f54 	submi	r5, r9, #84, 30	; 0x150
    59ec:	5f5f5449 	svcpl	0x005f5449
    59f0:	4e003020 	cdpmi	0, 0, cr3, cr0, cr0, {1}
    59f4:	5f434956 	svcpl	0x00434956
    59f8:	38515249 	ldmdacc	r1, {r0, r3, r6, r9, ip, lr}^
    59fc:	5458455f 	ldrbpl	r4, [r8], #-1375	; 0xfffffaa1
    5a00:	445f3249 	ldrbmi	r3, [pc], #-585	; 5a08 <_Min_Stack_Size+0x5608>
    5a04:	42415349 	submi	r5, r1, #603979777	; 0x24000001
    5a08:	4e20454c 	cfsh64mi	mvdx4, mvdx0, #44
    5a0c:	5f434956 	svcpl	0x00434956
    5a10:	52454349 	subpl	r4, r5, #603979777	; 0x24000001
    5a14:	3d7c2030 	ldclcc	0, cr2, [ip, #-192]!	; 0xffffff40
    5a18:	3c312820 	ldccc	8, cr2, [r1], #-128	; 0xffffff80
    5a1c:	3b29383c 	blcc	a53b14 <_Min_Stack_Size+0xa53714>
    5a20:	43435200 	movtmi	r5, #12800	; 0x3200
    5a24:	4253555f 	subsmi	r5, r3, #398458880	; 0x17c00000
    5a28:	284e455f 	stmdacs	lr, {r0, r1, r2, r3, r4, r6, r8, sl, lr}^
    5a2c:	43522029 	cmpmi	r2, #41	; 0x29
    5a30:	413e2d43 	teqmi	lr, r3, asr #26
    5a34:	45314250 	ldrmi	r4, [r1, #-592]!	; 0xfffffdb0
    5a38:	7c20524e 	sfmvc	f5, 4, [r0], #-312	; 0xfffffec8
    5a3c:	3128203d 			; <UNDEFINED> instruction: 0x3128203d
    5a40:	33323c3c 	teqcc	r2, #60, 24	; 0x3c00
    5a44:	43520029 	cmpmi	r2, #41	; 0x29
    5a48:	50475f43 	subpl	r5, r7, r3, asr #30
    5a4c:	5f424f49 	svcpl	0x00424f49
    5a50:	29284e45 	stmdbcs	r8!, {r0, r2, r6, r9, sl, fp, lr}
    5a54:	43435220 	movtmi	r5, #12832	; 0x3220
    5a58:	50413e2d 	subpl	r3, r1, sp, lsr #28
    5a5c:	4e453242 	cdpmi	2, 4, cr3, cr5, cr2, {2}
    5a60:	3d7c2052 	ldclcc	0, cr2, [ip, #-328]!	; 0xfffffeb8
    5a64:	3c312820 	ldccc	8, cr2, [r1], #-128	; 0xffffff80
    5a68:	0029333c 	eoreq	r3, r9, ip, lsr r3
    5a6c:	4f494641 	svcmi	0x00494641
    5a70:	5458455f 	ldrbpl	r4, [r8], #-1375	; 0xfffffaa1
    5a74:	5f524349 	svcpl	0x00524349
    5a78:	50746942 	rsbspl	r6, r4, r2, asr #18
    5a7c:	7469736f 	strbtvc	r7, [r9], #-879	; 0xfffffc91
    5a80:	006e6f69 	rsbeq	r6, lr, r9, ror #30
    5a84:	4e495f5f 	mcrmi	15, 2, r5, cr9, cr15, {2}
    5a88:	414d5f54 	cmpmi	sp, r4, asr pc
    5a8c:	205f5f58 	subscs	r5, pc, r8, asr pc	; <UNPREDICTABLE>
    5a90:	66377830 			; <UNDEFINED> instruction: 0x66377830
    5a94:	66666666 	strbtvs	r6, [r6], -r6, ror #12
    5a98:	47006666 	strmi	r6, [r0, -r6, ror #12]
    5a9c:	5f4f4950 	svcpl	0x004f4950
    5aa0:	5f4e4950 	svcpl	0x004e4950
    5aa4:	28282038 	stmdacs	r8!, {r3, r4, r5, sp}
    5aa8:	746e6975 	strbtvc	r6, [lr], #-2421	; 0xfffff68b
    5aac:	29745f38 	ldmdbcs	r4!, {r3, r4, r5, r8, r9, sl, fp, ip, lr}^
    5ab0:	5f002938 	svcpl	0x00002938
    5ab4:	4e49555f 	mcrmi	5, 2, r5, cr9, cr15, {2}
    5ab8:	5f363154 	svcpl	0x00363154
    5abc:	5f58414d 	svcpl	0x0058414d
    5ac0:	7830205f 	ldmdavc	r0!, {r0, r1, r2, r3, r4, r6, sp}
    5ac4:	66666666 	strbtvs	r6, [r6], -r6, ror #12
    5ac8:	415f5f00 	cmpmi	pc, r0, lsl #30
    5acc:	465f4d52 			; <UNDEFINED> instruction: 0x465f4d52
    5ad0:	55544145 	ldrbpl	r4, [r4, #-325]	; 0xfffffebb
    5ad4:	435f4552 	cmpmi	pc, #343932928	; 0x14800000
    5ad8:	435f4544 	cmpmi	pc, #68, 10	; 0x11000000
    5adc:	4f52504f 	svcmi	0x0052504f
    5ae0:	69500043 	ldmdbvs	r0, {r0, r1, r6}^
    5ae4:	6c61566e 	stclvs	6, cr5, [r1], #-440	; 0xfffffe48
    5ae8:	2e006575 	cfrshl64cs	mvdx0, mvdx5, r6
    5aec:	72532f2e 	subsvc	r2, r3, #46, 30	; 0xb8
    5af0:	434d2f63 	movtmi	r2, #57187	; 0xdf63
    5af4:	472f4c41 	strmi	r4, [pc, -r1, asr #24]!
    5af8:	204f4950 	subcs	r4, pc, r0, asr r9	; <UNPREDICTABLE>
    5afc:	76697244 	strbtvc	r7, [r9], -r4, asr #4
    5b00:	472f7265 	strmi	r7, [pc, -r5, ror #4]!
    5b04:	5f4f4950 	svcpl	0x004f4950
    5b08:	676f7270 			; <UNDEFINED> instruction: 0x676f7270
    5b0c:	2e6d6172 	mcrcs	1, 3, r6, cr13, cr2, {3}
    5b10:	6f630063 	svcvs	0x00630063
    5b14:	6769666e 	strbvs	r6, [r9, -lr, ror #12]!
    5b18:	74617275 	strbtvc	r7, [r1], #-629	; 0xfffffd8b
    5b1c:	006e6f69 	rsbeq	r6, lr, r9, ror #30
    5b20:	6b636f4c 	blvs	18e1858 <_Min_Stack_Size+0x18e1458>
    5b24:	74617453 	strbtvc	r7, [r1], #-1107	; 0xfffffbad
    5b28:	6f500065 	svcvs	0x00500065
    5b2c:	74537472 	ldrbvc	r7, [r3], #-1138	; 0xfffffb8e
    5b30:	00657461 	rsbeq	r7, r5, r1, ror #8
    5b34:	4e6e6950 			; <UNDEFINED> instruction: 0x4e6e6950
    5b38:	65626d75 	strbvs	r6, [r2, #-3445]!	; 0xfffff28b
    5b3c:	69700072 	ldmdbvs	r0!, {r1, r4, r5, r6}^
    5b40:	6174536e 	cmnvs	r4, lr, ror #6
    5b44:	4d006574 	cfstr32mi	mvfx6, [r0, #-464]	; 0xfffffe30
    5b48:	5f4c4143 	svcpl	0x004c4143
    5b4c:	4f495047 	svcmi	0x00495047
    5b50:	6972575f 	ldmdbvs	r2!, {r0, r1, r2, r3, r4, r6, r8, r9, sl, ip, lr}^
    5b54:	69506574 	ldmdbvs	r0, {r2, r4, r5, r6, r8, sl, sp, lr}^
    5b58:	434d006e 	movtmi	r0, #53358	; 0xd06e
    5b5c:	475f4c41 	ldrbmi	r4, [pc, -r1, asr #24]
    5b60:	5f4f4950 	svcpl	0x004f4950
    5b64:	64616552 	strbtvs	r6, [r1], #-1362	; 0xfffffaae
    5b68:	006e6950 	rsbeq	r6, lr, r0, asr r9
    5b6c:	4c41434d 	mcrrmi	3, 4, r4, r1, cr13
    5b70:	4950475f 	ldmdbmi	r0, {r0, r1, r2, r3, r4, r6, r8, r9, sl, lr}^
    5b74:	6f4c5f4f 	svcvs	0x004c5f4f
    5b78:	69506b63 	ldmdbvs	r0, {r0, r1, r5, r6, r8, r9, fp, sp, lr}^
    5b7c:	434d006e 	movtmi	r0, #53358	; 0xd06e
    5b80:	475f4c41 	ldrbmi	r4, [pc, -r1, asr #24]
    5b84:	5f4f4950 	svcpl	0x004f4950
    5b88:	50746553 	rsbspl	r6, r4, r3, asr r5
    5b8c:	4d74726f 	lfmmi	f7, 2, [r4, #-444]!	; 0xfffffe44
    5b90:	0065646f 	rsbeq	r6, r5, pc, ror #8
    5b94:	4f495047 	svcmi	0x00495047
    5b98:	69750078 	ldmdbvs	r5!, {r3, r4, r5, r6}^
    5b9c:	3631746e 	ldrtcc	r7, [r1], -lr, ror #8
    5ba0:	5000745f 	andpl	r7, r0, pc, asr r4
    5ba4:	5674726f 	ldrbtpl	r7, [r4], -pc, ror #4
    5ba8:	65756c61 	ldrbvs	r6, [r5, #-3169]!	; 0xfffff39f
    5bac:	74654700 	strbtvc	r4, [r5], #-1792	; 0xfffff900
    5bb0:	666e6f43 	strbtvs	r6, [lr], -r3, asr #30
    5bb4:	69426769 	stmdbvs	r2, {r0, r3, r5, r6, r8, r9, sl, sp, lr}^
    5bb8:	434d0074 	movtmi	r0, #53364	; 0xd074
    5bbc:	475f4c41 	ldrbmi	r4, [pc, -r1, asr #24]
    5bc0:	5f4f4950 	svcpl	0x004f4950
    5bc4:	67676f54 			; <UNDEFINED> instruction: 0x67676f54
    5bc8:	6950656c 	ldmdbvs	r0, {r2, r3, r5, r6, r8, sl, sp, lr}^
    5bcc:	434d006e 	movtmi	r0, #53358	; 0xd06e
    5bd0:	475f4c41 	ldrbmi	r4, [pc, -r1, asr #24]
    5bd4:	5f4f4950 	svcpl	0x004f4950
    5bd8:	67676f54 			; <UNDEFINED> instruction: 0x67676f54
    5bdc:	6f50656c 	svcvs	0x0050656c
    5be0:	4d007472 	cfstrsmi	mvf7, [r0, #-456]	; 0xfffffe38
    5be4:	5f4c4143 	svcpl	0x004c4143
    5be8:	4f495047 	svcmi	0x00495047
    5bec:	6165525f 	cmnvs	r5, pc, asr r2
    5bf0:	726f5064 	rsbvc	r5, pc, #100	; 0x64
    5bf4:	434d0074 	movtmi	r0, #53364	; 0xd074
    5bf8:	475f4c41 	ldrbmi	r4, [pc, -r1, asr #24]
    5bfc:	5f4f4950 	svcpl	0x004f4950
    5c00:	74697257 	strbtvc	r7, [r9], #-599	; 0xfffffda9
    5c04:	726f5065 	rsbvc	r5, pc, #101	; 0x65
    5c08:	53550074 	cmppl	r5, #116	; 0x74
    5c0c:	5f545241 	svcpl	0x00545241
    5c10:	504f5453 	subpl	r5, pc, r3, asr r4	; <UNPREDICTABLE>
    5c14:	5449425f 	strbpl	r4, [r9], #-607	; 0xfffffda1
    5c18:	5f305f53 	svcpl	0x00305f53
    5c1c:	54494235 	strbpl	r4, [r9], #-565	; 0xfffffdcb
    5c20:	69752820 	ldmdbvs	r5!, {r5, fp, sp}^
    5c24:	3233746e 	eorscc	r7, r3, #1845493760	; 0x6e000000
    5c28:	2829745f 	stmdacs	r9!, {r0, r1, r2, r3, r4, r6, sl, ip, sp, lr}
    5c2c:	313c3c31 	teqcc	ip, r1, lsr ip
    5c30:	55002932 	strpl	r2, [r0, #-2354]	; 0xfffff6ce
    5c34:	54524153 	ldrbpl	r4, [r2], #-339	; 0xfffffead
    5c38:	53550078 	cmppl	r5, #120	; 0x78
    5c3c:	5f545241 	svcpl	0x00545241
    5c40:	465f5748 	ldrbmi	r5, [pc], -r8, asr #14
    5c44:	435f574c 	cmpmi	pc, #76, 14	; 0x1300000
    5c48:	5f4c5254 	svcpl	0x004c5254
    5c4c:	20535443 	subscs	r5, r3, r3, asr #8
    5c50:	6e697528 	cdpvs	5, 6, cr7, cr9, cr8, {1}
    5c54:	5f323374 	svcpl	0x00323374
    5c58:	31282974 			; <UNDEFINED> instruction: 0x31282974
    5c5c:	29393c3c 	ldmdbcs	r9!, {r2, r3, r4, r5, sl, fp, ip, sp}
    5c60:	41535500 	cmpmi	r3, r0, lsl #10
    5c64:	425f5452 	subsmi	r5, pc, #1375731712	; 0x52000000
    5c68:	52445541 	subpl	r5, r4, #272629760	; 0x10400000
    5c6c:	5f455441 	svcpl	0x00455441
    5c70:	30353232 	eorscc	r3, r5, r2, lsr r2
    5c74:	20303030 	eorscs	r3, r0, r0, lsr r0
    5c78:	30353232 	eorscc	r3, r5, r2, lsr r2
    5c7c:	00303030 	eorseq	r3, r0, r0, lsr r0
    5c80:	706f7453 	rsbvc	r7, pc, r3, asr r4	; <UNPREDICTABLE>
    5c84:	73746942 	cmnvc	r4, #1081344	; 0x108000
    5c88:	41535500 	cmpmi	r3, r0, lsl #10
    5c8c:	425f5452 	subsmi	r5, pc, #1375731712	; 0x52000000
    5c90:	52445541 	subpl	r5, r4, #272629760	; 0x10400000
    5c94:	5f455441 	svcpl	0x00455441
    5c98:	30303534 	eorscc	r3, r0, r4, lsr r5
    5c9c:	20303030 	eorscs	r3, r0, r0, lsr r0
    5ca0:	30303534 	eorscc	r3, r0, r4, lsr r5
    5ca4:	00303030 	eorseq	r3, r0, r0, lsr r0
    5ca8:	52415355 	subpl	r5, r1, #1409286145	; 0x54000001
    5cac:	52495f54 	subpl	r5, r9, #84, 30	; 0x150
    5cb0:	49445f51 	stmdbmi	r4, {r0, r4, r6, r8, r9, sl, fp, ip, lr}^
    5cb4:	4c424153 	stfmie	f4, [r2], {83}	; 0x53
    5cb8:	75282045 	strvc	r2, [r8, #-69]!	; 0xffffffbb
    5cbc:	33746e69 	cmncc	r4, #1680	; 0x690
    5cc0:	29745f32 	ldmdbcs	r4!, {r1, r4, r5, r8, r9, sl, fp, ip, lr}^
    5cc4:	00293028 	eoreq	r3, r9, r8, lsr #32
    5cc8:	52415355 	subpl	r5, r1, #1409286145	; 0x54000001
    5ccc:	41505f54 	cmpmi	r0, r4, asr pc
    5cd0:	59544952 	ldmdbpl	r4, {r1, r4, r6, r8, fp, lr}^
    5cd4:	5349445f 	movtpl	r4, #37983	; 0x945f
    5cd8:	454c4241 	strbmi	r4, [ip, #-577]	; 0xfffffdbf
    5cdc:	69752820 	ldmdbvs	r5!, {r5, fp, sp}^
    5ce0:	3233746e 	eorscc	r7, r3, #1845493760	; 0x6e000000
    5ce4:	2829745f 	stmdacs	r9!, {r0, r1, r2, r3, r4, r6, sl, ip, sp, lr}
    5ce8:	313c3c30 	teqcc	ip, r0, lsr ip
    5cec:	50002930 	andpl	r2, r0, r0, lsr r9
    5cf0:	656b6361 	strbvs	r6, [fp, #-865]!	; 0xfffffc9f
    5cf4:	6e654c74 	mcrvs	12, 3, r4, cr5, cr4, {3}
    5cf8:	00687467 	rsbeq	r7, r8, r7, ror #8
    5cfc:	52415355 	subpl	r5, r1, #1409286145	; 0x54000001
    5d00:	41445f54 	cmpmi	r4, r4, asr pc
    5d04:	4c5f4154 	ldfmie	f4, [pc], {84}	; 0x54
    5d08:	54474e45 	strbpl	r4, [r7], #-3653	; 0xfffff1bb
    5d0c:	42385f48 	eorsmi	r5, r8, #72, 30	; 0x120
    5d10:	20535449 	subscs	r5, r3, r9, asr #8
    5d14:	6e697528 	cdpvs	5, 6, cr7, cr9, cr8, {1}
    5d18:	5f323374 	svcpl	0x00323374
    5d1c:	30282974 	eorcc	r2, r8, r4, ror r9
    5d20:	32313c3c 	eorscc	r3, r1, #60, 24	; 0x3c00
    5d24:	53550029 	cmppl	r5, #41	; 0x29
    5d28:	5f545241 	svcpl	0x00545241
    5d2c:	45444f4d 	strbmi	r4, [r4, #-3917]	; 0xfffff0b3
    5d30:	2058545f 	subscs	r5, r8, pc, asr r4
    5d34:	6e697528 	cdpvs	5, 6, cr7, cr9, cr8, {1}
    5d38:	5f323374 	svcpl	0x00323374
    5d3c:	31282974 			; <UNDEFINED> instruction: 0x31282974
    5d40:	29333c3c 	ldmdbcs	r3!, {r2, r3, r4, r5, sl, fp, ip, sp}
    5d44:	41535500 	cmpmi	r3, r0, lsl #10
    5d48:	435f5452 	cmpmi	pc, #1375731712	; 0x52000000
    5d4c:	69666e6f 	stmdbvs	r6!, {r0, r1, r2, r3, r5, r6, r9, sl, fp, sp, lr}^
    5d50:	61420067 	cmpvs	r2, r7, rrx
    5d54:	61726475 	cmnvs	r2, r5, ror r4
    5d58:	52006574 	andpl	r6, r0, #116, 10	; 0x1d000000
    5d5c:	745f4343 	ldrbvc	r4, [pc], #-835	; 5d64 <_Min_Stack_Size+0x5964>
    5d60:	41535500 	cmpmi	r3, r0, lsl #10
    5d64:	4d5f5452 	cfldrdmi	mvd5, [pc, #-328]	; 5c24 <_Min_Stack_Size+0x5824>
    5d68:	5f45444f 	svcpl	0x0045444f
    5d6c:	28205852 	stmdacs	r0!, {r1, r4, r6, fp, ip, lr}
    5d70:	746e6975 	strbtvc	r6, [lr], #-2421	; 0xfffff68b
    5d74:	745f3233 	ldrbvc	r3, [pc], #-563	; 5d7c <_Min_Stack_Size+0x597c>
    5d78:	3c312829 	ldccc	8, cr2, [r1], #-164	; 0xffffff5c
    5d7c:	0029323c 	eoreq	r3, r9, ip, lsr r2
    5d80:	4b4c4350 	blmi	1316ac8 <_Min_Stack_Size+0x13166c8>
    5d84:	41535500 	cmpmi	r3, r0, lsl #10
    5d88:	495f5452 	ldmdbmi	pc, {r1, r4, r6, sl, ip, lr}^	; <UNPREDICTABLE>
    5d8c:	5845444e 	stmdapl	r5, {r1, r2, r3, r6, sl, lr}^
    5d90:	6f6c4700 	svcvs	0x006c4700
    5d94:	5f6c6162 	svcpl	0x006c6162
    5d98:	52415355 	subpl	r5, r1, #1409286145	; 0x54000001
    5d9c:	6f435f54 	svcvs	0x00435f54
    5da0:	6769666e 	strbvs	r6, [r9, -lr, ror #12]!
    5da4:	74617275 	strbtvc	r7, [r1], #-629	; 0xfffffd8b
    5da8:	006e6f69 	rsbeq	r6, lr, r9, ror #30
    5dac:	5f434e49 	svcpl	0x00434e49
    5db0:	334d5453 	movtcc	r5, #54355	; 0xd453
    5db4:	30314632 	eorscc	r4, r1, r2, lsr r6
    5db8:	5f365833 	svcpl	0x00365833
    5dbc:	52415355 	subpl	r5, r1, #1409286145	; 0x54000001
    5dc0:	5f485f54 	svcpl	0x00485f54
    5dc4:	53550020 	cmppl	r5, #32
    5dc8:	5f545241 	svcpl	0x00545241
    5dcc:	44554142 	ldrbmi	r4, [r5], #-322	; 0xfffffebe
    5dd0:	45544152 	ldrbmi	r4, [r4, #-338]	; 0xfffffeae
    5dd4:	3239315f 	eorscc	r3, r9, #-1073741801	; 0xc0000017
    5dd8:	31203030 			; <UNDEFINED> instruction: 0x31203030
    5ddc:	30303239 	eorscc	r3, r0, r9, lsr r2
    5de0:	43444200 	movtmi	r4, #16896	; 0x4200
    5de4:	4e490052 	mcrmi	0, 2, r0, cr9, cr2, {2}
    5de8:	54535f43 	ldrbpl	r5, [r3], #-3907	; 0xfffff0bd
    5dec:	4632334d 	ldrtmi	r3, [r2], -sp, asr #6
    5df0:	58333031 	ldmdapl	r3!, {r0, r4, r5, ip, sp}
    5df4:	43525f36 	cmpmi	r2, #54, 30	; 0xd8
    5df8:	5f485f43 	svcpl	0x00485f43
    5dfc:	53550020 	cmppl	r5, #32
    5e00:	33545241 	cmpcc	r4, #268435460	; 0x10000004
    5e04:	5152495f 	cmppl	r2, pc, asr r9
    5e08:	646e6148 	strbtvs	r6, [lr], #-328	; 0xfffffeb8
    5e0c:	0072656c 	rsbseq	r6, r2, ip, ror #10
    5e10:	6c467748 	mcrrvs	7, 4, r7, r6, cr8
    5e14:	7443776f 	strbvc	r7, [r3], #-1903	; 0xfffff891
    5e18:	43006c72 	movwmi	r6, #3186	; 0xc72
    5e1c:	00524746 	subseq	r4, r2, r6, asr #14
    5e20:	4c41434d 	mcrrmi	3, 4, r4, r1, cr13
    5e24:	4343525f 	movtmi	r5, #12895	; 0x325f
    5e28:	7465475f 	strbtvc	r4, [r5], #-1887	; 0xfffff8a1
    5e2c:	4b4c4350 	blmi	1316b74 <_Min_Stack_Size+0x1316774>
    5e30:	434d0031 	movtmi	r0, #53297	; 0xd031
    5e34:	525f4c41 	subspl	r4, pc, #16640	; 0x4100
    5e38:	475f4343 	ldrbmi	r4, [pc, -r3, asr #6]
    5e3c:	43507465 	cmpmi	r0, #1694498816	; 0x65000000
    5e40:	00324b4c 	eorseq	r4, r2, ip, asr #22
    5e44:	52415355 	subpl	r5, r1, #1409286145	; 0x54000001
    5e48:	4f4d5f54 	svcmi	0x004d5f54
    5e4c:	545f4544 	ldrbpl	r4, [pc], #-1348	; 5e54 <_Min_Stack_Size+0x5a54>
    5e50:	58525f58 	ldmdapl	r2, {r3, r4, r6, r8, r9, sl, fp, ip, lr}^
    5e54:	69752820 	ldmdbvs	r5!, {r5, fp, sp}^
    5e58:	3233746e 	eorscc	r7, r3, #1845493760	; 0x6e000000
    5e5c:	2829745f 	stmdacs	r9!, {r0, r1, r2, r3, r4, r6, sl, ip, sp, lr}
    5e60:	3c3c3128 	ldfccs	f3, [ip], #-160	; 0xffffff60
    5e64:	7c202933 			; <UNDEFINED> instruction: 0x7c202933
    5e68:	3c312820 	ldccc	8, cr2, [r1], #-128	; 0xffffff80
    5e6c:	2929323c 	stmdbcs	r9!, {r2, r3, r4, r5, r9, ip, sp}
    5e70:	41535500 	cmpmi	r3, r0, lsl #10
    5e74:	485f5452 	ldmdami	pc, {r1, r4, r6, sl, ip, lr}^	; <UNPREDICTABLE>
    5e78:	4c465f57 	mcrrmi	15, 5, r5, r6, cr7
    5e7c:	54435f57 	strbpl	r5, [r3], #-3927	; 0xfffff0a9
    5e80:	435f4c52 	cmpmi	pc, #20992	; 0x5200
    5e84:	525f5354 	subspl	r5, pc, #84, 6	; 0x50000001
    5e88:	28205354 	stmdacs	r0!, {r2, r4, r6, r8, r9, ip, lr}
    5e8c:	746e6975 	strbtvc	r6, [lr], #-2421	; 0xfffff68b
    5e90:	745f3233 	ldrbvc	r3, [pc], #-563	; 5e98 <_Min_Stack_Size+0x5a98>
    5e94:	30282829 	eorcc	r2, r8, r9, lsr #16
    5e98:	29313162 	ldmdbcs	r1!, {r1, r5, r6, r8, ip, sp}
    5e9c:	29383c3c 	ldmdbcs	r8!, {r2, r3, r4, r5, sl, fp, ip, sp}
    5ea0:	41535500 	cmpmi	r3, r0, lsl #10
    5ea4:	535f5452 	cmppl	pc, #1375731712	; 0x52000000
    5ea8:	5f504f54 	svcpl	0x00504f54
    5eac:	53544942 	cmppl	r4, #1081344	; 0x108000
    5eb0:	4942315f 	stmdbmi	r2, {r0, r1, r2, r3, r4, r6, r8, ip, sp}^
    5eb4:	75282054 	strvc	r2, [r8, #-84]!	; 0xffffffac
    5eb8:	33746e69 	cmncc	r4, #1680	; 0x690
    5ebc:	29745f32 	ldmdbcs	r4!, {r1, r4, r5, r8, r9, sl, fp, ip, lr}^
    5ec0:	3c3c3028 	ldccc	0, cr3, [ip], #-160	; 0xffffff60
    5ec4:	00293231 	eoreq	r3, r9, r1, lsr r2
    5ec8:	6c6c6f50 	stclvs	15, cr6, [ip], #-320	; 0xfffffec0
    5ecc:	5f676e69 	svcpl	0x00676e69
    5ed0:	61736944 	cmnvs	r3, r4, asr #18
    5ed4:	00656c62 	rsbeq	r6, r5, r2, ror #24
    5ed8:	52415355 	subpl	r5, r1, #1409286145	; 0x54000001
    5edc:	52495f54 	subpl	r5, r9, #84, 30	; 0x150
    5ee0:	52545f51 	subspl	r5, r4, #324	; 0x144
    5ee4:	4d534e41 	ldclmi	14, cr4, [r3, #-260]	; 0xfffffefc
    5ee8:	49535349 	ldmdbmi	r3, {r0, r3, r6, r8, r9, ip, lr}^
    5eec:	435f4e4f 	cmpmi	pc, #1264	; 0x4f0
    5ef0:	4c504d4f 	mrrcmi	13, 4, r4, r0, cr15
    5ef4:	20455445 	subcs	r5, r5, r5, asr #8
    5ef8:	6e697528 	cdpvs	5, 6, cr7, cr9, cr8, {1}
    5efc:	5f323374 	svcpl	0x00323374
    5f00:	31282974 			; <UNDEFINED> instruction: 0x31282974
    5f04:	29363c3c 	ldmdbcs	r6!, {r2, r3, r4, r5, sl, fp, ip, sp}
    5f08:	41535500 	cmpmi	r3, r0, lsl #10
    5f0c:	5f315452 	svcpl	0x00315452
    5f10:	48515249 	ldmdami	r1, {r0, r3, r6, r9, ip, lr}^
    5f14:	6c646e61 	stclvs	14, cr6, [r4], #-388	; 0xfffffe7c
    5f18:	47007265 	strmi	r7, [r0, -r5, ror #4]
    5f1c:	00525054 	subseq	r5, r2, r4, asr r0
    5f20:	32425041 	subcc	r5, r2, #65	; 0x41
    5f24:	52545352 	subspl	r5, r4, #1207959553	; 0x48000001
    5f28:	41434d00 	cmpmi	r3, r0, lsl #26
    5f2c:	53555f4c 	cmppl	r5, #76, 30	; 0x130
    5f30:	5f545241 	svcpl	0x00545241
    5f34:	61746144 	cmnvs	r4, r4, asr #2
    5f38:	73617254 	cmnvc	r1, #84, 4	; 0x40000005
    5f3c:	0074696d 	rsbseq	r6, r4, sp, ror #18
    5f40:	6c6c6f50 	stclvs	15, cr6, [ip], #-320	; 0xfffffec0
    5f44:	4d676e69 	stclmi	14, cr6, [r7, #-420]!	; 0xfffffe5c
    5f48:	61686365 	cmnvs	r8, r5, ror #6
    5f4c:	6d73696e 			; <UNDEFINED> instruction: 0x6d73696e
    5f50:	4100745f 	tstmi	r0, pc, asr r4
    5f54:	45324250 	ldrmi	r4, [r2, #-592]!	; 0xfffffdb0
    5f58:	4800524e 	stmdami	r0, {r1, r2, r3, r6, r9, ip, lr}
    5f5c:	435f4553 	cmpmi	pc, #348127232	; 0x14c00000
    5f60:	28204b4c 	stmdacs	r0!, {r2, r3, r6, r8, r9, fp, lr}
    5f64:	746e6975 	strbtvc	r6, [lr], #-2421	; 0xfffff68b
    5f68:	745f3233 	ldrbvc	r3, [pc], #-563	; 5f70 <_Min_Stack_Size+0x5b70>
    5f6c:	30303829 	eorscc	r3, r0, r9, lsr #16
    5f70:	30303030 	eorscc	r3, r0, r0, lsr r0
    5f74:	41535500 	cmpmi	r3, r0, lsl #10
    5f78:	745f5452 	ldrbvc	r5, [pc], #-1106	; 5f80 <_Min_Stack_Size+0x5b80>
    5f7c:	41535500 	cmpmi	r3, r0, lsl #10
    5f80:	535f5452 	cmppl	pc, #1375731712	; 0x52000000
    5f84:	5f504f54 	svcpl	0x00504f54
    5f88:	53544942 	cmppl	r4, #1081344	; 0x108000
    5f8c:	4942325f 	stmdbmi	r2, {r0, r1, r2, r3, r4, r6, r9, ip, sp}^
    5f90:	75282054 	strvc	r2, [r8, #-84]!	; 0xffffffac
    5f94:	33746e69 	cmncc	r4, #1680	; 0x690
    5f98:	29745f32 	ldmdbcs	r4!, {r1, r4, r5, r8, r9, sl, fp, ip, lr}^
    5f9c:	3c3c3228 	lfmcc	f3, 4, [ip], #-160	; 0xffffff60
    5fa0:	00293231 	eoreq	r3, r9, r1, lsr r2
    5fa4:	4c41434d 	mcrrmi	3, 4, r4, r1, cr13
    5fa8:	4153555f 	cmpmi	r3, pc, asr r5
    5fac:	535f5452 	cmppl	pc, #1375731712	; 0x52000000
    5fb0:	70477465 	subvc	r7, r7, r5, ror #8
    5fb4:	69506f69 	ldmdbvs	r0, {r0, r3, r5, r6, r8, r9, sl, fp, sp, lr}^
    5fb8:	4100736e 	tstmi	r0, lr, ror #6
    5fbc:	52314250 	eorspl	r4, r1, #80, 4
    5fc0:	00525453 	subseq	r5, r2, r3, asr r4
    5fc4:	31425041 	cmpcc	r2, r1, asr #32
    5fc8:	00524e45 	subseq	r4, r2, r5, asr #28
    5fcc:	4c41434d 	mcrrmi	3, 4, r4, r1, cr13
    5fd0:	4153555f 	cmpmi	r3, pc, asr r5
    5fd4:	445f5452 	ldrbmi	r5, [pc], #-1106	; 5fdc <_Min_Stack_Size+0x5bdc>
    5fd8:	696e4965 	stmdbvs	lr!, {r0, r2, r5, r6, r8, fp, lr}^
    5fdc:	53550074 	cmppl	r5, #116	; 0x74
    5fe0:	5f545241 	svcpl	0x00545241
    5fe4:	44554142 	ldrbmi	r4, [r5], #-322	; 0xfffffebe
    5fe8:	45544152 	ldrbmi	r4, [r4, #-338]	; 0xfffffeae
    5fec:	3036395f 	eorscc	r3, r6, pc, asr r9
    5ff0:	36392030 			; <UNDEFINED> instruction: 0x36392030
    5ff4:	4d003030 	stcmi	0, cr3, [r0, #-192]	; 0xffffff40
    5ff8:	5f4c4143 	svcpl	0x004c4143
    5ffc:	52415355 	subpl	r5, r1, #1409286145	; 0x54000001
    6000:	61445f54 	cmpvs	r4, r4, asr pc
    6004:	65526174 	ldrbvs	r6, [r2, #-372]	; 0xfffffe8c
    6008:	76696563 	strbtvc	r6, [r9], -r3, ror #10
    600c:	53550065 	cmppl	r5, #101	; 0x65
    6010:	5f545241 	svcpl	0x00545241
    6014:	44554142 	ldrbmi	r4, [r5], #-322	; 0xfffffebe
    6018:	45544152 	ldrbmi	r4, [r4, #-338]	; 0xfffffeae
    601c:	3132395f 	teqcc	r2, pc, asr r9
    6020:	20303036 	eorscs	r3, r0, r6, lsr r0
    6024:	36313239 			; <UNDEFINED> instruction: 0x36313239
    6028:	55003030 	strpl	r3, [r0, #-48]	; 0xffffffd0
    602c:	54524153 	ldrbpl	r4, [r2], #-339	; 0xfffffead
    6030:	5f57485f 	svcpl	0x0057485f
    6034:	5f574c46 	svcpl	0x00574c46
    6038:	4c525443 	cfldrdmi	mvd5, [r2], {67}	; 0x43
    603c:	5349445f 	movtpl	r4, #37983	; 0x945f
    6040:	454c4241 	strbmi	r4, [ip, #-577]	; 0xfffffdbf
    6044:	69752820 	ldmdbvs	r5!, {r5, fp, sp}^
    6048:	3233746e 	eorscc	r7, r3, #1845493760	; 0x6e000000
    604c:	2829745f 	stmdacs	r9!, {r0, r1, r2, r3, r4, r6, sl, ip, sp, lr}
    6050:	30623028 	rsbcc	r3, r2, r8, lsr #32
    6054:	3c3c2930 			; <UNDEFINED> instruction: 0x3c3c2930
    6058:	55002938 	strpl	r2, [r0, #-2360]	; 0xfffff6c8
    605c:	54524153 	ldrbpl	r4, [r2], #-339	; 0xfffffead
    6060:	5541425f 	strbpl	r4, [r1, #-607]	; 0xfffffda1
    6064:	54415244 	strbpl	r5, [r1], #-580	; 0xfffffdbc
    6068:	34325f45 	ldrtcc	r5, [r2], #-3909	; 0xfffff0bb
    606c:	32203030 	eorcc	r3, r0, #48	; 0x30
    6070:	00303034 	eorseq	r3, r0, r4, lsr r0
    6074:	6c6c6f50 	stclvs	15, cr6, [ip], #-320	; 0xfffffec0
    6078:	5f676e69 	svcpl	0x00676e69
    607c:	62616e45 	rsbvs	r6, r1, #1104	; 0x450
    6080:	5500656c 	strpl	r6, [r0, #-1388]	; 0xfffffa94
    6084:	54524153 	ldrbpl	r4, [r2], #-339	; 0xfffffead
    6088:	5541425f 	strbpl	r4, [r1, #-607]	; 0xfffffda1
    608c:	54415244 	strbpl	r5, [r1], #-580	; 0xfffffdbc
    6090:	33325f45 	teqcc	r2, #276	; 0x114
    6094:	30303430 	eorscc	r3, r0, r0, lsr r4
    6098:	30333220 	eorscc	r3, r3, r0, lsr #4
    609c:	00303034 	eorseq	r3, r0, r4, lsr r0
    60a0:	6e617254 	mcrvs	2, 3, r7, cr1, cr4, {2}
    60a4:	73696d73 	cmnvc	r9, #7360	; 0x1cc0
    60a8:	6e6f6973 			; <UNDEFINED> instruction: 0x6e6f6973
    60ac:	6863654d 	stmdavs	r3!, {r0, r2, r3, r6, r8, sl, sp, lr}^
    60b0:	73696e61 	cmnvc	r9, #1552	; 0x610
    60b4:	5355006d 	cmppl	r5, #109	; 0x6d
    60b8:	5f545241 	svcpl	0x00545241
    60bc:	504f5453 	subpl	r5, pc, r3, asr r4	; <UNPREDICTABLE>
    60c0:	5449425f 	strbpl	r4, [r9], #-607	; 0xfffffda1
    60c4:	5f315f53 	svcpl	0x00315f53
    60c8:	54494235 	strbpl	r4, [r9], #-565	; 0xfffffdcb
    60cc:	69752820 	ldmdbvs	r5!, {r5, fp, sp}^
    60d0:	3233746e 	eorscc	r7, r3, #1845493760	; 0x6e000000
    60d4:	2829745f 	stmdacs	r9!, {r0, r1, r2, r3, r4, r6, sl, ip, sp, lr}
    60d8:	313c3c33 	teqcc	ip, r3, lsr ip
    60dc:	44002932 	strmi	r2, [r0], #-2354	; 0xfffff6ce
    60e0:	00617461 	rsbeq	r7, r1, r1, ror #8
    60e4:	532f2e2e 			; <UNDEFINED> instruction: 0x532f2e2e
    60e8:	4d2f6372 	stcmi	3, cr6, [pc, #-456]!	; 5f28 <_Min_Stack_Size+0x5b28>
    60ec:	2f4c4143 	svccs	0x004c4143
    60f0:	52415355 	subpl	r5, r1, #1409286145	; 0x54000001
    60f4:	72442054 	subvc	r2, r4, #84	; 0x54
    60f8:	72657669 	rsbvc	r7, r5, #110100480	; 0x6900000
    60fc:	4153552f 	cmpmi	r3, pc, lsr #10
    6100:	705f5452 	subsvc	r5, pc, r2, asr r4	; <UNPREDICTABLE>
    6104:	72676f72 	rsbvc	r6, r7, #456	; 0x1c8
    6108:	632e6d61 			; <UNDEFINED> instruction: 0x632e6d61
    610c:	42484100 	submi	r4, r8, #0, 2
    6110:	00524e45 	subseq	r4, r2, r5, asr #28
    6114:	4c41434d 	mcrrmi	3, 4, r4, r1, cr13
    6118:	4153555f 	cmpmi	r3, pc, asr r5
    611c:	495f5452 	ldmdbmi	pc, {r1, r4, r6, sl, ip, lr}^	; <UNPREDICTABLE>
    6120:	0074696e 	rsbseq	r6, r4, lr, ror #18
    6124:	69726150 	ldmdbvs	r2!, {r4, r6, r8, sp, lr}^
    6128:	69427974 	stmdbvs	r2, {r2, r4, r5, r6, r8, fp, ip, sp, lr}^
    612c:	53550074 	cmppl	r5, #116	; 0x74
    6130:	5f545241 	svcpl	0x00545241
    6134:	45444f4d 	strbmi	r4, [r4, #-3917]	; 0xfffff0b3
    6138:	41535500 	cmpmi	r3, r0, lsl #10
    613c:	445f5452 	ldrbmi	r5, [pc], #-1106	; 6144 <_Min_Stack_Size+0x5d44>
    6140:	5f415441 	svcpl	0x00415441
    6144:	474e454c 	strbmi	r4, [lr, -ip, asr #10]
    6148:	395f4854 	ldmdbcc	pc, {r2, r4, r6, fp, lr}^	; <UNPREDICTABLE>
    614c:	53544942 	cmppl	r4, #1081344	; 0x108000
    6150:	69752820 	ldmdbvs	r5!, {r5, fp, sp}^
    6154:	3233746e 	eorscc	r7, r3, #1845493760	; 0x6e000000
    6158:	2829745f 	stmdacs	r9!, {r0, r1, r2, r3, r4, r6, sl, ip, sp, lr}
    615c:	313c3c31 	teqcc	ip, r1, lsr ip
    6160:	55002932 	strpl	r2, [r0, #-2354]	; 0xfffff6ce
    6164:	54524153 	ldrbpl	r4, [r2], #-339	; 0xfffffead
    6168:	5541425f 	strbpl	r4, [r1, #-607]	; 0xfffffda1
    616c:	54415244 	strbpl	r5, [r1], #-580	; 0xfffffdbc
    6170:	31315f45 	teqcc	r1, r5, asr #30
    6174:	30303235 	eorscc	r3, r0, r5, lsr r2
    6178:	35313120 	ldrcc	r3, [r1, #-288]!	; 0xfffffee0
    617c:	00303032 	eorseq	r3, r0, r2, lsr r0
    6180:	52415355 	subpl	r5, r1, #1409286145	; 0x54000001
    6184:	52495f54 	subpl	r5, r9, #84, 30	; 0x150
    6188:	45525f51 	ldrbmi	r5, [r2, #-3921]	; 0xfffff0af
    618c:	56494543 	strbpl	r4, [r9], -r3, asr #10
    6190:	445f4445 	ldrbmi	r4, [pc], #-1093	; 6198 <_Min_Stack_Size+0x5d98>
    6194:	5f415441 	svcpl	0x00415441
    6198:	44414552 	strbmi	r4, [r1], #-1362	; 0xfffffaae
    619c:	75282059 	strvc	r2, [r8, #-89]!	; 0xffffffa7
    61a0:	33746e69 	cmncc	r4, #1680	; 0x690
    61a4:	29745f32 	ldmdbcs	r4!, {r1, r4, r5, r8, r9, sl, fp, ip, lr}^
    61a8:	3c3c3128 	ldfccs	f3, [ip], #-160	; 0xffffff60
    61ac:	55002935 	strpl	r2, [r0, #-2357]	; 0xfffff6cb
    61b0:	54524153 	ldrbpl	r4, [r2], #-339	; 0xfffffead
    61b4:	5f57485f 	svcpl	0x0057485f
    61b8:	5f574c46 	svcpl	0x00574c46
    61bc:	4c525443 	cfldrdmi	mvd5, [r2], {67}	; 0x43
    61c0:	5354525f 	cmppl	r4, #-268435451	; 0xf0000005
    61c4:	69752820 	ldmdbvs	r5!, {r5, fp, sp}^
    61c8:	3233746e 	eorscc	r7, r3, #1845493760	; 0x6e000000
    61cc:	2829745f 	stmdacs	r9!, {r0, r1, r2, r3, r4, r6, sl, ip, sp, lr}
    61d0:	383c3c31 	ldmdacc	ip!, {r0, r4, r5, sl, fp, ip, sp}
    61d4:	53550029 	cmppl	r5, #41	; 0x29
    61d8:	5f545241 	svcpl	0x00545241
    61dc:	666e6f43 	strbtvs	r6, [lr], -r3, asr #30
    61e0:	745f6769 	ldrbvc	r6, [pc], #-1897	; 61e8 <_Min_Stack_Size+0x5de8>
    61e4:	41535500 	cmpmi	r3, r0, lsl #10
    61e8:	505f5452 	subspl	r5, pc, r2, asr r4	; <UNPREDICTABLE>
    61ec:	54495241 	strbpl	r5, [r9], #-577	; 0xfffffdbf
    61f0:	444f5f59 	strbmi	r5, [pc], #-3929	; 61f8 <_Min_Stack_Size+0x5df8>
    61f4:	75282044 	strvc	r2, [r8, #-68]!	; 0xffffffbc
    61f8:	33746e69 	cmncc	r4, #1680	; 0x690
    61fc:	29745f32 	ldmdbcs	r4!, {r1, r4, r5, r8, r9, sl, fp, ip, lr}^
    6200:	3c312828 	ldccc	8, cr2, [r1], #-160	; 0xffffff60
    6204:	2930313c 	ldmdbcs	r0!, {r2, r3, r4, r5, r8, ip, sp}
    6208:	28207c20 	stmdacs	r0!, {r5, sl, fp, ip, sp, lr}
    620c:	393c3c31 	ldmdbcc	ip!, {r0, r4, r5, sl, fp, ip, sp}
    6210:	55002929 	strpl	r2, [r0, #-2345]	; 0xfffff6d7
    6214:	54524153 	ldrbpl	r4, [r2], #-339	; 0xfffffead
    6218:	52495f32 	subpl	r5, r9, #50, 30	; 0xc8
    621c:	6e614851 	mcrvs	8, 3, r4, cr1, cr1, {2}
    6220:	72656c64 	rsbvc	r6, r5, #100, 24	; 0x6400
    6224:	41535500 	cmpmi	r3, r0, lsl #10
    6228:	505f5452 	subspl	r5, pc, r2, asr r4	; <UNPREDICTABLE>
    622c:	54495241 	strbpl	r5, [r9], #-577	; 0xfffffdbf
    6230:	56455f59 			; <UNDEFINED> instruction: 0x56455f59
    6234:	28204e45 	stmdacs	r0!, {r0, r2, r6, r9, sl, fp, lr}
    6238:	746e6975 	strbtvc	r6, [lr], #-2421	; 0xfffff68b
    623c:	745f3233 	ldrbvc	r3, [pc], #-563	; 6244 <_Min_Stack_Size+0x5e44>
    6240:	3c312829 	ldccc	8, cr2, [r1], #-164	; 0xffffff5c
    6244:	2930313c 	ldmdbcs	r0!, {r2, r3, r4, r5, r8, ip, sp}
    6248:	41535500 	cmpmi	r3, r0, lsl #10
    624c:	425f5452 	subsmi	r5, pc, #1375731712	; 0x52000000
    6250:	52445541 	subpl	r5, r4, #272629760	; 0x10400000
    6254:	5f455441 	svcpl	0x00455441
    6258:	38303634 	ldmdacc	r0!, {r2, r4, r5, r9, sl, ip, sp}
    625c:	34203030 	strtcc	r3, [r0], #-48	; 0xffffffd0
    6260:	30383036 	eorscc	r3, r8, r6, lsr r0
    6264:	53550030 	cmppl	r5, #48	; 0x30
    6268:	5f545241 	svcpl	0x00545241
    626c:	44554142 	ldrbmi	r4, [r5], #-322	; 0xfffffebe
    6270:	45544152 	ldrbmi	r4, [r4, #-338]	; 0xfffffeae
    6274:	3637355f 			; <UNDEFINED> instruction: 0x3637355f
    6278:	35203030 	strcc	r3, [r0, #-48]!	; 0xffffffd0
    627c:	30303637 	eorscc	r3, r0, r7, lsr r6
    6280:	41535500 	cmpmi	r3, r0, lsl #10
    6284:	495f5452 	ldmdbmi	pc, {r1, r4, r6, sl, ip, lr}^	; <UNPREDICTABLE>
    6288:	545f5152 	ldrbpl	r5, [pc], #-338	; 6290 <_Min_Stack_Size+0x5e90>
    628c:	534e4152 	movtpl	r4, #57682	; 0xe152
    6290:	5f54494d 	svcpl	0x0054494d
    6294:	41544144 	cmpmi	r4, r4, asr #2
    6298:	504d455f 	subpl	r4, sp, pc, asr r5
    629c:	28205954 	stmdacs	r0!, {r2, r4, r6, r8, fp, ip, lr}
    62a0:	746e6975 	strbtvc	r6, [lr], #-2421	; 0xfffff68b
    62a4:	745f3233 	ldrbvc	r3, [pc], #-563	; 62ac <_Min_Stack_Size+0x5eac>
    62a8:	3c312829 	ldccc	8, cr2, [r1], #-164	; 0xffffff5c
    62ac:	0029373c 	eoreq	r3, r9, ip, lsr r7
    62b0:	52535049 	subspl	r5, r3, #73	; 0x49
    62b4:	6765525f 			; <UNDEFINED> instruction: 0x6765525f
    62b8:	454e5f00 	strbmi	r5, [lr, #-3840]	; 0xfffff100
    62bc:	42494c57 	submi	r4, r9, #22272	; 0x5700
    62c0:	5245565f 	subpl	r5, r5, #99614720	; 0x5f00000
    62c4:	4e4f4953 			; <UNDEFINED> instruction: 0x4e4f4953
    62c8:	2e342220 	cdpcs	2, 3, cr2, cr4, cr0, {1}
    62cc:	22302e32 	eorscs	r2, r0, #800	; 0x320
    62d0:	4f495f00 	svcmi	0x00495f00
    62d4:	20464246 	subcs	r4, r6, r6, asr #4
    62d8:	5f5f0030 	svcpl	0x005f0030
    62dc:	6c697562 	cfstr64vs	mvdx7, [r9], #-392	; 0xfffffe78
    62e0:	5f6e6974 	svcpl	0x006e6974
    62e4:	615f7369 	cmpvs	pc, r9, ror #6
    62e8:	6e67696c 	vnmulvs.f16	s13, s14, s25	; <UNPREDICTABLE>
    62ec:	78286465 	stmdavc	r8!, {r0, r2, r5, r6, sl, sp, lr}
    62f0:	696c612c 	stmdbvs	ip!, {r2, r3, r5, r8, sp, lr}^
    62f4:	20296e67 	eorcs	r6, r9, r7, ror #28
    62f8:	5f282828 	svcpl	0x00282828
    62fc:	6e69755f 	mcrvs	5, 3, r7, cr9, cr15, {2}
    6300:	72747074 	rsbsvc	r7, r4, #116	; 0x74
    6304:	7829745f 	stmdavc	r9!, {r0, r1, r2, r3, r4, r6, sl, ip, sp, lr}
    6308:	28202620 	stmdacs	r0!, {r5, r9, sl, sp}
    630c:	696c6128 	stmdbvs	ip!, {r3, r5, r8, sp, lr}^
    6310:	20296e67 	eorcs	r6, r9, r7, ror #28
    6314:	2931202d 	ldmdbcs	r1!, {r0, r2, r3, r5, sp}
    6318:	3d3d2029 	ldccc	0, cr2, [sp, #-164]!	; 0xffffff5c
    631c:	00293020 	eoreq	r3, r9, r0, lsr #32
    6320:	56535f5f 	usaxpl	r5, r3, pc	; <UNPREDICTABLE>
    6324:	565f4449 	ldrbpl	r4, [pc], -r9, asr #8
    6328:	42495349 	submi	r5, r9, #603979777	; 0x24000001
    632c:	3120454c 			; <UNDEFINED> instruction: 0x3120454c
    6330:	535f5f00 	cmppl	pc, #0, 30
    6334:	20444957 	subcs	r4, r4, r7, asr r9
    6338:	30327830 	eorscc	r7, r2, r0, lsr r8
    633c:	5f003030 	svcpl	0x00003030
    6340:	5f535953 	svcpl	0x00535953
    6344:	54414546 	strbpl	r4, [r1], #-1350	; 0xfffffaba
    6348:	53455255 	movtpl	r5, #21077	; 0x5255
    634c:	0020485f 	eoreq	r4, r0, pc, asr r8
    6350:	706f7266 	rsbvc	r7, pc, r6, ror #4
    6354:	5f286e65 	svcpl	0x00286e65
    6358:	6f6f635f 	svcvs	0x006f635f
    635c:	2c65696b 			; <UNDEFINED> instruction: 0x2c65696b
    6360:	6e665f5f 	mcrvs	15, 3, r5, cr6, cr15, {2}
    6364:	75662029 	strbvc	r2, [r6, #-41]!	; 0xffffffd7
    6368:	65706f6e 	ldrbvs	r6, [r0, #-3950]!	; 0xfffff092
    636c:	5f5f286e 	svcpl	0x005f286e
    6370:	6b6f6f63 	blvs	1be2104 <_Min_Stack_Size+0x1be1d04>
    6374:	202c6569 	eorcs	r6, ip, r9, ror #10
    6378:	6e665f5f 	mcrvs	15, 3, r5, cr6, cr15, {2}
    637c:	6928202c 	stmdbvs	r8!, {r2, r3, r5, sp}
    6380:	2820746e 	stmdacs	r0!, {r1, r2, r3, r5, r6, sl, ip, sp, lr}
    6384:	2928292a 	stmdbcs	r8!, {r1, r3, r5, r8, fp, sp}
    6388:	202c3029 	eorcs	r3, ip, r9, lsr #32
    638c:	6f706628 	svcvs	0x00706628
    6390:	20745f73 	rsbscs	r5, r4, r3, ror pc
    6394:	28292a28 	stmdacs	r9!, {r3, r5, r9, fp, sp}
    6398:	2c302929 			; <UNDEFINED> instruction: 0x2c302929
    639c:	6e692820 	cdpvs	8, 6, cr2, cr9, cr0, {1}
    63a0:	2a282074 	bcs	a0e578 <_Min_Stack_Size+0xa0e178>
    63a4:	29292829 	stmdbcs	r9!, {r0, r3, r5, fp, sp}
    63a8:	5f002930 	svcpl	0x00002930
    63ac:	6165775f 	cmnvs	r5, pc, asr r7
    63b0:	79735f6b 	ldmdbvc	r3!, {r0, r1, r3, r5, r6, r8, r9, sl, fp, ip, lr}^
    63b4:	6c6f626d 	sfmvs	f6, 2, [pc], #-436	; 6208 <_Min_Stack_Size+0x5e08>
    63b8:	615f5f20 	cmpvs	pc, r0, lsr #30
    63bc:	69727474 	ldmdbvs	r2!, {r2, r4, r5, r6, sl, ip, sp, lr}^
    63c0:	65747562 	ldrbvs	r7, [r4, #-1378]!	; 0xfffffa9e
    63c4:	28285f5f 	stmdacs	r8!, {r0, r1, r2, r3, r4, r6, r8, r9, sl, fp, ip, lr}
    63c8:	65775f5f 	ldrbvs	r5, [r7, #-3935]!	; 0xfffff0a1
    63cc:	5f5f6b61 	svcpl	0x005f6b61
    63d0:	5f002929 	svcpl	0x00002929
    63d4:	41484357 	cmpmi	r8, r7, asr r3
    63d8:	5f545f52 	svcpl	0x00545f52
    63dc:	49464544 	stmdbmi	r6, {r2, r6, r8, sl, lr}^
    63e0:	5f44454e 	svcpl	0x0044454e
    63e4:	5f5f0020 	svcpl	0x005f0020
    63e8:	75716572 	ldrbvc	r6, [r1, #-1394]!	; 0xfffffa8e
    63ec:	73657269 	cmnvc	r5, #-1879048186	; 0x90000006
    63f0:	6378655f 	cmnvs	r8, #398458880	; 0x17c00000
    63f4:	6973756c 	ldmdbvs	r3!, {r2, r3, r5, r6, r8, sl, ip, sp, lr}^
    63f8:	2e286576 	mcrcs	5, 1, r6, cr8, cr6, {3}
    63fc:	20292e2e 	eorcs	r2, r9, lr, lsr #28
    6400:	6f6c5f5f 	svcvs	0x006c5f5f
    6404:	615f6b63 	cmpvs	pc, r3, ror #22
    6408:	746f6e6e 	strbtvc	r6, [pc], #-3694	; 6410 <_Min_Stack_Size+0x6010>
    640c:	28657461 	stmdacs	r5!, {r0, r5, r6, sl, ip, sp, lr}^
    6410:	6c637865 	stclvs	8, cr7, [r3], #-404	; 0xfffffe6c
    6414:	76697375 			; <UNDEFINED> instruction: 0x76697375
    6418:	6f6c5f65 	svcvs	0x006c5f65
    641c:	5f736b63 	svcpl	0x00736b63
    6420:	75716572 	ldrbvc	r6, [r1, #-1394]!	; 0xfffffa8e
    6424:	64657269 	strbtvs	r7, [r5], #-617	; 0xfffffd97
    6428:	565f5f28 	ldrbpl	r5, [pc], -r8, lsr #30
    642c:	52415f41 	subpl	r5, r1, #260	; 0x104
    6430:	5f5f5347 	svcpl	0x005f5347
    6434:	5f002929 	svcpl	0x00002929
    6438:	4e454552 	mcrmi	5, 2, r4, cr5, cr2, {2}
    643c:	41525f54 	cmpmi	r2, r4, asr pc
    6440:	3834444e 	ldmdacc	r4!, {r1, r2, r3, r6, sl, lr}
    6444:	4444415f 	strbmi	r4, [r4], #-351	; 0xfffffea1
    6448:	72747028 	rsbsvc	r7, r4, #40	; 0x28
    644c:	28282029 	stmdacs	r8!, {r0, r3, r5, sp}
    6450:	29727470 	ldmdbcs	r2!, {r4, r5, r6, sl, ip, sp, lr}^
    6454:	725f3e2d 	subsvc	r3, pc, #720	; 0x2d0
    6458:	3e2d3834 	mcrcc	8, 1, r3, cr13, cr4, {1}
    645c:	6464615f 	strbtvs	r6, [r4], #-351	; 0xfffffea1
    6460:	4c5f0029 	mrrcmi	0, 2, r0, pc, cr9	; <UNPREDICTABLE>
    6464:	5f474e4f 	svcpl	0x00474e4f
    6468:	42554f44 	subsmi	r4, r5, #68, 30	; 0x110
    646c:	6c20454c 	cfstr32vs	mvfx4, [r0], #-304	; 0xfffffed0
    6470:	20676e6f 	rsbcs	r6, r7, pc, ror #28
    6474:	62756f64 	rsbsvs	r6, r5, #100, 30	; 0x190
    6478:	4c00656c 	cfstr32mi	mvfx6, [r0], {108}	; 0x6c
    647c:	445f4443 	ldrbmi	r4, [pc], #-1091	; 6484 <_Min_Stack_Size+0x6084>
    6480:	5f505349 	svcpl	0x00505349
    6484:	2046464f 	subcs	r4, r6, pc, asr #12
    6488:	30783028 	rsbscc	r3, r8, r8, lsr #32
    648c:	5f002938 	svcpl	0x00002938
    6490:	4e454552 	mcrmi	5, 2, r4, cr5, cr2, {2}
    6494:	4e495f54 	mcrmi	15, 2, r5, cr9, cr4, {2}
    6498:	4d5f5449 	cfldrdmi	mvd5, [pc, #-292]	; 637c <_Min_Stack_Size+0x5f7c>
    649c:	61762850 	cmnvs	r6, r0, asr r8
    64a0:	64202972 	strtvs	r2, [r0], #-2418	; 0xfffff68e
    64a4:	207b206f 	rsbscs	r2, fp, pc, rrx
    64a8:	75727473 	ldrbvc	r7, [r2, #-1139]!	; 0xfffffb8d
    64ac:	5f207463 	svcpl	0x00207463
    64b0:	6e656572 	mcrvs	5, 3, r6, cr5, cr2, {3}
    64b4:	5f2a2074 	svcpl	0x002a2074
    64b8:	203d2072 	eorscs	r2, sp, r2, ror r0
    64bc:	72617628 	rsbvc	r7, r1, #40, 12	; 0x2800000
    64c0:	5f203b29 	svcpl	0x00203b29
    64c4:	5f3e2d72 	svcpl	0x003e2d72
    64c8:	3e2d706d 	cdpcc	0, 2, cr7, cr13, cr13, {3}
    64cc:	7365725f 	cmnvc	r5, #-268435451	; 0xf0000005
    64d0:	5f746c75 	svcpl	0x00746c75
    64d4:	203d206b 	eorscs	r2, sp, fp, rrx
    64d8:	5f203b30 	svcpl	0x00203b30
    64dc:	5f3e2d72 	svcpl	0x003e2d72
    64e0:	3e2d706d 	cdpcc	0, 2, cr7, cr13, cr13, {3}
    64e4:	7365725f 	cmnvc	r5, #-268435451	; 0xf0000005
    64e8:	20746c75 	rsbscs	r6, r4, r5, ror ip
    64ec:	725f203d 	subsvc	r2, pc, #61	; 0x3d
    64f0:	6d5f3e2d 	ldclvs	14, cr3, [pc, #-180]	; 6444 <_Min_Stack_Size+0x6044>
    64f4:	5f3e2d70 	svcpl	0x003e2d70
    64f8:	20733570 	rsbscs	r3, r3, r0, ror r5
    64fc:	4e5f203d 	mrcmi	0, 2, r2, cr15, cr13, {1}
    6500:	3b4c4c55 	blcc	131965c <_Min_Stack_Size+0x131925c>
    6504:	2d725f20 	ldclcs	15, cr5, [r2, #-128]!	; 0xffffff80
    6508:	706d5f3e 	rsbvc	r5, sp, lr, lsr pc
    650c:	665f3e2d 	ldrbvs	r3, [pc], -sp, lsr #28
    6510:	6c656572 	cfstr64vs	mvdx6, [r5], #-456	; 0xfffffe38
    6514:	20747369 	rsbscs	r7, r4, r9, ror #6
    6518:	4e5f203d 	mrcmi	0, 2, r2, cr15, cr13, {1}
    651c:	3b4c4c55 	blcc	1319678 <_Min_Stack_Size+0x1319278>
    6520:	77207d20 	strvc	r7, [r0, -r0, lsr #26]!
    6524:	656c6968 	strbvs	r6, [ip, #-2408]!	; 0xfffff698
    6528:	29302820 	ldmdbcs	r0!, {r5, fp, sp}
    652c:	45455300 	strbmi	r5, [r5, #-768]	; 0xfffffd00
    6530:	45535f4b 	ldrbmi	r5, [r3, #-3915]	; 0xfffff0b5
    6534:	00302054 	eorseq	r2, r0, r4, asr r0
    6538:	4545525f 	strbmi	r5, [r5, #-607]	; 0xfffffda1
    653c:	535f544e 	cmppl	pc, #1308622848	; 0x4e000000
    6540:	465f4749 	ldrbmi	r4, [pc], -r9, asr #14
    6544:	28434e55 	stmdacs	r3, {r0, r2, r4, r6, r9, sl, fp, lr}^
    6548:	7274705f 	rsbsvc	r7, r4, #95	; 0x5f
    654c:	28282029 	stmdacs	r8!, {r0, r3, r5, sp}
    6550:	7274705f 	rsbsvc	r7, r4, #95	; 0x5f
    6554:	5f3e2d29 	svcpl	0x003e2d29
    6558:	5f676973 	svcpl	0x00676973
    655c:	636e7566 	cmnvs	lr, #427819008	; 0x19800000
    6560:	525f0029 	subspl	r0, pc, #41	; 0x29
    6564:	544e4545 	strbpl	r4, [lr], #-1349	; 0xfffffabb
    6568:	4749535f 	smlsldmi	r5, r9, pc, r3	; <UNPREDICTABLE>
    656c:	5f4c414e 	svcpl	0x004c414e
    6570:	455a4953 	ldrbmi	r4, [sl, #-2387]	; 0xfffff6ad
    6574:	00343220 	eorseq	r3, r4, r0, lsr #4
    6578:	67735f5f 			; <UNDEFINED> instruction: 0x67735f5f
    657c:	5f637465 	svcpl	0x00637465
    6580:	5f5f2872 	svcpl	0x005f2872
    6584:	2c727470 	cfldrdcs	mvd7, [r2], #-448	; 0xfffffe40
    6588:	29705f5f 	ldmdbcs	r0!, {r0, r1, r2, r3, r4, r6, r8, r9, sl, fp, ip, lr}^
    658c:	735f5f20 	cmpvc	pc, #32, 30	; 0x80
    6590:	63746567 	cmnvs	r4, #432013312	; 0x19c00000
    6594:	7761725f 			; <UNDEFINED> instruction: 0x7761725f
    6598:	5f28725f 	svcpl	0x0028725f
    659c:	7274705f 	rsbsvc	r7, r4, #95	; 0x5f
    65a0:	5f5f202c 	svcpl	0x005f202c
    65a4:	5f002970 	svcpl	0x00002970
    65a8:	4e4f435f 	mcrmi	3, 2, r4, cr15, cr15, {2}
    65ac:	28544143 	ldmdacs	r4, {r0, r1, r6, r8, lr}^
    65b0:	29792c78 	ldmdbcs	r9!, {r3, r4, r5, r6, sl, fp, sp}^
    65b4:	435f5f20 	cmpmi	pc, #32, 30	; 0x80
    65b8:	41434e4f 	cmpmi	r3, pc, asr #28
    65bc:	78283154 	stmdavc	r8!, {r2, r4, r6, r8, ip, sp}
    65c0:	0029792c 	eoreq	r7, r9, ip, lsr #18
    65c4:	4e475f5f 	mcrmi	15, 2, r5, cr7, cr15, {2}
    65c8:	494c4355 	stmdbmi	ip, {r0, r2, r4, r6, r8, r9, lr}^
    65cc:	5f5f454b 	svcpl	0x005f454b
    65d0:	5059545f 	subspl	r5, r9, pc, asr r4
    65d4:	20464f45 	subcs	r4, r6, r5, asr #30
    65d8:	5f5f0031 	svcpl	0x005f0031
    65dc:	46424e53 			; <UNDEFINED> instruction: 0x46424e53
    65e0:	30783020 	rsbscc	r3, r8, r0, lsr #32
    65e4:	00323030 	eorseq	r3, r2, r0, lsr r0
    65e8:	43525f5f 	cmpmi	r2, #380	; 0x17c
    65ec:	5f444953 	svcpl	0x00444953
    65f0:	52554f53 	subspl	r4, r5, #332	; 0x14c
    65f4:	73284543 			; <UNDEFINED> instruction: 0x73284543
    65f8:	74732029 	ldrbtvc	r2, [r3], #-41	; 0xffffffd7
    65fc:	74637572 	strbtvc	r7, [r3], #-1394	; 0xfffffa8e
    6600:	685f5f20 	ldmdavs	pc, {r5, r8, r9, sl, fp, ip, lr}^	; <UNPREDICTABLE>
    6604:	006b6361 	rsbeq	r6, fp, r1, ror #6
    6608:	28505f5f 	ldmdacs	r0, {r0, r1, r2, r3, r4, r6, r8, r9, sl, fp, ip, lr}^
    660c:	746f7270 	strbtvc	r7, [pc], #-624	; 6614 <_Min_Stack_Size+0x6214>
    6610:	2029736f 	eorcs	r7, r9, pc, ror #6
    6614:	746f7270 	strbtvc	r7, [pc], #-624	; 661c <_Min_Stack_Size+0x621c>
    6618:	7500736f 	strvc	r7, [r0, #-879]	; 0xfffffc91
    661c:	6769736e 	strbvs	r7, [r9, -lr, ror #6]!
    6620:	0064656e 	rsbeq	r6, r4, lr, ror #10
    6624:	5f44434c 	svcpl	0x0044434c
    6628:	50534944 	subspl	r4, r3, r4, asr #18
    662c:	5f4e4f5f 	svcpl	0x004e4f5f
    6630:	4e494c42 	cdpmi	12, 4, cr4, cr9, cr2, {2}
    6634:	3028204b 	eorcc	r2, r8, fp, asr #32
    6638:	29443078 	stmdbcs	r4, {r3, r4, r5, r6, ip, sp}^
    663c:	45525f00 	ldrbmi	r5, [r2, #-3840]	; 0xfffff100
    6640:	5f544e45 	svcpl	0x00544e45
    6644:	54494e49 	strbpl	r4, [r9], #-3657	; 0xfffff1b7
    6648:	53494d5f 	movtpl	r4, #40287	; 0x9d5f
    664c:	61762843 	cmnvs	r6, r3, asr #16
    6650:	64202972 	strtvs	r2, [r0], #-2418	; 0xfffff68e
    6654:	207b206f 	rsbscs	r2, fp, pc, rrx
    6658:	75727473 	ldrbvc	r7, [r2, #-1139]!	; 0xfffffb8d
    665c:	5f207463 	svcpl	0x00207463
    6660:	6e656572 	mcrvs	5, 3, r6, cr5, cr2, {3}
    6664:	5f2a2074 	svcpl	0x002a2074
    6668:	203d2072 	eorscs	r2, sp, r2, ror r0
    666c:	72617628 	rsbvc	r7, r1, #40, 12	; 0x2800000
    6670:	5f203b29 	svcpl	0x00203b29
    6674:	5f3e2d72 	svcpl	0x003e2d72
    6678:	6373696d 	cmnvs	r3, #1785856	; 0x1b4000
    667c:	735f3e2d 	cmpvc	pc, #720	; 0x2d0
    6680:	6f747274 	svcvs	0x00747274
    6684:	616c5f6b 	cmnvs	ip, fp, ror #30
    6688:	3d207473 	cfstrscc	mvf7, [r0, #-460]!	; 0xfffffe34
    668c:	554e5f20 	strbpl	r5, [lr, #-3872]	; 0xfffff0e0
    6690:	203b4c4c 	eorscs	r4, fp, ip, asr #24
    6694:	3e2d725f 	mcrcc	2, 1, r7, cr13, cr15, {2}
    6698:	73696d5f 	cmnvc	r9, #6080	; 0x17c0
    669c:	5f3e2d63 	svcpl	0x003e2d63
    66a0:	656c626d 	strbvs	r6, [ip, #-621]!	; 0xfffffd93
    66a4:	74735f6e 	ldrbtvc	r5, [r3], #-3950	; 0xfffff092
    66a8:	2e657461 	cdpcs	4, 6, cr7, cr5, cr1, {3}
    66ac:	6f635f5f 	svcvs	0x00635f5f
    66b0:	20746e75 	rsbscs	r6, r4, r5, ror lr
    66b4:	3b30203d 	blcc	c0e7b0 <_Min_Stack_Size+0xc0e3b0>
    66b8:	2d725f20 	ldclcs	15, cr5, [r2, #-128]!	; 0xffffff80
    66bc:	696d5f3e 	stmdbvs	sp!, {r1, r2, r3, r4, r5, r8, r9, sl, fp, ip, lr}^
    66c0:	3e2d6373 	mcrcc	3, 1, r6, cr13, cr3, {3}
    66c4:	6c626d5f 	stclvs	13, cr6, [r2], #-380	; 0xfffffe84
    66c8:	735f6e65 	cmpvc	pc, #1616	; 0x650
    66cc:	65746174 	ldrbvs	r6, [r4, #-372]!	; 0xfffffe8c
    66d0:	765f5f2e 	ldrbvc	r5, [pc], -lr, lsr #30
    66d4:	65756c61 	ldrbvs	r6, [r5, #-3169]!	; 0xfffff39f
    66d8:	775f5f2e 	ldrbvc	r5, [pc, -lr, lsr #30]
    66dc:	3d206863 	stccc	8, cr6, [r0, #-396]!	; 0xfffffe74
    66e0:	203b3020 	eorscs	r3, fp, r0, lsr #32
    66e4:	3e2d725f 	mcrcc	2, 1, r7, cr13, cr15, {2}
    66e8:	73696d5f 	cmnvc	r9, #6080	; 0x17c0
    66ec:	5f3e2d63 	svcpl	0x003e2d63
    66f0:	6f746377 	svcvs	0x00746377
    66f4:	735f626d 	cmpvc	pc, #-805306362	; 0xd0000006
    66f8:	65746174 	ldrbvs	r6, [r4, #-372]!	; 0xfffffe8c
    66fc:	635f5f2e 	cmpvs	pc, #46, 30	; 0xb8
    6700:	746e756f 	strbtvc	r7, [lr], #-1391	; 0xfffffa91
    6704:	30203d20 	eorcc	r3, r0, r0, lsr #26
    6708:	725f203b 	subsvc	r2, pc, #59	; 0x3b
    670c:	6d5f3e2d 	ldclvs	14, cr3, [pc, #-180]	; 6660 <_Min_Stack_Size+0x6260>
    6710:	2d637369 	stclcs	3, cr7, [r3, #-420]!	; 0xfffffe5c
    6714:	63775f3e 	cmnvs	r7, #62, 30	; 0xf8
    6718:	626d6f74 	rsbvs	r6, sp, #116, 30	; 0x1d0
    671c:	6174735f 	cmnvs	r4, pc, asr r3
    6720:	5f2e6574 	svcpl	0x002e6574
    6724:	6c61765f 	stclvs	6, cr7, [r1], #-380	; 0xfffffe84
    6728:	5f2e6575 	svcpl	0x002e6575
    672c:	6863775f 	stmdavs	r3!, {r0, r1, r2, r3, r4, r6, r8, r9, sl, ip, sp, lr}^
    6730:	30203d20 	eorcc	r3, r0, r0, lsr #26
    6734:	725f203b 	subsvc	r2, pc, #59	; 0x3b
    6738:	6d5f3e2d 	ldclvs	14, cr3, [pc, #-180]	; 668c <_Min_Stack_Size+0x628c>
    673c:	2d637369 	stclcs	3, cr7, [r3, #-420]!	; 0xfffffe5c
    6740:	626d5f3e 	rsbvs	r5, sp, #62, 30	; 0xf8
    6744:	63776f74 	cmnvs	r7, #116, 30	; 0x1d0
    6748:	6174735f 	cmnvs	r4, pc, asr r3
    674c:	5f2e6574 	svcpl	0x002e6574
    6750:	756f635f 	strbvc	r6, [pc, #-863]!	; 63f9 <_Min_Stack_Size+0x5ff9>
    6754:	3d20746e 	cfstrscc	mvf7, [r0, #-440]!	; 0xfffffe48
    6758:	203b3020 	eorscs	r3, fp, r0, lsr #32
    675c:	3e2d725f 	mcrcc	2, 1, r7, cr13, cr15, {2}
    6760:	73696d5f 	cmnvc	r9, #6080	; 0x17c0
    6764:	5f3e2d63 	svcpl	0x003e2d63
    6768:	6f74626d 	svcvs	0x0074626d
    676c:	735f6377 	cmpvc	pc, #-603979775	; 0xdc000001
    6770:	65746174 	ldrbvs	r6, [r4, #-372]!	; 0xfffffe8c
    6774:	765f5f2e 	ldrbvc	r5, [pc], -lr, lsr #30
    6778:	65756c61 	ldrbvs	r6, [r5, #-3169]!	; 0xfffff39f
    677c:	775f5f2e 	ldrbvc	r5, [pc, -lr, lsr #30]
    6780:	3d206863 	stccc	8, cr6, [r0, #-396]!	; 0xfffffe74
    6784:	203b3020 	eorscs	r3, fp, r0, lsr #32
    6788:	3e2d725f 	mcrcc	2, 1, r7, cr13, cr15, {2}
    678c:	73696d5f 	cmnvc	r9, #6080	; 0x17c0
    6790:	5f3e2d63 	svcpl	0x003e2d63
    6794:	6c72626d 	lfmvs	f6, 2, [r2], #-436	; 0xfffffe4c
    6798:	735f6e65 	cmpvc	pc, #1616	; 0x650
    679c:	65746174 	ldrbvs	r6, [r4, #-372]!	; 0xfffffe8c
    67a0:	635f5f2e 	cmpvs	pc, #46, 30	; 0xb8
    67a4:	746e756f 	strbtvc	r7, [lr], #-1391	; 0xfffffa91
    67a8:	30203d20 	eorcc	r3, r0, r0, lsr #26
    67ac:	725f203b 	subsvc	r2, pc, #59	; 0x3b
    67b0:	6d5f3e2d 	ldclvs	14, cr3, [pc, #-180]	; 6704 <_Min_Stack_Size+0x6304>
    67b4:	2d637369 	stclcs	3, cr7, [r3, #-420]!	; 0xfffffe5c
    67b8:	626d5f3e 	rsbvs	r5, sp, #62, 30	; 0xf8
    67bc:	6e656c72 	mcrvs	12, 3, r6, cr5, cr2, {3}
    67c0:	6174735f 	cmnvs	r4, pc, asr r3
    67c4:	5f2e6574 	svcpl	0x002e6574
    67c8:	6c61765f 	stclvs	6, cr7, [r1], #-380	; 0xfffffe84
    67cc:	5f2e6575 	svcpl	0x002e6575
    67d0:	6863775f 	stmdavs	r3!, {r0, r1, r2, r3, r4, r6, r8, r9, sl, ip, sp, lr}^
    67d4:	30203d20 	eorcc	r3, r0, r0, lsr #26
    67d8:	725f203b 	subsvc	r2, pc, #59	; 0x3b
    67dc:	6d5f3e2d 	ldclvs	14, cr3, [pc, #-180]	; 6730 <_Min_Stack_Size+0x6330>
    67e0:	2d637369 	stclcs	3, cr7, [r3, #-420]!	; 0xfffffe5c
    67e4:	626d5f3e 	rsbvs	r5, sp, #62, 30	; 0xf8
    67e8:	776f7472 			; <UNDEFINED> instruction: 0x776f7472
    67ec:	74735f63 	ldrbtvc	r5, [r3], #-3939	; 0xfffff09d
    67f0:	2e657461 	cdpcs	4, 6, cr7, cr5, cr1, {3}
    67f4:	6f635f5f 	svcvs	0x00635f5f
    67f8:	20746e75 	rsbscs	r6, r4, r5, ror lr
    67fc:	3b30203d 	blcc	c0e8f8 <_Min_Stack_Size+0xc0e4f8>
    6800:	2d725f20 	ldclcs	15, cr5, [r2, #-128]!	; 0xffffff80
    6804:	696d5f3e 	stmdbvs	sp!, {r1, r2, r3, r4, r5, r8, r9, sl, fp, ip, lr}^
    6808:	3e2d6373 	mcrcc	3, 1, r6, cr13, cr3, {3}
    680c:	72626d5f 	rsbvc	r6, r2, #6080	; 0x17c0
    6810:	63776f74 	cmnvs	r7, #116, 30	; 0x1d0
    6814:	6174735f 	cmnvs	r4, pc, asr r3
    6818:	5f2e6574 	svcpl	0x002e6574
    681c:	6c61765f 	stclvs	6, cr7, [r1], #-380	; 0xfffffe84
    6820:	5f2e6575 	svcpl	0x002e6575
    6824:	6863775f 	stmdavs	r3!, {r0, r1, r2, r3, r4, r6, r8, r9, sl, ip, sp, lr}^
    6828:	30203d20 	eorcc	r3, r0, r0, lsr #26
    682c:	725f203b 	subsvc	r2, pc, #59	; 0x3b
    6830:	6d5f3e2d 	ldclvs	14, cr3, [pc, #-180]	; 6784 <_Min_Stack_Size+0x6384>
    6834:	2d637369 	stclcs	3, cr7, [r3, #-420]!	; 0xfffffe5c
    6838:	626d5f3e 	rsbvs	r5, sp, #62, 30	; 0xf8
    683c:	6f747273 	svcvs	0x00747273
    6840:	5f736377 	svcpl	0x00736377
    6844:	74617473 	strbtvc	r7, [r1], #-1139	; 0xfffffb8d
    6848:	5f5f2e65 	svcpl	0x005f2e65
    684c:	6e756f63 	cdpvs	15, 7, cr6, cr5, cr3, {3}
    6850:	203d2074 	eorscs	r2, sp, r4, ror r0
    6854:	5f203b30 	svcpl	0x00203b30
    6858:	5f3e2d72 	svcpl	0x003e2d72
    685c:	6373696d 	cmnvs	r3, #1785856	; 0x1b4000
    6860:	6d5f3e2d 	ldclvs	14, cr3, [pc, #-180]	; 67b4 <_Min_Stack_Size+0x63b4>
    6864:	74727362 	ldrbtvc	r7, [r2], #-866	; 0xfffffc9e
    6868:	7363776f 	cmnvc	r3, #29097984	; 0x1bc0000
    686c:	6174735f 	cmnvs	r4, pc, asr r3
    6870:	5f2e6574 	svcpl	0x002e6574
    6874:	6c61765f 	stclvs	6, cr7, [r1], #-380	; 0xfffffe84
    6878:	5f2e6575 	svcpl	0x002e6575
    687c:	6863775f 	stmdavs	r3!, {r0, r1, r2, r3, r4, r6, r8, r9, sl, ip, sp, lr}^
    6880:	30203d20 	eorcc	r3, r0, r0, lsr #26
    6884:	725f203b 	subsvc	r2, pc, #59	; 0x3b
    6888:	6d5f3e2d 	ldclvs	14, cr3, [pc, #-180]	; 67dc <_Min_Stack_Size+0x63dc>
    688c:	2d637369 	stclcs	3, cr7, [r3, #-420]!	; 0xfffffe5c
    6890:	63775f3e 	cmnvs	r7, #62, 30	; 0xf8
    6894:	6d6f7472 	cfstrdvs	mvd7, [pc, #-456]!	; 66d4 <_Min_Stack_Size+0x62d4>
    6898:	74735f62 	ldrbtvc	r5, [r3], #-3938	; 0xfffff09e
    689c:	2e657461 	cdpcs	4, 6, cr7, cr5, cr1, {3}
    68a0:	6f635f5f 	svcvs	0x00635f5f
    68a4:	20746e75 	rsbscs	r6, r4, r5, ror lr
    68a8:	3b30203d 	blcc	c0e9a4 <_Min_Stack_Size+0xc0e5a4>
    68ac:	2d725f20 	ldclcs	15, cr5, [r2, #-128]!	; 0xffffff80
    68b0:	696d5f3e 	stmdbvs	sp!, {r1, r2, r3, r4, r5, r8, r9, sl, fp, ip, lr}^
    68b4:	3e2d6373 	mcrcc	3, 1, r6, cr13, cr3, {3}
    68b8:	7263775f 	rsbvc	r7, r3, #24903680	; 0x17c0000
    68bc:	626d6f74 	rsbvs	r6, sp, #116, 30	; 0x1d0
    68c0:	6174735f 	cmnvs	r4, pc, asr r3
    68c4:	5f2e6574 	svcpl	0x002e6574
    68c8:	6c61765f 	stclvs	6, cr7, [r1], #-380	; 0xfffffe84
    68cc:	5f2e6575 	svcpl	0x002e6575
    68d0:	6863775f 	stmdavs	r3!, {r0, r1, r2, r3, r4, r6, r8, r9, sl, ip, sp, lr}^
    68d4:	30203d20 	eorcc	r3, r0, r0, lsr #26
    68d8:	725f203b 	subsvc	r2, pc, #59	; 0x3b
    68dc:	6d5f3e2d 	ldclvs	14, cr3, [pc, #-180]	; 6830 <_Min_Stack_Size+0x6430>
    68e0:	2d637369 	stclcs	3, cr7, [r3, #-420]!	; 0xfffffe5c
    68e4:	63775f3e 	cmnvs	r7, #62, 30	; 0xf8
    68e8:	6f747273 	svcvs	0x00747273
    68ec:	5f73626d 	svcpl	0x0073626d
    68f0:	74617473 	strbtvc	r7, [r1], #-1139	; 0xfffffb8d
    68f4:	5f5f2e65 	svcpl	0x005f2e65
    68f8:	6e756f63 	cdpvs	15, 7, cr6, cr5, cr3, {3}
    68fc:	203d2074 	eorscs	r2, sp, r4, ror r0
    6900:	5f203b30 	svcpl	0x00203b30
    6904:	5f3e2d72 	svcpl	0x003e2d72
    6908:	6373696d 	cmnvs	r3, #1785856	; 0x1b4000
    690c:	775f3e2d 	ldrbvc	r3, [pc, -sp, lsr #28]
    6910:	74727363 	ldrbtvc	r7, [r2], #-867	; 0xfffffc9d
    6914:	73626d6f 	cmnvc	r2, #7104	; 0x1bc0
    6918:	6174735f 	cmnvs	r4, pc, asr r3
    691c:	5f2e6574 	svcpl	0x002e6574
    6920:	6c61765f 	stclvs	6, cr7, [r1], #-380	; 0xfffffe84
    6924:	5f2e6575 	svcpl	0x002e6575
    6928:	6863775f 	stmdavs	r3!, {r0, r1, r2, r3, r4, r6, r8, r9, sl, ip, sp, lr}^
    692c:	30203d20 	eorcc	r3, r0, r0, lsr #26
    6930:	725f203b 	subsvc	r2, pc, #59	; 0x3b
    6934:	6d5f3e2d 	ldclvs	14, cr3, [pc, #-180]	; 6888 <_Min_Stack_Size+0x6488>
    6938:	2d637369 	stclcs	3, cr7, [r3, #-420]!	; 0xfffffe5c
    693c:	366c5f3e 	uqasxcc	r5, ip, lr
    6940:	625f6134 	subsvs	r6, pc, #52, 2
    6944:	305b6675 	subscc	r6, fp, r5, ror r6
    6948:	203d205d 	eorscs	r2, sp, sp, asr r0
    694c:	27305c27 	ldrcs	r5, [r0, -r7, lsr #24]!
    6950:	725f203b 	subsvc	r2, pc, #59	; 0x3b
    6954:	6d5f3e2d 	ldclvs	14, cr3, [pc, #-180]	; 68a8 <_Min_Stack_Size+0x64a8>
    6958:	2d637369 	stclcs	3, cr7, [r3, #-420]!	; 0xfffffe5c
    695c:	65675f3e 	strbvs	r5, [r7, #-3902]!	; 0xfffff0c2
    6960:	74616474 	strbtvc	r6, [r1], #-1140	; 0xfffffb8c
    6964:	72655f65 	rsbvc	r5, r5, #404	; 0x194
    6968:	203d2072 	eorscs	r2, sp, r2, ror r0
    696c:	7d203b30 	vstmdbvc	r0!, {d3-d26}
    6970:	69687720 	stmdbvs	r8!, {r5, r8, r9, sl, ip, sp, lr}^
    6974:	2820656c 	stmdacs	r0!, {r2, r3, r5, r6, r8, sl, sp, lr}
    6978:	5f002930 	svcpl	0x00002930
    697c:	4953585f 	ldmdbmi	r3, {r0, r1, r2, r3, r4, r6, fp, ip, lr}^
    6980:	5349565f 	movtpl	r5, #38495	; 0x965f
    6984:	454c4249 	strbmi	r4, [ip, #-585]	; 0xfffffdb7
    6988:	5f003020 	svcpl	0x00003020
    698c:	696c615f 	stmdbvs	ip!, {r0, r1, r2, r3, r4, r6, r8, sp, lr}^
    6990:	64656e67 	strbtvs	r6, [r5], #-3687	; 0xfffff199
    6994:	20297828 	eorcs	r7, r9, r8, lsr #16
    6998:	74615f5f 	strbtvc	r5, [r1], #-3935	; 0xfffff0a1
    699c:	62697274 	rsbvs	r7, r9, #116, 4	; 0x40000007
    69a0:	5f657475 	svcpl	0x00657475
    69a4:	5f28285f 	svcpl	0x0028285f
    69a8:	696c615f 	stmdbvs	ip!, {r0, r1, r2, r3, r4, r6, r8, sp, lr}^
    69ac:	64656e67 	strbtvs	r6, [r5], #-3687	; 0xfffff199
    69b0:	78285f5f 	stmdavc	r8!, {r0, r1, r2, r3, r4, r6, r8, r9, sl, fp, ip, lr}
    69b4:	00292929 	eoreq	r2, r9, r9, lsr #18
    69b8:	6f6c5f5f 	svcvs	0x006c5f5f
    69bc:	5f736b63 	svcpl	0x00736b63
    69c0:	6c637865 	stclvs	8, cr7, [r3], #-404	; 0xfffffe6c
    69c4:	76697375 			; <UNDEFINED> instruction: 0x76697375
    69c8:	2e2e2865 	cdpcs	8, 2, cr2, cr14, cr5, {3}
    69cc:	5f20292e 	svcpl	0x0020292e
    69d0:	636f6c5f 	cmnvs	pc, #24320	; 0x5f00
    69d4:	6e615f6b 	cdpvs	15, 6, cr5, cr1, cr11, {3}
    69d8:	61746f6e 	cmnvs	r4, lr, ror #30
    69dc:	65286574 	strvs	r6, [r8, #-1396]!	; 0xfffffa8c
    69e0:	756c6378 	strbvc	r6, [ip, #-888]!	; 0xfffffc88
    69e4:	65766973 	ldrbvs	r6, [r6, #-2419]!	; 0xfffff68d
    69e8:	636f6c5f 	cmnvs	pc, #24320	; 0x5f00
    69ec:	75665f6b 	strbvc	r5, [r6, #-3947]!	; 0xfffff095
    69f0:	6974636e 	ldmdbvs	r4!, {r1, r2, r3, r5, r6, r8, r9, sp, lr}^
    69f4:	5f286e6f 	svcpl	0x00286e6f
    69f8:	5f41565f 	svcpl	0x0041565f
    69fc:	53475241 	movtpl	r5, #29249	; 0x7241
    6a00:	29295f5f 	stmdbcs	r9!, {r0, r1, r2, r3, r4, r6, r8, r9, sl, fp, ip, lr}
    6a04:	44434c00 	strbmi	r4, [r3], #-3072	; 0xfffff400
    6a08:	4745425f 	smlsldmi	r4, r5, pc, r2	; <UNPREDICTABLE>
    6a0c:	415f4e49 	cmpmi	pc, r9, asr #28
    6a10:	45535f54 	ldrbmi	r5, [r3, #-3924]	; 0xfffff0ac
    6a14:	444e4f43 	strbmi	r4, [lr], #-3907	; 0xfffff0bd
    6a18:	574f525f 	smlsldpl	r5, pc, pc, r2	; <UNPREDICTABLE>
    6a1c:	78302820 	ldmdavc	r0!, {r5, fp, sp}
    6a20:	00293043 	eoreq	r3, r9, r3, asr #32
    6a24:	5f44434c 	svcpl	0x0044434c
    6a28:	52544e45 	subspl	r4, r4, #1104	; 0x450
    6a2c:	45445f59 	strbmi	r5, [r4, #-3929]	; 0xfffff0a7
    6a30:	30282043 	eorcc	r2, r8, r3, asr #32
    6a34:	29343078 	ldmdbcs	r4!, {r3, r4, r5, r6, ip, sp}
    6a38:	45525f00 	ldrbmi	r5, [r2, #-3840]	; 0xfffff100
    6a3c:	5f544e45 	svcpl	0x00544e45
    6a40:	52534357 	subspl	r4, r3, #1543503873	; 0x5c000001
    6a44:	424d4f54 	submi	r4, sp, #84, 30	; 0x150
    6a48:	54535f53 	ldrbpl	r5, [r3], #-3923	; 0xfffff0ad
    6a4c:	28455441 	stmdacs	r5, {r0, r6, sl, ip, lr}^
    6a50:	29727470 	ldmdbcs	r2!, {r4, r5, r6, sl, ip, sp, lr}^
    6a54:	70282820 	eorvc	r2, r8, r0, lsr #16
    6a58:	2d297274 	sfmcs	f7, 4, [r9, #-464]!	; 0xfffffe30
    6a5c:	696d5f3e 	stmdbvs	sp!, {r1, r2, r3, r4, r5, r8, r9, sl, fp, ip, lr}^
    6a60:	3e2d6373 	mcrcc	3, 1, r6, cr13, cr3, {3}
    6a64:	7363775f 	cmnvc	r3, #24903680	; 0x17c0000
    6a68:	6d6f7472 	cfstrdvs	mvd7, [pc, #-456]!	; 68a8 <_Min_Stack_Size+0x64a8>
    6a6c:	735f7362 	cmpvc	pc, #-2013265919	; 0x88000001
    6a70:	65746174 	ldrbvs	r6, [r4, #-372]!	; 0xfffffe8c
    6a74:	5f5f0029 	svcpl	0x005f0029
    6a78:	6f626e75 	svcvs	0x00626e75
    6a7c:	65646e75 	strbvs	r6, [r4, #-3701]!	; 0xfffff18b
    6a80:	42002064 	andmi	r2, r0, #100	; 0x64
    6a84:	49534655 	ldmdbmi	r3, {r0, r2, r4, r6, r9, sl, lr}^
    6a88:	3031205a 	eorscc	r2, r1, sl, asr r0
    6a8c:	5f003432 	svcpl	0x00003432
    6a90:	6975625f 	ldmdbvs	r5!, {r0, r1, r2, r3, r4, r6, r9, sp, lr}^
    6a94:	6e69746c 	cdpvs	4, 6, cr7, cr9, cr12, {3}
    6a98:	696c615f 	stmdbvs	ip!, {r0, r1, r2, r3, r4, r6, r8, sp, lr}^
    6a9c:	645f6e67 	ldrbvs	r6, [pc], #-3687	; 6aa4 <_Min_Stack_Size+0x66a4>
    6aa0:	286e776f 	stmdacs	lr!, {r0, r1, r2, r3, r5, r6, r8, r9, sl, ip, sp, lr}^
    6aa4:	6c612c78 	stclvs	12, cr2, [r1], #-480	; 0xfffffe20
    6aa8:	296e6769 	stmdbcs	lr!, {r0, r3, r5, r6, r8, r9, sl, sp, lr}^
    6aac:	5f282820 	svcpl	0x00282820
    6ab0:	7079745f 	rsbsvc	r7, r9, pc, asr r4
    6ab4:	5f666f65 	svcpl	0x00666f65
    6ab8:	2978285f 	ldmdbcs	r8!, {r0, r1, r2, r3, r4, r6, fp, sp}^
    6abc:	78282829 	stmdavc	r8!, {r0, r3, r5, fp, sp}
    6ac0:	7e282629 	cfmadda32vc	mvax1, mvax2, mvfx8, mvfx9
    6ac4:	6c612828 	stclvs	8, cr2, [r1], #-160	; 0xffffff60
    6ac8:	296e6769 	stmdbcs	lr!, {r0, r3, r5, r6, r8, r9, sl, sp, lr}^
    6acc:	2929312d 	stmdbcs	r9!, {r0, r2, r3, r5, r8, ip, sp}
    6ad0:	4b002929 	blmi	10f7c <_Min_Stack_Size+0x10b7c>
    6ad4:	435f4450 	cmpmi	pc, #80, 8	; 0x50000000
    6ad8:	4d554c4f 	ldclmi	12, cr4, [r5, #-316]	; 0xfffffec4
    6adc:	505f304e 	subspl	r3, pc, lr, asr #32
    6ae0:	47204e49 	strmi	r4, [r0, -r9, asr #28]!
    6ae4:	5f4f4950 	svcpl	0x004f4950
    6ae8:	5f4e4950 	svcpl	0x004e4950
    6aec:	504b0035 	subpl	r0, fp, r5, lsr r0
    6af0:	4f435f44 	svcmi	0x00435f44
    6af4:	4e4d554c 	cdpmi	5, 4, cr5, cr13, cr12, {2}
    6af8:	49505f32 	ldmdbmi	r0, {r1, r4, r5, r8, r9, sl, fp, ip, lr}^
    6afc:	5047204e 	subpl	r2, r7, lr, asr #32
    6b00:	505f4f49 	subspl	r4, pc, r9, asr #30
    6b04:	375f4e49 	ldrbcc	r4, [pc, -r9, asr #28]
    6b08:	464f5f00 	strbmi	r5, [pc], -r0, lsl #30
    6b0c:	5f545f46 	svcpl	0x00545f46
    6b10:	4c434544 	cfstr64mi	mvdx4, [r3], {68}	; 0x44
    6b14:	44455241 	strbmi	r5, [r5], #-577	; 0xfffffdbf
    6b18:	5f5f0020 	svcpl	0x005f0020
    6b1c:	6465656e 	strbtvs	r6, [r5], #-1390	; 0xfffffa92
    6b20:	6863775f 	stmdavs	r3!, {r0, r1, r2, r3, r4, r6, r8, r9, sl, ip, sp, lr}^
    6b24:	745f7261 	ldrbvc	r7, [pc], #-609	; 6b2c <_Min_Stack_Size+0x672c>
    6b28:	725f5f00 	subsvc	r5, pc, #0, 30
    6b2c:	6c757365 	ldclvs	3, cr7, [r5], #-404	; 0xfffffe6c
    6b30:	73755f74 	cmnvc	r5, #116, 30	; 0x1d0
    6b34:	68635f65 	stmdavs	r3!, {r0, r2, r5, r6, r8, r9, sl, fp, ip, lr}^
    6b38:	206b6365 	rsbcs	r6, fp, r5, ror #6
    6b3c:	74615f5f 	strbtvc	r5, [r1], #-3935	; 0xfffff0a1
    6b40:	62697274 	rsbvs	r7, r9, #116, 4	; 0x40000007
    6b44:	5f657475 	svcpl	0x00657475
    6b48:	5f28285f 	svcpl	0x0028285f
    6b4c:	7261775f 	rsbvc	r7, r1, #24903680	; 0x17c0000
    6b50:	6e755f6e 	cdpvs	15, 7, cr5, cr5, cr14, {3}
    6b54:	64657375 	strbtvs	r7, [r5], #-885	; 0xfffffc8b
    6b58:	7365725f 	cmnvc	r5, #-268435451	; 0xf0000005
    6b5c:	5f746c75 	svcpl	0x00746c75
    6b60:	0029295f 	eoreq	r2, r9, pc, asr r9
    6b64:	6c615f5f 	stclvs	15, cr5, [r1], #-380	; 0xfffffe84
    6b68:	5f6e6769 	svcpl	0x006e6769
    6b6c:	6e776f64 	cdpvs	15, 7, cr6, cr7, cr4, {3}
    6b70:	792c7828 	stmdbvc	ip!, {r3, r5, fp, ip, sp, lr}
    6b74:	5f5f2029 	svcpl	0x005f2029
    6b78:	6c697562 	cfstr64vs	mvdx7, [r9], #-392	; 0xfffffe78
    6b7c:	5f6e6974 	svcpl	0x006e6974
    6b80:	67696c61 	strbvs	r6, [r9, -r1, ror #24]!
    6b84:	6f645f6e 	svcvs	0x00645f6e
    6b88:	78286e77 	stmdavc	r8!, {r0, r1, r2, r4, r5, r6, r9, sl, fp, sp, lr}
    6b8c:	2979202c 	ldmdbcs	r9!, {r2, r3, r5, sp}^
    6b90:	535f5f00 	cmppl	pc, #0, 30
    6b94:	20505041 	subscs	r5, r0, r1, asr #32
    6b98:	31307830 	teqcc	r0, r0, lsr r8
    6b9c:	5f003030 	svcpl	0x00003030
    6ba0:	756f625f 	strbvc	r6, [pc, #-607]!	; 6949 <_Min_Stack_Size+0x6549>
    6ba4:	6465646e 	strbtvs	r6, [r5], #-1134	; 0xfffffb92
    6ba8:	5f5f0020 	svcpl	0x005f0020
    6bac:	6b636f6c 	blvs	18e2964 <_Min_Stack_Size+0x18e2564>
    6bb0:	7972745f 	ldmdbvc	r2!, {r0, r1, r2, r3, r4, r6, sl, ip, sp, lr}^
    6bb4:	7163615f 	cmnvc	r3, pc, asr r1
    6bb8:	65726975 	ldrbvs	r6, [r2, #-2421]!	; 0xfffff68b
    6bbc:	636f6c28 	cmnvs	pc, #40, 24	; 0x2800
    6bc0:	5f20296b 	svcpl	0x0020296b
    6bc4:	7465725f 	strbtvc	r7, [r5], #-607	; 0xfffffda1
    6bc8:	65677261 	strbvs	r7, [r7, #-609]!	; 0xfffffd9f
    6bcc:	6f6c5f74 	svcvs	0x006c5f74
    6bd0:	745f6b63 	ldrbvc	r6, [pc], #-2915	; 6bd8 <_Min_Stack_Size+0x67d8>
    6bd4:	615f7972 	cmpvs	pc, r2, ror r9	; <UNPREDICTABLE>
    6bd8:	69757163 	ldmdbvs	r5!, {r0, r1, r5, r6, r8, ip, sp, lr}^
    6bdc:	6c286572 	cfstr32vs	mvfx6, [r8], #-456	; 0xfffffe38
    6be0:	296b636f 	stmdbcs	fp!, {r0, r1, r2, r3, r5, r6, r8, r9, sp, lr}^
    6be4:	44504b00 	ldrbmi	r4, [r0], #-2816	; 0xfffff500
    6be8:	4c4f435f 	mcrrmi	3, 5, r4, pc, cr15
    6bec:	5f4e4d55 	svcpl	0x004e4d55
    6bf0:	54524f50 	ldrbpl	r4, [r2], #-3920	; 0xfffff0b0
    6bf4:	49504720 	ldmdbmi	r0, {r5, r8, r9, sl, lr}^
    6bf8:	4b00424f 	blmi	1753c <_Min_Stack_Size+0x1713c>
    6bfc:	435f4450 	cmpmi	pc, #80, 8	; 0x50000000
    6c00:	4d554c4f 	ldclmi	12, cr4, [r5, #-316]	; 0xfffffec4
    6c04:	505f334e 	subspl	r3, pc, lr, asr #6
    6c08:	47204e49 	strmi	r4, [r0, -r9, asr #28]!
    6c0c:	5f4f4950 	svcpl	0x004f4950
    6c10:	5f4e4950 	svcpl	0x004e4950
    6c14:	5f5f0038 	svcpl	0x005f0038
    6c18:	434e4f43 	movtmi	r4, #61251	; 0xef43
    6c1c:	28315441 	ldmdacs	r1!, {r0, r6, sl, ip, lr}
    6c20:	29792c78 	ldmdbcs	r9!, {r3, r4, r5, r6, sl, fp, sp}^
    6c24:	23207820 			; <UNDEFINED> instruction: 0x23207820
    6c28:	00792023 	rsbseq	r2, r9, r3, lsr #32
    6c2c:	535f545f 	cmppl	pc, #1593835520	; 0x5f000000
    6c30:	20455a49 	subcs	r5, r5, r9, asr #20
    6c34:	535f5f00 	cmppl	pc, #0, 30
    6c38:	20525453 	subscs	r5, r2, r3, asr r4
    6c3c:	32307830 	eorscc	r7, r0, #48, 16	; 0x300000
    6c40:	5f003030 	svcpl	0x00003030
    6c44:	424d535f 	submi	r5, sp, #2080374785	; 0x7c000001
    6c48:	78302046 	ldmdavc	r0!, {r1, r2, r6, sp}
    6c4c:	30383030 	eorscc	r3, r8, r0, lsr r0
    6c50:	45525f00 	ldrbmi	r5, [r2, #-3840]	; 0xfffff100
    6c54:	5f544e45 	svcpl	0x00544e45
    6c58:	4e474953 			; <UNDEFINED> instruction: 0x4e474953
    6c5c:	425f4c41 	subsmi	r4, pc, #16640	; 0x4100
    6c60:	70284655 	eorvc	r4, r8, r5, asr r6
    6c64:	20297274 	eorcs	r7, r9, r4, ror r2
    6c68:	74702828 	ldrbtvc	r2, [r0], #-2088	; 0xfffff7d8
    6c6c:	3e2d2972 			; <UNDEFINED> instruction: 0x3e2d2972
    6c70:	6769735f 			; <UNDEFINED> instruction: 0x6769735f
    6c74:	5f6c616e 	svcpl	0x006c616e
    6c78:	29667562 	stmdbcs	r6!, {r1, r5, r6, r8, sl, ip, sp, lr}^
    6c7c:	775f5f00 	ldrbvc	r5, [pc, -r0, lsl #30]
    6c80:	5f6b6165 	svcpl	0x006b6165
    6c84:	65666572 	strbvs	r6, [r6, #-1394]!	; 0xfffffa8e
    6c88:	636e6572 	cmnvs	lr, #478150656	; 0x1c800000
    6c8c:	79732865 	ldmdbvc	r3!, {r0, r2, r5, r6, fp, sp}^
    6c90:	6c612c6d 	stclvs	12, cr2, [r1], #-436	; 0xfffffe4c
    6c94:	29736169 	ldmdbcs	r3!, {r0, r3, r5, r6, r8, sp, lr}^
    6c98:	615f5f20 	cmpvs	pc, r0, lsr #30
    6c9c:	5f5f6d73 	svcpl	0x005f6d73
    6ca0:	772e2228 	strvc	r2, [lr, -r8, lsr #4]!
    6ca4:	206b6165 	rsbcs	r6, fp, r5, ror #2
    6ca8:	61232022 			; <UNDEFINED> instruction: 0x61232022
    6cac:	7361696c 	cmnvc	r1, #108, 18	; 0x1b0000
    6cb0:	5f203b29 	svcpl	0x00203b29
    6cb4:	6d73615f 	ldfvse	f6, [r3, #-380]!	; 0xfffffe84
    6cb8:	22285f5f 	eorcs	r5, r8, #380	; 0x17c
    6cbc:	7571652e 	ldrbvc	r6, [r1, #-1326]!	; 0xfffffad2
    6cc0:	23202220 			; <UNDEFINED> instruction: 0x23202220
    6cc4:	61696c61 	cmnvs	r9, r1, ror #24
    6cc8:	2c222073 	stccs	0, cr2, [r2], #-460	; 0xfffffe34
    6ccc:	23202220 			; <UNDEFINED> instruction: 0x23202220
    6cd0:	296d7973 	stmdbcs	sp!, {r0, r1, r4, r5, r6, r8, fp, ip, sp, lr}^
    6cd4:	745f4c00 	ldrbvc	r4, [pc], #-3072	; 6cdc <_Min_Stack_Size+0x68dc>
    6cd8:	616e706d 	cmnvs	lr, sp, rrx
    6cdc:	4946206d 	stmdbmi	r6, {r0, r2, r3, r5, r6, sp}^
    6ce0:	414e454c 	cmpmi	lr, ip, asr #10
    6ce4:	4d5f454d 	cfldr64mi	mvdx4, [pc, #-308]	; 6bb8 <_Min_Stack_Size+0x67b8>
    6ce8:	5f005841 	svcpl	0x00005841
    6cec:	4c57454e 	cfldr64mi	mvdx4, [r7], {78}	; 0x4e
    6cf0:	535f4249 	cmppl	pc, #-1879048188	; 0x90000004
    6cf4:	4f494454 	svcmi	0x00494454
    6cf8:	0020485f 	eoreq	r4, r0, pc, asr r8
    6cfc:	61685f5f 	cmnvs	r8, pc, asr pc
    6d00:	78655f73 	stmdavc	r5!, {r0, r1, r4, r5, r6, r8, r9, sl, fp, ip, lr}^
    6d04:	736e6574 	cmnvc	lr, #116, 10	; 0x1d000000
    6d08:	206e6f69 	rsbcs	r6, lr, r9, ror #30
    6d0c:	61685f5f 	cmnvs	r8, pc, asr pc
    6d10:	65665f73 	strbvs	r5, [r6, #-3955]!	; 0xfffff08d
    6d14:	72757461 	rsbsvc	r7, r5, #1627389952	; 0x61000000
    6d18:	525f0065 	subspl	r0, pc, #101	; 0x65
    6d1c:	544e4545 	strbpl	r4, [lr], #-1349	; 0xfffffabb
    6d20:	5243575f 	subpl	r5, r3, #24903680	; 0x17c0000
    6d24:	424d4f54 	submi	r4, sp, #84, 30	; 0x150
    6d28:	4154535f 	cmpmi	r4, pc, asr r3
    6d2c:	70284554 	eorvc	r4, r8, r4, asr r5
    6d30:	20297274 	eorcs	r7, r9, r4, ror r2
    6d34:	74702828 	ldrbtvc	r2, [r0], #-2088	; 0xfffff7d8
    6d38:	3e2d2972 			; <UNDEFINED> instruction: 0x3e2d2972
    6d3c:	73696d5f 	cmnvc	r9, #6080	; 0x17c0
    6d40:	5f3e2d63 	svcpl	0x003e2d63
    6d44:	74726377 	ldrbtvc	r6, [r2], #-887	; 0xfffffc89
    6d48:	5f626d6f 	svcpl	0x00626d6f
    6d4c:	74617473 	strbtvc	r7, [r1], #-1139	; 0xfffffb8d
    6d50:	5f002965 	svcpl	0x00002965
    6d54:	57454e5f 	smlsldpl	r4, r5, pc, lr	; <UNPREDICTABLE>
    6d58:	5f42494c 	svcpl	0x0042494c
    6d5c:	205f5f48 	subscs	r5, pc, r8, asr #30
    6d60:	61770031 	cmnvs	r7, r1, lsr r0
    6d64:	6d5f7469 	cfldrdvs	mvd7, [pc, #-420]	; 6bc8 <_Min_Stack_Size+0x67c8>
    6d68:	5f5f0073 	svcpl	0x005f0073
    6d6c:	444e4152 	strbmi	r4, [lr], #-338	; 0xfffffeae
    6d70:	58414d5f 	stmdapl	r1, {r0, r1, r2, r3, r4, r6, r8, sl, fp, lr}^
    6d74:	4f4e5f00 	svcmi	0x004e5f00
    6d78:	494c4e49 	stmdbmi	ip, {r0, r3, r6, r9, sl, fp, lr}^
    6d7c:	535f454e 	cmppl	pc, #327155712	; 0x13800000
    6d80:	49544154 	ldmdbmi	r4, {r2, r4, r6, r8, lr}^
    6d84:	4e5f2043 	cdpmi	0, 5, cr2, cr15, cr3, {2}
    6d88:	4c4e494f 	mcrrmi	9, 4, r4, lr, cr15	; <UNPREDICTABLE>
    6d8c:	20454e49 	subcs	r4, r5, r9, asr #28
    6d90:	74617473 	strbtvc	r7, [r1], #-1139	; 0xfffffb8d
    6d94:	5f006369 	svcpl	0x00006369
    6d98:	554e475f 	strbpl	r4, [lr, #-1887]	; 0xfffff8a1
    6d9c:	4b494c43 	blmi	1259eb0 <_Min_Stack_Size+0x1259ab0>
    6da0:	55425f45 	strbpl	r5, [r2, #-3909]	; 0xfffff0bb
    6da4:	49544c49 	ldmdbmi	r4, {r0, r3, r6, sl, fp, lr}^
    6da8:	4f435f4e 	svcmi	0x00435f4e
    6dac:	4154534e 	cmpmi	r4, lr, asr #6
    6db0:	505f544e 	subspl	r5, pc, lr, asr #8
    6db4:	5f003120 	svcpl	0x00003120
    6db8:	4e454552 	mcrmi	5, 2, r4, cr5, cr2, {2}
    6dbc:	48435f54 	stmdami	r3, {r2, r4, r6, r8, r9, sl, fp, ip, lr}^
    6dc0:	284b4345 	stmdacs	fp, {r0, r2, r6, r8, r9, lr}^
    6dc4:	2c726176 	ldfcse	f6, [r2], #-472	; 0xfffffe28
    6dc8:	74616877 	strbtvc	r6, [r1], #-2167	; 0xfffff789
    6dcc:	7079742c 	rsbsvc	r7, r9, ip, lsr #8
    6dd0:	69732c65 	ldmdbvs	r3!, {r0, r2, r5, r6, sl, fp, sp}^
    6dd4:	692c657a 	stmdbvs	ip!, {r1, r3, r4, r5, r6, r8, sl, sp, lr}
    6dd8:	2974696e 	ldmdbcs	r4!, {r1, r2, r3, r5, r6, r8, fp, sp, lr}^
    6ddc:	206f6420 	rsbcs	r6, pc, r0, lsr #8
    6de0:	7473207b 	ldrbtvc	r2, [r3], #-123	; 0xffffff85
    6de4:	74637572 	strbtvc	r7, [r3], #-1394	; 0xfffffa8e
    6de8:	65725f20 	ldrbvs	r5, [r2, #-3872]!	; 0xfffff0e0
    6dec:	20746e65 	rsbscs	r6, r4, r5, ror #28
    6df0:	20725f2a 	rsbscs	r5, r2, sl, lsr #30
    6df4:	7628203d 			; <UNDEFINED> instruction: 0x7628203d
    6df8:	3b297261 	blcc	a63784 <_Min_Stack_Size+0xa63384>
    6dfc:	20666920 	rsbcs	r6, r6, r0, lsr #18
    6e00:	2d725f28 	ldclcs	15, cr5, [r2, #-160]!	; 0xffffff60
    6e04:	6168773e 	cmnvs	r8, lr, lsr r7
    6e08:	3d3d2074 	ldccc	0, cr2, [sp, #-464]!	; 0xfffffe30
    6e0c:	4c554e20 	mrrcmi	14, 2, r4, r5, cr0
    6e10:	7b20294c 	blvc	811348 <_Min_Stack_Size+0x810f48>
    6e14:	2d725f20 	ldclcs	15, cr5, [r2, #-128]!	; 0xffffff80
    6e18:	6168773e 	cmnvs	r8, lr, lsr r7
    6e1c:	203d2074 	eorscs	r2, sp, r4, ror r0
    6e20:	70797428 	rsbsvc	r7, r9, r8, lsr #8
    6e24:	616d2965 	cmnvs	sp, r5, ror #18
    6e28:	636f6c6c 	cmnvs	pc, #108, 24	; 0x6c00
    6e2c:	7a697328 	bvc	1a63ad4 <_Min_Stack_Size+0x1a636d4>
    6e30:	203b2965 	eorscs	r2, fp, r5, ror #18
    6e34:	65725f5f 	ldrbvs	r5, [r2, #-3935]!	; 0xfffff0a1
    6e38:	5f746e65 	svcpl	0x00746e65
    6e3c:	65737361 	ldrbvs	r7, [r3, #-865]!	; 0xfffffc9f
    6e40:	5f287472 	svcpl	0x00287472
    6e44:	773e2d72 			; <UNDEFINED> instruction: 0x773e2d72
    6e48:	29746168 	ldmdbcs	r4!, {r3, r5, r6, r8, sp, lr}^
    6e4c:	6e69203b 	mcrvs	0, 3, r2, cr9, cr11, {1}
    6e50:	203b7469 	eorscs	r7, fp, r9, ror #8
    6e54:	207d207d 	rsbscs	r2, sp, sp, ror r0
    6e58:	6c696877 	stclvs	8, cr6, [r9], #-476	; 0xfffffe24
    6e5c:	30282065 	eorcc	r2, r8, r5, rrx
    6e60:	4e5f0029 	cdpmi	0, 5, cr0, cr15, cr9, {1}
    6e64:	756e6e6f 	strbvc	r6, [lr, #-3695]!	; 0xfffff191
    6e68:	00206c6c 	eoreq	r6, r0, ip, ror #24
    6e6c:	4e475f5f 	mcrmi	15, 2, r5, cr7, cr15, {2}
    6e70:	505f4355 	subspl	r4, pc, r5, asr r3	; <UNPREDICTABLE>
    6e74:	45524552 	ldrbmi	r4, [r2, #-1362]	; 0xfffffaae
    6e78:	616d2851 	cmnvs	sp, r1, asr r8
    6e7c:	696d2c6a 	stmdbvs	sp!, {r1, r3, r5, r6, sl, fp, sp}^
    6e80:	2820296e 	stmdacs	r0!, {r1, r2, r3, r5, r6, r8, fp, sp}
    6e84:	475f5f28 	ldrbmi	r5, [pc, -r8, lsr #30]
    6e88:	5f43554e 	svcpl	0x0043554e
    6e8c:	3c3c205f 	ldccc	0, cr2, [ip], #-380	; 0xfffffe84
    6e90:	29363120 	ldmdbcs	r6!, {r5, r8, ip, sp}
    6e94:	5f202b20 	svcpl	0x00202b20
    6e98:	554e475f 	strbpl	r4, [lr, #-1887]	; 0xfffff8a1
    6e9c:	494d5f43 	stmdbmi	sp, {r0, r1, r6, r8, r9, sl, fp, ip, lr}^
    6ea0:	5f524f4e 	svcpl	0x00524f4e
    6ea4:	3d3e205f 	ldccc	0, cr2, [lr, #-380]!	; 0xfffffe84
    6ea8:	6d282820 	stcvs	8, cr2, [r8, #-128]!	; 0xffffff80
    6eac:	20296a61 	eorcs	r6, r9, r1, ror #20
    6eb0:	31203c3c 			; <UNDEFINED> instruction: 0x31203c3c
    6eb4:	2b202936 	blcs	811394 <_Min_Stack_Size+0x810f94>
    6eb8:	696d2820 	stmdbvs	sp!, {r5, fp, sp}^
    6ebc:	0029296e 	eoreq	r2, r9, lr, ror #18
    6ec0:	5359535f 	cmppl	r9, #2080374785	; 0x7c000001
    6ec4:	5a49535f 	bpl	125bc48 <_Min_Stack_Size+0x125b848>
    6ec8:	5f545f45 	svcpl	0x00545f45
    6ecc:	5f002048 	svcpl	0x00002048
    6ed0:	4f4e414e 	svcmi	0x004e414e
    6ed4:	4c414d5f 	mcrrmi	13, 5, r4, r1, cr15
    6ed8:	20434f4c 	subcs	r4, r3, ip, asr #30
    6edc:	735f0031 	cmpvc	pc, #49	; 0x31
    6ee0:	72656474 	rsbvc	r6, r5, #116, 8	; 0x74000000
    6ee4:	28725f72 	ldmdacs	r2!, {r1, r4, r5, r6, r8, r9, sl, fp, ip, lr}^
    6ee8:	5f202978 	svcpl	0x00202978
    6eec:	4e454552 	mcrmi	5, 2, r4, cr5, cr2, {2}
    6ef0:	54535f54 	ldrbpl	r5, [r3], #-3924	; 0xfffff0ac
    6ef4:	52524544 	subspl	r4, r2, #68, 10	; 0x11000000
    6ef8:	00297828 	eoreq	r7, r9, r8, lsr #16
    6efc:	6f6c5f5f 	svcvs	0x006c5f5f
    6f00:	725f6b63 	subsvc	r6, pc, #101376	; 0x18c00
    6f04:	61656c65 	cmnvs	r5, r5, ror #24
    6f08:	6c286573 	cfstr32vs	mvfx6, [r8], #-460	; 0xfffffe34
    6f0c:	296b636f 	stmdbcs	fp!, {r0, r1, r2, r3, r5, r6, r8, r9, sp, lr}^
    6f10:	725f5f20 	subsvc	r5, pc, #32, 30	; 0x80
    6f14:	72617465 	rsbvc	r7, r1, #1694498816	; 0x65000000
    6f18:	5f746567 	svcpl	0x00746567
    6f1c:	6b636f6c 	blvs	18e2cd4 <_Min_Stack_Size+0x18e28d4>
    6f20:	6c65725f 	sfmvs	f7, 2, [r5], #-380	; 0xfffffe84
    6f24:	65736165 	ldrbvs	r6, [r3, #-357]!	; 0xfffffe9b
    6f28:	636f6c28 	cmnvs	pc, #40, 24	; 0x2800
    6f2c:	4c00296b 			; <UNDEFINED> instruction: 0x4c00296b
    6f30:	445f4443 	ldrbmi	r4, [pc], #-1091	; 6f38 <_Min_Stack_Size+0x6b38>
    6f34:	5f505349 	svcpl	0x00505349
    6f38:	28204e4f 	stmdacs	r0!, {r0, r1, r2, r3, r6, r9, sl, fp, lr}
    6f3c:	43307830 	teqmi	r0, #48, 16	; 0x300000
    6f40:	5f5f0029 	svcpl	0x005f0029
    6f44:	6b636f6c 	blvs	18e2cfc <_Min_Stack_Size+0x18e28fc>
    6f48:	696e695f 	stmdbvs	lr!, {r0, r1, r2, r3, r4, r6, r8, fp, sp, lr}^
    6f4c:	6f6c2874 	svcvs	0x006c2874
    6f50:	20296b63 	eorcs	r6, r9, r3, ror #22
    6f54:	65725f5f 	ldrbvs	r5, [r2, #-3935]!	; 0xfffff0a1
    6f58:	67726174 			; <UNDEFINED> instruction: 0x67726174
    6f5c:	6c5f7465 	cfldrdvs	mvd7, [pc], {101}	; 0x65
    6f60:	5f6b636f 	svcpl	0x006b636f
    6f64:	74696e69 	strbtvc	r6, [r9], #-3689	; 0xfffff197
    6f68:	6f6c2628 	svcvs	0x006c2628
    6f6c:	00296b63 	eoreq	r6, r9, r3, ror #22
    6f70:	6e755f5f 	mrcvs	15, 3, r5, cr5, cr15, {2}
    6f74:	63616572 	cmnvs	r1, #478150656	; 0x1c800000
    6f78:	6c626168 	stfvse	f6, [r2], #-416	; 0xfffffe60
    6f7c:	20292865 	eorcs	r2, r9, r5, ror #16
    6f80:	75625f5f 	strbvc	r5, [r2, #-3935]!	; 0xfffff0a1
    6f84:	69746c69 	ldmdbvs	r4!, {r0, r3, r5, r6, sl, fp, sp, lr}^
    6f88:	6e755f6e 	cdpvs	15, 7, cr5, cr5, cr14, {3}
    6f8c:	63616572 	cmnvs	r1, #478150656	; 0x1c800000
    6f90:	6c626168 	stfvse	f6, [r2], #-416	; 0xfffffe60
    6f94:	00292865 	eoreq	r2, r9, r5, ror #16
    6f98:	695f5f5f 	ldmdbvs	pc, {r0, r1, r2, r3, r4, r6, r8, r9, sl, fp, ip, lr}^	; <UNPREDICTABLE>
    6f9c:	6c5f746e 	cfldrdvs	mvd7, [pc], {110}	; 0x6e
    6fa0:	74736165 	ldrbtvc	r6, [r3], #-357	; 0xfffffe9b
    6fa4:	745f3631 	ldrbvc	r3, [pc], #-1585	; 6fac <_Min_Stack_Size+0x6bac>
    6fa8:	6665645f 			; <UNDEFINED> instruction: 0x6665645f
    6fac:	64656e69 	strbtvs	r6, [r5], #-3689	; 0xfffff197
    6fb0:	5f003120 	svcpl	0x00003120
    6fb4:	6c6c754e 	cfstr64vs	mvdx7, [ip], #-312	; 0xfffffec8
    6fb8:	656c6261 	strbvs	r6, [ip, #-609]!	; 0xfffffd9f
    6fbc:	4e5f0020 	cdpmi	0, 5, cr0, cr15, cr0, {1}
    6fc0:	4c4e494f 	mcrrmi	9, 4, r4, lr, cr15	; <UNPREDICTABLE>
    6fc4:	20454e49 	subcs	r4, r5, r9, asr #28
    6fc8:	74615f5f 	strbtvc	r5, [r1], #-3935	; 0xfffff0a1
    6fcc:	62697274 	rsbvs	r7, r9, #116, 4	; 0x40000007
    6fd0:	5f657475 	svcpl	0x00657475
    6fd4:	2828205f 	stmdacs	r8!, {r0, r1, r2, r3, r4, r6, sp}
    6fd8:	6f6e5f5f 	svcvs	0x006e5f5f
    6fdc:	696c6e69 	stmdbvs	ip!, {r0, r3, r5, r6, r9, sl, fp, sp, lr}^
    6fe0:	5f5f656e 	svcpl	0x005f656e
    6fe4:	5f002929 	svcpl	0x00002929
    6fe8:	7a69735f 	bvc	1a63d6c <_Min_Stack_Size+0x1a6396c>
    6fec:	5f745f65 	svcpl	0x00745f65
    6ff0:	5f00205f 	svcpl	0x0000205f
    6ff4:	4f4e414e 	svcmi	0x004e414e
    6ff8:	524f465f 	subpl	r4, pc, #99614720	; 0x5f00000
    6ffc:	5454414d 	ldrbpl	r4, [r4], #-333	; 0xfffffeb3
    7000:	495f4445 	ldmdbmi	pc, {r0, r2, r6, sl, lr}^	; <UNPREDICTABLE>
    7004:	0031204f 	eorseq	r2, r1, pc, asr #32
    7008:	6e69616d 	powvsez	f6, f1, #5.0
    700c:	74656700 	strbtvc	r6, [r5], #-1792	; 0xfffff900
    7010:	72616863 	rsbvc	r6, r1, #6488064	; 0x630000
    7014:	6c6e755f 	cfstr64vs	mvdx7, [lr], #-380	; 0xfffffe84
    7018:	656b636f 	strbvs	r6, [fp, #-879]!	; 0xfffffc91
    701c:	20292864 	eorcs	r2, r9, r4, ror #16
    7020:	7465675f 	strbtvc	r6, [r5], #-1887	; 0xfffff8a1
    7024:	72616863 	rsbvc	r6, r1, #6488064	; 0x630000
    7028:	6c6e755f 	cfstr64vs	mvdx7, [lr], #-380	; 0xfffffe84
    702c:	656b636f 	strbvs	r6, [fp, #-879]!	; 0xfffffc91
    7030:	00292864 	eoreq	r2, r9, r4, ror #16
    7034:	5a49535f 	bpl	125bdb8 <_Min_Stack_Size+0x125b9b8>
    7038:	5f545f45 	svcpl	0x00545f45
    703c:	4c434544 	cfstr64mi	mvdx4, [r3], {68}	; 0x44
    7040:	44455241 	strbmi	r5, [r5], #-577	; 0xfffffdbf
    7044:	525f0020 	subspl	r0, pc, #32
    7048:	544e4545 	strbpl	r4, [lr], #-1349	; 0xfffffabb
    704c:	494e495f 	stmdbmi	lr, {r0, r1, r2, r3, r4, r6, r8, fp, lr}^
    7050:	54505f54 	ldrbpl	r5, [r0], #-3924	; 0xfffff0ac
    7054:	455a5f52 	ldrbmi	r5, [sl, #-3922]	; 0xfffff0ae
    7058:	44454f52 	strbmi	r4, [r5], #-3922	; 0xfffff0ae
    705c:	72617628 	rsbvc	r7, r1, #40, 12	; 0x2800000
    7060:	207b2029 	rsbscs	r2, fp, r9, lsr #32
    7064:	72617628 	rsbvc	r7, r1, #40, 12	; 0x2800000
    7068:	5f3e2d29 	svcpl	0x003e2d29
    706c:	69647473 	stmdbvs	r4!, {r0, r1, r4, r5, r6, sl, ip, sp, lr}^
    7070:	203d206e 	eorscs	r2, sp, lr, rrx
    7074:	735f5f26 	cmpvc	pc, #38, 30	; 0x98
    7078:	5d305b66 	vldmdbpl	r0!, {d5-<overflow reg d55>}
    707c:	7628203b 			; <UNDEFINED> instruction: 0x7628203b
    7080:	2d297261 	sfmcs	f7, 4, [r9, #-388]!	; 0xfffffe7c
    7084:	74735f3e 	ldrbtvc	r5, [r3], #-3902	; 0xfffff0c2
    7088:	74756f64 	ldrbtvc	r6, [r5], #-3940	; 0xfffff09c
    708c:	26203d20 	strtcs	r3, [r0], -r0, lsr #26
    7090:	66735f5f 	uhsaxvs	r5, r3, pc	; <UNPREDICTABLE>
    7094:	3b5d315b 	blcc	1753608 <_Min_Stack_Size+0x1753208>
    7098:	61762820 	cmnvs	r6, r0, lsr #16
    709c:	3e2d2972 			; <UNDEFINED> instruction: 0x3e2d2972
    70a0:	6474735f 	ldrbtvs	r7, [r4], #-863	; 0xfffffca1
    70a4:	20727265 	rsbscs	r7, r2, r5, ror #4
    70a8:	5f26203d 	svcpl	0x0026203d
    70ac:	5b66735f 	blpl	19a3e30 <_Min_Stack_Size+0x19a3a30>
    70b0:	203b5d32 	eorscs	r5, fp, r2, lsr sp
    70b4:	5f5f007d 	svcpl	0x005f007d
    70b8:	676e6172 			; <UNDEFINED> instruction: 0x676e6172
    70bc:	28666f65 	stmdacs	r6!, {r0, r2, r5, r6, r8, r9, sl, fp, sp, lr}^
    70c0:	65707974 	ldrbvs	r7, [r0, #-2420]!	; 0xfffff68c
    70c4:	6174732c 	cmnvs	r4, ip, lsr #6
    70c8:	652c7472 	strvs	r7, [ip, #-1138]!	; 0xfffffb8e
    70cc:	2029646e 	eorcs	r6, r9, lr, ror #8
    70d0:	6f5f5f28 	svcvs	0x005f5f28
    70d4:	65736666 	ldrbvs	r6, [r3, #-1638]!	; 0xfffff99a
    70d8:	28666f74 	stmdacs	r6!, {r2, r4, r5, r6, r8, r9, sl, fp, sp, lr}^
    70dc:	65707974 	ldrbvs	r7, [r0, #-2420]!	; 0xfffff68c
    70e0:	6e65202c 	cdpvs	0, 6, cr2, cr5, cr12, {1}
    70e4:	2d202964 			; <UNDEFINED> instruction: 0x2d202964
    70e8:	6f5f5f20 	svcvs	0x005f5f20
    70ec:	65736666 	ldrbvs	r6, [r3, #-1638]!	; 0xfffff99a
    70f0:	28666f74 	stmdacs	r6!, {r2, r4, r5, r6, r8, r9, sl, fp, sp, lr}^
    70f4:	65707974 	ldrbvs	r7, [r0, #-2420]!	; 0xfffff68c
    70f8:	7473202c 	ldrbtvc	r2, [r3], #-44	; 0xffffffd4
    70fc:	29747261 	ldmdbcs	r4!, {r0, r5, r6, r9, ip, sp, lr}^
    7100:	505f0029 	subspl	r0, pc, r9, lsr #32
    7104:	5849534f 	stmdapl	r9, {r0, r1, r2, r3, r6, r8, r9, ip, lr}^
    7108:	535f435f 	cmppl	pc, #2080374785	; 0x7c000001
    710c:	4352554f 	cmpmi	r2, #331350016	; 0x13c00000
    7110:	30322045 	eorscc	r2, r2, r5, asr #32
    7114:	39303830 	ldmdbcc	r0!, {r4, r5, fp, ip, sp}
    7118:	5f5f004c 	svcpl	0x005f004c
    711c:	535f4343 	cmppl	pc, #201326593	; 0xc000001
    7120:	4f505055 	svcmi	0x00505055
    7124:	5f535452 	svcpl	0x00535452
    7128:	414e5944 	cmpmi	lr, r4, asr #18
    712c:	5f43494d 	svcpl	0x0043494d
    7130:	41525241 	cmpmi	r2, r1, asr #4
    7134:	4e495f59 	mcrmi	15, 2, r5, cr9, cr9, {2}
    7138:	31205449 			; <UNDEFINED> instruction: 0x31205449
    713c:	5f5f5f00 	svcpl	0x005f5f00
    7140:	5f746e69 	svcpl	0x00746e69
    7144:	7361656c 	cmnvc	r1, #108, 10	; 0x1b000000
    7148:	5f323374 	svcpl	0x00323374
    714c:	65645f74 	strbvs	r5, [r4, #-3956]!	; 0xfffff08c
    7150:	656e6966 	strbvs	r6, [lr, #-2406]!	; 0xfffff69a
    7154:	00312064 	eorseq	r2, r1, r4, rrx
    7158:	74735f5f 	ldrbtvc	r5, [r3], #-3935	; 0xfffff0a1
    715c:	6f6d6672 	svcvs	0x006d6672
    7160:	6b696c6e 	blvs	1a62320 <_Min_Stack_Size+0x1a61f20>
    7164:	6d662865 	stclvs	8, cr2, [r6, #-404]!	; 0xfffffe6c
    7168:	67726174 			; <UNDEFINED> instruction: 0x67726174
    716c:	7269662c 	rsbvc	r6, r9, #44, 12	; 0x2c00000
    7170:	61767473 	cmnvs	r6, r3, ror r4
    7174:	67726172 			; <UNDEFINED> instruction: 0x67726172
    7178:	5f5f2029 	svcpl	0x005f2029
    717c:	72747461 	rsbsvc	r7, r4, #1627389952	; 0x61000000
    7180:	74756269 	ldrbtvc	r6, [r5], #-617	; 0xfffffd97
    7184:	285f5f65 	ldmdacs	pc, {r0, r2, r5, r6, r8, r9, sl, fp, ip, lr}^	; <UNPREDICTABLE>
    7188:	665f5f28 	ldrbvs	r5, [pc], -r8, lsr #30
    718c:	616d726f 	cmnvs	sp, pc, ror #4
    7190:	205f5f74 	subscs	r5, pc, r4, ror pc	; <UNPREDICTABLE>
    7194:	735f5f28 	cmpvc	pc, #40, 30	; 0xa0
    7198:	6d667274 	sfmvs	f7, 2, [r6, #-464]!	; 0xfffffe30
    719c:	5f5f6e6f 	svcpl	0x005f6e6f
    71a0:	6d66202c 	stclvs	0, cr2, [r6, #-176]!	; 0xffffff50
    71a4:	67726174 			; <UNDEFINED> instruction: 0x67726174
    71a8:	6966202c 	stmdbvs	r6!, {r2, r3, r5, sp}^
    71ac:	76747372 			; <UNDEFINED> instruction: 0x76747372
    71b0:	72617261 	rsbvc	r7, r1, #268435462	; 0x10000006
    71b4:	29292967 	stmdbcs	r9!, {r0, r1, r2, r5, r6, r8, fp, sp}
    71b8:	45455300 	strbmi	r5, [r5, #-768]	; 0xfffffd00
    71bc:	55435f4b 	strbpl	r5, [r3, #-3915]	; 0xfffff0b5
    71c0:	00312052 	eorseq	r2, r1, r2, asr r0
    71c4:	554e5f5f 	strbpl	r5, [lr, #-3935]	; 0xfffff0a1
    71c8:	42414c4c 	submi	r4, r1, #76, 24	; 0x4c00
    71cc:	54494c49 	strbpl	r4, [r9], #-3145	; 0xfffff3b7
    71d0:	52505f59 	subspl	r5, r0, #356	; 0x164
    71d4:	414d4741 	cmpmi	sp, r1, asr #14
    71d8:	5355505f 	cmppl	r5, #95	; 0x5f
    71dc:	5f002048 	svcpl	0x00002048
    71e0:	434f4c43 	movtmi	r4, #64579	; 0xfc43
    71e4:	5f545f4b 	svcpl	0x00545f4b
    71e8:	736e7520 	cmnvc	lr, #32, 10	; 0x8000000
    71ec:	656e6769 	strbvs	r6, [lr, #-1897]!	; 0xfffff897
    71f0:	6f6c2064 	svcvs	0x006c2064
    71f4:	5f00676e 	svcpl	0x0000676e
    71f8:	4e454552 	mcrmi	5, 2, r4, cr5, cr2, {2}
    71fc:	41525f54 	cmpmi	r2, r4, asr pc
    7200:	3834444e 	ldmdacc	r4!, {r1, r2, r3, r6, sl, lr}
    7204:	4545535f 	strbmi	r5, [r5, #-863]	; 0xfffffca1
    7208:	74702844 	ldrbtvc	r2, [r0], #-2116	; 0xfffff7bc
    720c:	28202972 	stmdacs	r0!, {r1, r4, r5, r6, r8, fp, sp}
    7210:	72747028 	rsbsvc	r7, r4, #40	; 0x28
    7214:	5f3e2d29 	svcpl	0x003e2d29
    7218:	2d383472 	cfldrscs	mvf3, [r8, #-456]!	; 0xfffffe38
    721c:	65735f3e 	ldrbvs	r5, [r3, #-3902]!	; 0xfffff0c2
    7220:	00296465 	eoreq	r6, r9, r5, ror #8
    7224:	414c5f5f 	cmpmi	ip, pc, asr pc
    7228:	46454752 			; <UNDEFINED> instruction: 0x46454752
    722c:	5f454c49 	svcpl	0x00454c49
    7230:	49534956 	ldmdbmi	r3, {r1, r2, r4, r6, r8, fp, lr}^
    7234:	20454c42 	subcs	r4, r5, r2, asr #24
    7238:	5f5f0030 	svcpl	0x005f0030
    723c:	4c57454e 	cfldr64mi	mvdx4, [r7], {78}	; 0x4e
    7240:	5f5f4249 	svcpl	0x005f4249
    7244:	4c003420 	cfstrsmi	mvf3, [r0], {32}
    7248:	445f4443 	ldrbmi	r4, [pc], #-1091	; 7250 <_Min_Stack_Size+0x6e50>
    724c:	5f415441 	svcpl	0x00415441
    7250:	54524f50 	ldrbpl	r4, [r2], #-3920	; 0xfffff0b0
    7254:	49504720 	ldmdbmi	r0, {r5, r8, r9, sl, lr}^
    7258:	4600414f 	strmi	r4, [r0], -pc, asr #2
    725c:	4e45504f 	cdpmi	0, 4, cr5, cr5, cr15, {2}
    7260:	58414d5f 	stmdapl	r1, {r0, r1, r2, r3, r4, r6, r8, sl, fp, lr}^
    7264:	00303220 	eorseq	r3, r0, r0, lsr #4
    7268:	6c615f5f 	stclvs	15, cr5, [r1], #-380	; 0xfffffe84
    726c:	5f6e6769 	svcpl	0x006e6769
    7270:	78287075 	stmdavc	r8!, {r0, r2, r4, r5, r6, ip, sp, lr}
    7274:	2029792c 	eorcs	r7, r9, ip, lsr #18
    7278:	75625f5f 	strbvc	r5, [r2, #-3935]!	; 0xfffff0a1
    727c:	69746c69 	ldmdbvs	r4!, {r0, r3, r5, r6, sl, fp, sp, lr}^
    7280:	6c615f6e 	stclvs	15, cr5, [r1], #-440	; 0xfffffe48
    7284:	5f6e6769 	svcpl	0x006e6769
    7288:	78287075 	stmdavc	r8!, {r0, r2, r4, r5, r6, ip, sp, lr}
    728c:	2979202c 	ldmdbcs	r9!, {r2, r3, r5, sp}^
    7290:	45525f00 	ldrbmi	r5, [r2, #-3840]	; 0xfffff100
    7294:	5f544e45 	svcpl	0x00544e45
    7298:	4c545643 	mrrcmi	6, 4, r5, r4, cr3
    729c:	5f284e45 	svcpl	0x00284e45
    72a0:	29727470 	ldmdbcs	r2!, {r4, r5, r6, sl, ip, sp, lr}^
    72a4:	5f282820 	svcpl	0x00282820
    72a8:	29727470 	ldmdbcs	r2!, {r4, r5, r6, sl, ip, sp, lr}^
    72ac:	635f3e2d 	cmpvs	pc, #720	; 0x2d0
    72b0:	656c7476 	strbvs	r7, [ip, #-1142]!	; 0xfffffb8a
    72b4:	5f00296e 	svcpl	0x0000296e
    72b8:	6c63735f 	stclvs	3, cr7, [r3], #-380	; 0xfffffe84
    72bc:	65726165 	ldrbvs	r6, [r2, #-357]!	; 0xfffffe9b
    72c0:	70287272 	eorvc	r7, r8, r2, ror r2
    72c4:	28282029 	stmdacs	r8!, {r0, r3, r5, sp}
    72c8:	64696f76 	strbtvs	r6, [r9], #-3958	; 0xfffff08a
    72cc:	70282829 	eorvc	r2, r8, r9, lsr #16
    72d0:	5f3e2d29 	svcpl	0x003e2d29
    72d4:	67616c66 	strbvs	r6, [r1, -r6, ror #24]!
    72d8:	3d262073 	stccc	0, cr2, [r6, #-460]!	; 0xfffffe34
    72dc:	5f287e20 	svcpl	0x00287e20
    72e0:	5245535f 	subpl	r5, r5, #2080374785	; 0x7c000001
    72e4:	5f5f7c52 	svcpl	0x005f7c52
    72e8:	464f4553 			; <UNDEFINED> instruction: 0x464f4553
    72ec:	00292929 	eoreq	r2, r9, r9, lsr #18
    72f0:	436e6950 	cmnmi	lr, #80, 18	; 0x140000
    72f4:	5f006766 	svcpl	0x00006766
    72f8:	636f6c66 	cmnvs	pc, #26112	; 0x6600
    72fc:	6c69666b 	stclvs	6, cr6, [r9], #-428	; 0xfffffe54
    7300:	70662865 	rsbvc	r2, r6, r5, ror #16
    7304:	28282029 	stmdacs	r8!, {r0, r3, r5, sp}
    7308:	29706628 	ldmdbcs	r0!, {r3, r5, r9, sl, sp, lr}^
    730c:	665f3e2d 	ldrbvs	r3, [pc], -sp, lsr #28
    7310:	7367616c 	cmnvc	r7, #108, 2
    7314:	5f202620 	svcpl	0x00202620
    7318:	5453535f 	ldrbpl	r5, [r3], #-863	; 0xfffffca1
    731c:	3f202952 	svccc	0x00202952
    7320:	3a203020 	bcc	8133a8 <_Min_Stack_Size+0x812fa8>
    7324:	6c5f5f20 	mrrcvs	15, 2, r5, pc, cr0	; <UNPREDICTABLE>
    7328:	5f6b636f 	svcpl	0x006b636f
    732c:	75716361 	ldrbvc	r6, [r1, #-865]!	; 0xfffffc9f
    7330:	5f657269 	svcpl	0x00657269
    7334:	75636572 	strbvc	r6, [r3, #-1394]!	; 0xfffffa8e
    7338:	76697372 			; <UNDEFINED> instruction: 0x76697372
    733c:	66282865 	strtvs	r2, [r8], -r5, ror #16
    7340:	3e2d2970 			; <UNDEFINED> instruction: 0x3e2d2970
    7344:	636f6c5f 	cmnvs	pc, #24320	; 0x5f00
    7348:	0029296b 	eoreq	r2, r9, fp, ror #18
    734c:	6c615f5f 	stclvs	15, cr5, [r1], #-380	; 0xfffffe84
    7350:	5f636f6c 	svcpl	0x00636f6c
    7354:	67696c61 	strbvs	r6, [r9, -r1, ror #24]!
    7358:	2978286e 	ldmdbcs	r8!, {r1, r2, r3, r5, r6, fp, sp}^
    735c:	615f5f20 	cmpvs	pc, r0, lsr #30
    7360:	69727474 	ldmdbvs	r2!, {r2, r4, r5, r6, sl, ip, sp, lr}^
    7364:	65747562 	ldrbvs	r7, [r4, #-1378]!	; 0xfffffa9e
    7368:	28285f5f 	stmdacs	r8!, {r0, r1, r2, r3, r4, r6, r8, r9, sl, fp, ip, lr}
    736c:	6c615f5f 	stclvs	15, cr5, [r1], #-380	; 0xfffffe84
    7370:	5f636f6c 	svcpl	0x00636f6c
    7374:	67696c61 	strbvs	r6, [r9, -r1, ror #24]!
    7378:	285f5f6e 	ldmdacs	pc, {r1, r2, r3, r5, r6, r8, r9, sl, fp, ip, lr}^	; <UNPREDICTABLE>
    737c:	29292978 	stmdbcs	r9!, {r3, r4, r5, r6, r8, fp, sp}
    7380:	6e5f5f00 	cdpvs	15, 5, cr5, cr15, cr0, {0}
    7384:	5f646565 	svcpl	0x00646565
    7388:	61765f5f 	cmnvs	r6, pc, asr pc
    738c:	73696c5f 	cmnvc	r9, #24320	; 0x5f00
    7390:	5f002074 	svcpl	0x00002074
    7394:	6572705f 	ldrbvs	r7, [r2, #-95]!	; 0xffffffa1
    7398:	74636964 	strbtvc	r6, [r3], #-2404	; 0xfffff69c
    739c:	7572745f 	ldrbvc	r7, [r2, #-1119]!	; 0xfffffba1
    73a0:	78652865 	stmdavc	r5!, {r0, r2, r5, r6, fp, sp}^
    73a4:	5f202970 	svcpl	0x00202970
    73a8:	6975625f 	ldmdbvs	r5!, {r0, r1, r2, r3, r4, r6, r9, sp, lr}^
    73ac:	6e69746c 	cdpvs	4, 6, cr7, cr9, cr12, {3}
    73b0:	7078655f 	rsbsvc	r6, r8, pc, asr r5
    73b4:	28746365 	ldmdacs	r4!, {r0, r2, r5, r6, r8, r9, sp, lr}^
    73b8:	70786528 	rsbsvc	r6, r8, r8, lsr #10
    73bc:	31202c29 			; <UNDEFINED> instruction: 0x31202c29
    73c0:	5f5f0029 	svcpl	0x005f0029
    73c4:	6b636f6c 	blvs	18e317c <_Min_Stack_Size+0x18e2d7c>
    73c8:	6c65725f 	sfmvs	f7, 2, [r5], #-380	; 0xfffffe84
    73cc:	65736165 	ldrbvs	r6, [r3, #-357]!	; 0xfffffe9b
    73d0:	6365725f 	cmnvs	r5, #-268435451	; 0xf0000005
    73d4:	69737275 	ldmdbvs	r3!, {r0, r2, r4, r5, r6, r9, ip, sp, lr}^
    73d8:	6c286576 	cfstr32vs	mvfx6, [r8], #-472	; 0xfffffe28
    73dc:	296b636f 	stmdbcs	fp!, {r0, r1, r2, r3, r5, r6, r8, r9, sp, lr}^
    73e0:	725f5f20 	subsvc	r5, pc, #32, 30	; 0x80
    73e4:	72617465 	rsbvc	r7, r1, #1694498816	; 0x65000000
    73e8:	5f746567 	svcpl	0x00746567
    73ec:	6b636f6c 	blvs	18e31a4 <_Min_Stack_Size+0x18e2da4>
    73f0:	6c65725f 	sfmvs	f7, 2, [r5], #-380	; 0xfffffe84
    73f4:	65736165 	ldrbvs	r6, [r3, #-357]!	; 0xfffffe9b
    73f8:	6365725f 	cmnvs	r5, #-268435451	; 0xf0000005
    73fc:	69737275 	ldmdbvs	r3!, {r0, r2, r4, r5, r6, r9, ip, sp, lr}^
    7400:	6c286576 	cfstr32vs	mvfx6, [r8], #-472	; 0xfffffe28
    7404:	296b636f 	stmdbcs	fp!, {r0, r1, r2, r3, r5, r6, r8, r9, sp, lr}^
    7408:	615f5f00 	cmpvs	pc, r0, lsl #30
    740c:	69727474 	ldmdbvs	r2!, {r2, r4, r5, r6, sl, ip, sp, lr}^
    7410:	65747562 	ldrbvs	r7, [r4, #-1378]!	; 0xfffffa9e
    7414:	726f665f 	rsbvc	r6, pc, #99614720	; 0x5f00000
    7418:	5f74616d 	svcpl	0x0074616d
    741c:	66727473 			; <UNDEFINED> instruction: 0x66727473
    7420:	5f6e6f6d 	svcpl	0x006e6f6d
    7424:	2c61285f 	stclcs	8, cr2, [r1], #-380	; 0xfffffe84
    7428:	00202962 	eoreq	r2, r0, r2, ror #18
    742c:	4e475f5f 	mcrmi	15, 2, r5, cr7, cr15, {2}
    7430:	494c4355 	stmdbmi	ip, {r0, r2, r4, r6, r8, r9, lr}^
    7434:	4d5f454b 	cfldr64mi	mvdx4, [pc, #-300]	; 7310 <_Min_Stack_Size+0x6f10>
    7438:	5f485441 	svcpl	0x00485441
    743c:	4c495542 	cfstr64mi	mvdx5, [r9], {66}	; 0x42
    7440:	5f4e4954 	svcpl	0x004e4954
    7444:	4f4c4552 	svcmi	0x004c4552
    7448:	00205350 	eoreq	r5, r0, r0, asr r3
    744c:	4d505f5f 	ldclmi	15, cr5, [r0, #-380]	; 0xfffffe84
    7450:	72612854 	rsbvc	r2, r1, #84, 16	; 0x540000
    7454:	20297367 	eorcs	r7, r9, r7, ror #6
    7458:	73677261 	cmnvc	r7, #268435462	; 0x10000006
    745c:	45525f00 	ldrbmi	r5, [r2, #-3840]	; 0xfffff100
    7460:	5f544e45 	svcpl	0x00544e45
    7464:	4c414d53 	mcrrmi	13, 5, r4, r1, cr3
    7468:	48435f4c 	stmdami	r3, {r2, r3, r6, r8, r9, sl, fp, ip, lr}^
    746c:	5f4b4345 	svcpl	0x004b4345
    7470:	54494e49 	strbpl	r4, [r9], #-3657	; 0xfffff1b7
    7474:	72747028 	rsbsvc	r7, r4, #40	; 0x28
    7478:	5f002029 	svcpl	0x00002029
    747c:	44414552 	strbmi	r4, [r1], #-1362	; 0xfffffaae
    7480:	4952575f 	ldmdbmi	r2, {r0, r1, r2, r3, r4, r6, r8, r9, sl, ip, lr}^
    7484:	525f4554 	subspl	r4, pc, #84, 10	; 0x15000000
    7488:	52555445 	subspl	r5, r5, #1157627904	; 0x45000000
    748c:	59545f4e 	ldmdbpl	r4, {r1, r2, r3, r6, r8, r9, sl, fp, ip, lr}^
    7490:	69204550 	stmdbvs	r0!, {r4, r6, r8, sl, lr}
    7494:	5f00746e 	svcpl	0x0000746e
    7498:	65656e5f 	strbvs	r6, [r5, #-3679]!	; 0xfffff1a1
    749c:	69775f64 	ldmdbvs	r7!, {r2, r5, r6, r8, r9, sl, fp, ip, lr}^
    74a0:	745f746e 	ldrbvc	r7, [pc], #-1134	; 74a8 <_Min_Stack_Size+0x70a8>
    74a4:	735f5f00 	cmpvc	pc, #0, 30
    74a8:	645f6d79 	ldrbvs	r6, [pc], #-3449	; 74b0 <_Min_Stack_Size+0x70b0>
    74ac:	75616665 	strbvc	r6, [r1, #-1637]!	; 0xfffff99b
    74b0:	7328746c 			; <UNDEFINED> instruction: 0x7328746c
    74b4:	692c6d79 	stmdbvs	ip!, {r0, r3, r4, r5, r6, r8, sl, fp, sp, lr}
    74b8:	2c6c706d 	stclcs	0, cr7, [ip], #-436	; 0xfffffe4c
    74bc:	69726576 	ldmdbvs	r2!, {r1, r2, r4, r5, r6, r8, sl, sp, lr}^
    74c0:	5f202964 	svcpl	0x00202964
    74c4:	6d73615f 	ldfvse	f6, [r3, #-380]!	; 0xfffffe84
    74c8:	22285f5f 	eorcs	r5, r8, #380	; 0x17c
    74cc:	6d79732e 	ldclvs	3, cr7, [r9, #-184]!	; 0xffffff48
    74d0:	20726576 	rsbscs	r6, r2, r6, ror r5
    74d4:	69232022 	stmdbvs	r3!, {r1, r5, sp}
    74d8:	206c706d 	rsbcs	r7, ip, sp, rrx
    74dc:	22202c22 	eorcs	r2, r0, #8704	; 0x2200
    74e0:	79732320 	ldmdbvc	r3!, {r5, r8, r9, sp}^
    74e4:	4022206d 	eormi	r2, r2, sp, rrx
    74e8:	23202240 			; <UNDEFINED> instruction: 0x23202240
    74ec:	69726576 	ldmdbvs	r2!, {r1, r2, r4, r5, r6, r8, sl, sp, lr}^
    74f0:	5f002964 	svcpl	0x00002964
    74f4:	6c6c615f 	stfvse	f6, [ip], #-380	; 0xfffffe84
    74f8:	735f636f 	cmpvc	pc, #-1140850687	; 0xbc000001
    74fc:	32657a69 	rsbcc	r7, r5, #430080	; 0x69000
    7500:	782c6e28 	stmdavc	ip!, {r3, r5, r9, sl, fp, sp, lr}
    7504:	5f5f2029 	svcpl	0x005f2029
    7508:	72747461 	rsbsvc	r7, r4, #1627389952	; 0x61000000
    750c:	74756269 	ldrbtvc	r6, [r5], #-617	; 0xfffffd97
    7510:	285f5f65 	ldmdacs	pc, {r0, r2, r5, r6, r8, r9, sl, fp, ip, lr}^	; <UNPREDICTABLE>
    7514:	615f5f28 	cmpvs	pc, r8, lsr #30
    7518:	636f6c6c 	cmnvs	pc, #108, 24	; 0x6c00
    751c:	7a69735f 	bvc	1a642a0 <_Min_Stack_Size+0x1a63ea0>
    7520:	285f5f65 	ldmdacs	pc, {r0, r2, r5, r6, r8, r9, sl, fp, ip, lr}^	; <UNPREDICTABLE>
    7524:	78202c6e 	stmdavc	r0!, {r1, r2, r3, r5, r6, sl, fp, sp}
    7528:	00292929 	eoreq	r2, r9, r9, lsr #18
    752c:	5f44434c 	svcpl	0x0044434c
    7530:	41544144 	cmpmi	r4, r4, asr #2
    7534:	4e49505f 	mcrmi	0, 2, r5, cr9, cr15, {2}
    7538:	434c2053 	movtmi	r2, #49235	; 0xc053
    753c:	41445f44 	cmpmi	r4, r4, asr #30
    7540:	385f4154 	ldmdacc	pc, {r2, r4, r6, r8, lr}^	; <UNPREDICTABLE>
    7544:	5f544942 	svcpl	0x00544942
    7548:	534e4950 	movtpl	r4, #59728	; 0xe950
    754c:	45525f00 	ldrbmi	r5, [r2, #-3840]	; 0xfffff100
    7550:	5f544e45 	svcpl	0x00544e45
    7554:	52454d45 	subpl	r4, r5, #4416	; 0x1140
    7558:	434e4547 	movtmi	r4, #58695	; 0xe547
    755c:	49535f59 	ldmdbmi	r3, {r0, r3, r4, r6, r8, r9, sl, fp, ip, lr}^
    7560:	3220455a 	eorcc	r4, r0, #377487360	; 0x16800000
    7564:	525f0035 	subspl	r0, pc, #53	; 0x35
    7568:	544e4545 	strbpl	r4, [lr], #-1349	; 0xfffffabb
    756c:	494e495f 	stmdbmi	lr, {r0, r1, r2, r3, r4, r6, r8, fp, lr}^
    7570:	45525f54 	ldrbmi	r5, [r2, #-3924]	; 0xfffff0ac
    7574:	56524553 			; <UNDEFINED> instruction: 0x56524553
    7578:	385f4445 	ldmdacc	pc, {r0, r2, r6, sl, lr}^	; <UNPREDICTABLE>
    757c:	5f5f0020 	svcpl	0x005f0020
    7580:	454c4946 	strbmi	r4, [ip, #-2374]	; 0xfffff6ba
    7584:	6665645f 			; <UNDEFINED> instruction: 0x6665645f
    7588:	64656e69 	strbtvs	r6, [r5], #-3689	; 0xfffff197
    758c:	525f0020 	subspl	r0, pc, #32
    7590:	544e4545 	strbpl	r4, [lr], #-1349	; 0xfffffabb
    7594:	494e495f 	stmdbmi	lr, {r0, r1, r2, r3, r4, r6, r8, fp, lr}^
    7598:	45525f54 	ldrbmi	r5, [r2, #-3924]	; 0xfffff0ac
    759c:	56524553 			; <UNDEFINED> instruction: 0x56524553
    75a0:	305f4445 	subscc	r4, pc, r5, asr #8
    75a4:	5f5f0020 	svcpl	0x005f0020
    75a8:	4f434544 	svcmi	0x00434544
    75ac:	2854534e 	ldmdacs	r4, {r1, r2, r3, r6, r8, r9, ip, lr}^
    75b0:	65707974 	ldrbvs	r7, [r0, #-2420]!	; 0xfffff68c
    75b4:	7261762c 	rsbvc	r7, r1, #44, 12	; 0x2c00000
    75b8:	28282029 	stmdacs	r8!, {r0, r3, r5, sp}
    75bc:	65707974 	ldrbvs	r7, [r0, #-2420]!	; 0xfffff68c
    75c0:	5f5f2829 	svcpl	0x005f2829
    75c4:	746e6975 	strbtvc	r6, [lr], #-2421	; 0xfffff68b
    75c8:	5f727470 	svcpl	0x00727470
    75cc:	63282974 			; <UNDEFINED> instruction: 0x63282974
    75d0:	74736e6f 	ldrbtvc	r6, [r3], #-3695	; 0xfffff191
    75d4:	696f7620 	stmdbvs	pc!, {r5, r9, sl, ip, sp, lr}^	; <UNPREDICTABLE>
    75d8:	292a2064 	stmdbcs	sl!, {r2, r5, r6, sp}
    75dc:	72617628 	rsbvc	r7, r1, #40, 12	; 0x2800000
    75e0:	5f002929 	svcpl	0x00002929
    75e4:	696f6e5f 	stmdbvs	pc!, {r0, r1, r2, r3, r4, r6, r9, sl, fp, sp, lr}^	; <UNPREDICTABLE>
    75e8:	6e696c6e 	cdpvs	12, 6, cr6, cr9, cr14, {3}
    75ec:	5f5f2065 	svcpl	0x005f2065
    75f0:	72747461 	rsbsvc	r7, r4, #1627389952	; 0x61000000
    75f4:	74756269 	ldrbtvc	r6, [r5], #-617	; 0xfffffd97
    75f8:	205f5f65 	subscs	r5, pc, r5, ror #30
    75fc:	5f5f2828 	svcpl	0x005f2828
    7600:	6e696f6e 	cdpvs	15, 6, cr6, cr9, cr14, {3}
    7604:	656e696c 	strbvs	r6, [lr, #-2412]!	; 0xfffff694
    7608:	29295f5f 	stmdbcs	r9!, {r0, r1, r2, r3, r4, r6, r8, r9, sl, fp, ip, lr}
    760c:	45525f00 	ldrbmi	r5, [r2, #-3840]	; 0xfffff100
    7610:	5f544e45 	svcpl	0x00544e45
    7614:	4e474953 			; <UNDEFINED> instruction: 0x4e474953
    7618:	284d4147 	stmdacs	sp, {r0, r1, r2, r6, r8, lr}^
    761c:	29727470 	ldmdbcs	r2!, {r4, r5, r6, sl, ip, sp, lr}^
    7620:	70282820 	eorvc	r2, r8, r0, lsr #16
    7624:	2d297274 	sfmcs	f7, 4, [r9, #-464]!	; 0xfffffe30
    7628:	61675f3e 	cmnvs	r7, lr, lsr pc
    762c:	5f616d6d 	svcpl	0x00616d6d
    7630:	6e676973 			; <UNDEFINED> instruction: 0x6e676973
    7634:	296d6167 	stmdbcs	sp!, {r0, r1, r2, r5, r6, r8, sp, lr}^
    7638:	445f5f00 	ldrbmi	r5, [pc], #-3840	; 7640 <_Min_Stack_Size+0x7240>
    763c:	4c42554f 	cfstr64mi	mvdx5, [r2], {79}	; 0x4f
    7640:	59545f45 	ldmdbpl	r4, {r0, r2, r6, r8, r9, sl, fp, ip, lr}^
    7644:	64204550 	strtvs	r4, [r0], #-1360	; 0xfffffab0
    7648:	6c62756f 	cfstr64vs	mvdx7, [r2], #-444	; 0xfffffe44
    764c:	5f5f0065 	svcpl	0x005f0065
    7650:	64646968 	strbtvs	r6, [r4], #-2408	; 0xfffff698
    7654:	5f206e65 	svcpl	0x00206e65
    7658:	7474615f 	ldrbtvc	r6, [r4], #-351	; 0xfffffea1
    765c:	75626972 	strbvc	r6, [r2, #-2418]!	; 0xfffff68e
    7660:	5f5f6574 	svcpl	0x005f6574
    7664:	5f5f2828 	svcpl	0x005f2828
    7668:	69736976 	ldmdbvs	r3!, {r1, r2, r4, r5, r6, r8, fp, sp, lr}^
    766c:	696c6962 	stmdbvs	ip!, {r1, r5, r6, r8, fp, sp, lr}^
    7670:	5f5f7974 	svcpl	0x005f7974
    7674:	69682228 	stmdbvs	r8!, {r3, r5, r9, sp}^
    7678:	6e656464 	cdpvs	4, 6, cr6, cr5, cr4, {3}
    767c:	29292922 	stmdbcs	r9!, {r1, r5, r8, fp, sp}
    7680:	535f5f00 	cmppl	pc, #0, 30
    7684:	2046464f 	subcs	r4, r6, pc, asr #12
    7688:	30317830 	eorscc	r7, r1, r0, lsr r8
    768c:	5f003030 	svcpl	0x00003030
    7690:	7661685f 			; <UNDEFINED> instruction: 0x7661685f
    7694:	6f6c5f65 	svcvs	0x006c5f65
    7698:	3233676e 	eorscc	r6, r3, #28835840	; 0x1b80000
    769c:	5f003120 	svcpl	0x00003120
    76a0:	544e4957 	strbpl	r4, [lr], #-2391	; 0xfffff6a9
    76a4:	0020545f 	eoreq	r5, r0, pc, asr r4
    76a8:	656e5f5f 	strbvs	r5, [lr, #-3935]!	; 0xfffff0a1
    76ac:	735f6465 	cmpvc	pc, #1694498816	; 0x65000000
    76b0:	5f657a69 	svcpl	0x00657a69
    76b4:	5f002074 	svcpl	0x00002074
    76b8:	5f445342 	svcpl	0x00445342
    76bc:	455a4953 	ldrbmi	r4, [sl, #-2387]	; 0xfffff6ad
    76c0:	445f545f 	ldrbmi	r5, [pc], #-1119	; 76c8 <_Min_Stack_Size+0x72c8>
    76c4:	4e494645 	cdpmi	6, 4, cr4, cr9, cr5, {2}
    76c8:	205f4445 	subscs	r4, pc, r5, asr #8
    76cc:	74735f00 	ldrbtvc	r5, [r3], #-3840	; 0xfffff100
    76d0:	74756f64 	ldrbtvc	r6, [r5], #-3940	; 0xfffff09c
    76d4:	7828725f 	stmdavc	r8!, {r0, r1, r2, r3, r4, r6, r9, ip, sp, lr}
    76d8:	525f2029 	subspl	r2, pc, #41	; 0x29
    76dc:	544e4545 	strbpl	r4, [lr], #-1349	; 0xfffffabb
    76e0:	4454535f 	ldrbmi	r5, [r4], #-863	; 0xfffffca1
    76e4:	2854554f 	ldmdacs	r4, {r0, r1, r2, r3, r6, r8, sl, ip, lr}^
    76e8:	4b002978 	blmi	11cd0 <_Min_Stack_Size+0x118d0>
    76ec:	415f4450 	cmpmi	pc, r0, asr r4	; <UNPREDICTABLE>
    76f0:	59415252 	stmdbpl	r1, {r1, r4, r6, r9, ip, lr}^
    76f4:	4c41565f 	mcrrmi	6, 5, r5, r1, cr15
    76f8:	7b204555 	blvc	818c54 <_Min_Stack_Size+0x818854>
    76fc:	2737277b 			; <UNDEFINED> instruction: 0x2737277b
    7700:	2738272c 	ldrcs	r2, [r8, -ip, lsr #14]!
    7704:	2739272c 	ldrcs	r2, [r9, -ip, lsr #14]!
    7708:	272f272c 	strcs	r2, [pc, -ip, lsr #14]!
    770c:	277b2c7d 			; <UNDEFINED> instruction: 0x277b2c7d
    7710:	272c2734 			; <UNDEFINED> instruction: 0x272c2734
    7714:	272c2735 			; <UNDEFINED> instruction: 0x272c2735
    7718:	272c2736 			; <UNDEFINED> instruction: 0x272c2736
    771c:	2c7d2778 	ldclcs	7, cr2, [sp], #-480	; 0xfffffe20
    7720:	2731277b 			; <UNDEFINED> instruction: 0x2731277b
    7724:	2732272c 	ldrcs	r2, [r2, -ip, lsr #14]!
    7728:	2733272c 	ldrcs	r2, [r3, -ip, lsr #14]!
    772c:	272d272c 	strcs	r2, [sp, -ip, lsr #14]!
    7730:	307b2c7d 	rsbscc	r2, fp, sp, ror ip
    7734:	2c666678 	stclcs	6, cr6, [r6], #-480	; 0xfffffe20
    7738:	2c273027 	stccs	0, cr3, [r7], #-156	; 0xffffff64
    773c:	2c273d27 	stccs	13, cr3, [r7], #-156	; 0xffffff64
    7740:	7d272b27 	fstmdbxvc	r7!, {d2-d20}	;@ Deprecated
    7744:	485f007d 	ldmdami	pc, {r0, r2, r3, r4, r5, r6}^	; <UNPREDICTABLE>
    7748:	5f455641 	svcpl	0x00455641
    774c:	474e4f4c 	strbmi	r4, [lr, -ip, asr #30]
    7750:	554f445f 	strbpl	r4, [pc, #-1119]	; 72f9 <_Min_Stack_Size+0x6ef9>
    7754:	20454c42 	subcs	r4, r5, r2, asr #24
    7758:	5f5f0031 	svcpl	0x005f0031
    775c:	64657375 	strbtvs	r7, [r5], #-885	; 0xfffffc8b
    7760:	615f5f20 	cmpvs	pc, r0, lsr #30
    7764:	69727474 	ldmdbvs	r2!, {r2, r4, r5, r6, sl, ip, sp, lr}^
    7768:	65747562 	ldrbvs	r7, [r4, #-1378]!	; 0xfffffa9e
    776c:	28285f5f 	stmdacs	r8!, {r0, r1, r2, r3, r4, r6, r8, r9, sl, fp, ip, lr}
    7770:	73755f5f 	cmnvc	r5, #380	; 0x17c
    7774:	5f5f6465 	svcpl	0x005f6465
    7778:	5f002929 	svcpl	0x00002929
    777c:	6e65675f 	mcrvs	7, 3, r6, cr5, cr15, {2}
    7780:	63697265 	cmnvs	r9, #1342177286	; 0x50000006
    7784:	70786528 	rsbsvc	r6, r8, r8, lsr #10
    7788:	2c742c72 	ldclcs	12, cr2, [r4], #-456	; 0xfffffe38
    778c:	2c736579 	cfldr64cs	mvdx6, [r3], #-484	; 0xfffffe1c
    7790:	20296f6e 	eorcs	r6, r9, lr, ror #30
    7794:	6e65475f 	mcrvs	7, 3, r4, cr5, cr15, {2}
    7798:	63697265 	cmnvs	r9, #1342177286	; 0x50000006
    779c:	70786528 	rsbsvc	r6, r8, r8, lsr #10
    77a0:	74202c72 	strtvc	r2, [r0], #-3186	; 0xfffff38e
    77a4:	6579203a 	ldrbvs	r2, [r9, #-58]!	; 0xffffffc6
    77a8:	64202c73 	strtvs	r2, [r0], #-3187	; 0xfffff38d
    77ac:	75616665 	strbvc	r6, [r1, #-1637]!	; 0xfffff99b
    77b0:	203a746c 	eorscs	r7, sl, ip, ror #8
    77b4:	00296f6e 	eoreq	r6, r9, lr, ror #30
    77b8:	73615f5f 	cmnvc	r1, #380	; 0x17c
    77bc:	74726573 	ldrbtvc	r6, [r2], #-1395	; 0xfffffa8d
    77c0:	78655f73 	stmdavc	r5!, {r0, r1, r4, r5, r6, r8, r9, sl, fp, ip, lr}^
    77c4:	73756c63 	cmnvc	r5, #25344	; 0x6300
    77c8:	28657669 	stmdacs	r5!, {r0, r3, r5, r6, r9, sl, ip, sp, lr}^
    77cc:	292e2e2e 	stmdbcs	lr!, {r1, r2, r3, r5, r9, sl, fp, sp}
    77d0:	6c5f5f20 	mrrcvs	15, 2, r5, pc, cr0	; <UNPREDICTABLE>
    77d4:	5f6b636f 	svcpl	0x006b636f
    77d8:	6f6e6e61 	svcvs	0x006e6e61
    77dc:	65746174 	ldrbvs	r6, [r4, #-372]!	; 0xfffffe8c
    77e0:	73736128 	cmnvc	r3, #40, 2
    77e4:	5f747265 	svcpl	0x00747265
    77e8:	6c637865 	stclvs	8, cr7, [r3], #-404	; 0xfffffe6c
    77ec:	76697375 			; <UNDEFINED> instruction: 0x76697375
    77f0:	6f6c5f65 	svcvs	0x006c5f65
    77f4:	5f286b63 	svcpl	0x00286b63
    77f8:	5f41565f 	svcpl	0x0041565f
    77fc:	53475241 	movtpl	r5, #29249	; 0x7241
    7800:	29295f5f 	stmdbcs	r9!, {r0, r1, r2, r3, r4, r6, r8, r9, sl, fp, ip, lr}
    7804:	5f5f5f00 	svcpl	0x005f5f00
    7808:	31746e69 	cmncc	r4, r9, ror #28
    780c:	5f745f36 	svcpl	0x00745f36
    7810:	69666564 	stmdbvs	r6!, {r2, r5, r6, r8, sl, sp, lr}^
    7814:	2064656e 	rsbcs	r6, r4, lr, ror #10
    7818:	525f0031 	subspl	r0, pc, #49	; 0x31
    781c:	544e4545 	strbpl	r4, [lr], #-1349	; 0xfffffabb
    7820:	494e495f 	stmdbmi	lr, {r0, r1, r2, r3, r4, r6, r8, fp, lr}^
    7824:	45525f54 	ldrbmi	r5, [r2, #-3924]	; 0xfffff0ac
    7828:	56524553 			; <UNDEFINED> instruction: 0x56524553
    782c:	315f4445 	cmpcc	pc, r5, asr #8
    7830:	5f5f0020 	svcpl	0x005f0020
    7834:	6f707865 	svcvs	0x00707865
    7838:	64657472 	strbtvs	r7, [r5], #-1138	; 0xfffffb8e
    783c:	615f5f20 	cmpvs	pc, r0, lsr #30
    7840:	69727474 	ldmdbvs	r2!, {r2, r4, r5, r6, sl, ip, sp, lr}^
    7844:	65747562 	ldrbvs	r7, [r4, #-1378]!	; 0xfffffa9e
    7848:	28285f5f 	stmdacs	r8!, {r0, r1, r2, r3, r4, r6, r8, r9, sl, fp, ip, lr}
    784c:	69765f5f 	ldmdbvs	r6!, {r0, r1, r2, r3, r4, r6, r8, r9, sl, fp, ip, lr}^
    7850:	69626973 	stmdbvs	r2!, {r0, r1, r4, r5, r6, r8, fp, sp, lr}^
    7854:	7974696c 	ldmdbvc	r4!, {r2, r3, r5, r6, r8, fp, sp, lr}^
    7858:	22285f5f 	eorcs	r5, r8, #380	; 0x17c
    785c:	61666564 	cmnvs	r6, r4, ror #10
    7860:	22746c75 	rsbscs	r6, r4, #29952	; 0x7500
    7864:	00292929 	eoreq	r2, r9, r9, lsr #18
    7868:	6f6c5f5f 	svcvs	0x006c5f5f
    786c:	745f6b63 	ldrbvc	r6, [pc], #-2915	; 7874 <_Min_Stack_Size+0x7474>
    7870:	615f7972 	cmpvs	pc, r2, ror r9	; <UNPREDICTABLE>
    7874:	69757163 	ldmdbvs	r5!, {r0, r1, r5, r6, r8, ip, sp, lr}^
    7878:	725f6572 	subsvc	r6, pc, #478150656	; 0x1c800000
    787c:	72756365 	rsbsvc	r6, r5, #-1811939327	; 0x94000001
    7880:	65766973 	ldrbvs	r6, [r6, #-2419]!	; 0xfffff68d
    7884:	636f6c28 	cmnvs	pc, #40, 24	; 0x2800
    7888:	5f20296b 	svcpl	0x0020296b
    788c:	7465725f 	strbtvc	r7, [r5], #-607	; 0xfffffda1
    7890:	65677261 	strbvs	r7, [r7, #-609]!	; 0xfffffd9f
    7894:	6f6c5f74 	svcvs	0x006c5f74
    7898:	745f6b63 	ldrbvc	r6, [pc], #-2915	; 78a0 <_Min_Stack_Size+0x74a0>
    789c:	615f7972 	cmpvs	pc, r2, ror r9	; <UNPREDICTABLE>
    78a0:	69757163 	ldmdbvs	r5!, {r0, r1, r5, r6, r8, ip, sp, lr}^
    78a4:	725f6572 	subsvc	r6, pc, #478150656	; 0x1c800000
    78a8:	72756365 	rsbsvc	r6, r5, #-1811939327	; 0x94000001
    78ac:	65766973 	ldrbvs	r6, [r6, #-2419]!	; 0xfffff68d
    78b0:	636f6c28 	cmnvs	pc, #40, 24	; 0x2800
    78b4:	5f00296b 	svcpl	0x0000296b
    78b8:	4e454552 	mcrmi	5, 2, r4, cr5, cr2, {2}
    78bc:	52455f54 	subpl	r5, r5, #84, 30	; 0x150
    78c0:	284f4e52 	stmdacs	pc, {r1, r4, r6, r9, sl, fp, lr}^	; <UNPREDICTABLE>
    78c4:	7274705f 	rsbsvc	r7, r4, #95	; 0x5f
    78c8:	28282029 	stmdacs	r8!, {r0, r3, r5, sp}
    78cc:	7274705f 	rsbsvc	r7, r4, #95	; 0x5f
    78d0:	5f3e2d29 	svcpl	0x003e2d29
    78d4:	6e727265 	cdpvs	2, 7, cr7, cr2, cr5, {3}
    78d8:	5f00296f 	svcpl	0x0000296f
    78dc:	5f43435f 	svcpl	0x0043435f
    78e0:	50505553 	subspl	r5, r0, r3, asr r5
    78e4:	5354524f 	cmppl	r4, #-268435452	; 0xf0000004
    78e8:	495f5f5f 	ldmdbmi	pc, {r0, r1, r2, r3, r4, r6, r8, r9, sl, fp, ip, lr}^	; <UNPREDICTABLE>
    78ec:	4e494c4e 	cdpmi	12, 4, cr4, cr9, cr14, {2}
    78f0:	00312045 	eorseq	r2, r1, r5, asr #32
    78f4:	5f424d5f 	svcpl	0x00424d5f
    78f8:	5f4e454c 	svcpl	0x004e454c
    78fc:	2058414d 	subscs	r4, r8, sp, asr #2
    7900:	525f0031 	subspl	r0, pc, #49	; 0x31
    7904:	544e4545 	strbpl	r4, [lr], #-1349	; 0xfffffabb
    7908:	434e495f 	movtmi	r4, #59743	; 0xe95f
    790c:	74705f28 	ldrbtvc	r5, [r0], #-3880	; 0xfffff0d8
    7910:	28202972 	stmdacs	r0!, {r1, r4, r5, r6, r8, fp, sp}
    7914:	74705f28 	ldrbtvc	r5, [r0], #-3880	; 0xfffff0d8
    7918:	3e2d2972 			; <UNDEFINED> instruction: 0x3e2d2972
    791c:	636e695f 	cmnvs	lr, #1556480	; 0x17c000
    7920:	525f0029 	subspl	r0, pc, #41	; 0x29
    7924:	544e4545 	strbpl	r4, [lr], #-1349	; 0xfffffabb
    7928:	4454535f 	ldrbmi	r5, [r4], #-863	; 0xfffffca1
    792c:	5f284e49 	svcpl	0x00284e49
    7930:	29727470 	ldmdbcs	r2!, {r4, r5, r6, sl, ip, sp, lr}^
    7934:	5f282820 	svcpl	0x00282820
    7938:	29727470 	ldmdbcs	r2!, {r4, r5, r6, sl, ip, sp, lr}^
    793c:	735f3e2d 	cmpvc	pc, #720	; 0x2d0
    7940:	6e696474 	mcrvs	4, 3, r6, cr9, cr4, {3}
    7944:	5f5f0029 	svcpl	0x005f0029
    7948:	75746572 	ldrbvc	r6, [r4, #-1394]!	; 0xfffffa8e
    794c:	5f736e72 	svcpl	0x00736e72
    7950:	63697774 	cmnvs	r9, #116, 14	; 0x1d00000
    7954:	5f5f2065 	svcpl	0x005f2065
    7958:	72747461 	rsbsvc	r7, r4, #1627389952	; 0x61000000
    795c:	74756269 	ldrbtvc	r6, [r5], #-617	; 0xfffffd97
    7960:	285f5f65 	ldmdacs	pc, {r0, r2, r5, r6, r8, r9, sl, fp, ip, lr}^	; <UNPREDICTABLE>
    7964:	725f5f28 	subsvc	r5, pc, #40, 30	; 0xa0
    7968:	72757465 	rsbsvc	r7, r5, #1694498816	; 0x65000000
    796c:	745f736e 	ldrbvc	r7, [pc], #-878	; 7974 <_Min_Stack_Size+0x7574>
    7970:	65636977 	strbvs	r6, [r3, #-2423]!	; 0xfffff689
    7974:	29295f5f 	stmdbcs	r9!, {r0, r1, r2, r3, r4, r6, r8, r9, sl, fp, ip, lr}
    7978:	725f5f00 	subsvc	r5, pc, #0, 30
    797c:	69757165 	ldmdbvs	r5!, {r0, r2, r5, r6, r8, ip, sp, lr}^
    7980:	5f736572 	svcpl	0x00736572
    7984:	72616873 	rsbvc	r6, r1, #7536640	; 0x730000
    7988:	2e286465 	cdpcs	4, 2, cr6, cr8, cr5, {3}
    798c:	20292e2e 	eorcs	r2, r9, lr, lsr #28
    7990:	6f6c5f5f 	svcvs	0x006c5f5f
    7994:	615f6b63 	cmpvs	pc, r3, ror #22
    7998:	746f6e6e 	strbtvc	r6, [pc], #-3694	; 79a0 <_Min_Stack_Size+0x75a0>
    799c:	28657461 	stmdacs	r5!, {r0, r5, r6, sl, ip, sp, lr}^
    79a0:	72616873 	rsbvc	r6, r1, #7536640	; 0x730000
    79a4:	6c5f6465 	cfldrdvs	mvd6, [pc], {101}	; 0x65
    79a8:	736b636f 	cmnvc	fp, #-1140850687	; 0xbc000001
    79ac:	7165725f 	cmnvc	r5, pc, asr r2
    79b0:	65726975 	ldrbvs	r6, [r2, #-2421]!	; 0xfffff68b
    79b4:	5f5f2864 	svcpl	0x005f2864
    79b8:	415f4156 	cmpmi	pc, r6, asr r1	; <UNPREDICTABLE>
    79bc:	5f534752 	svcpl	0x00534752
    79c0:	0029295f 	eoreq	r2, r9, pc, asr r9
    79c4:	444e455f 	strbmi	r4, [lr], #-1375	; 0xfffffaa1
    79c8:	4454535f 	ldrbmi	r5, [r4], #-863	; 0xfffffca1
    79cc:	0020435f 	eoreq	r4, r0, pc, asr r3
    79d0:	4545525f 	strbmi	r5, [r5, #-607]	; 0xfffffda1
    79d4:	4d5f544e 	cfldrdmi	mvd5, [pc, #-312]	; 78a4 <_Min_Stack_Size+0x74a4>
    79d8:	35505f50 	ldrbcc	r5, [r0, #-3920]	; 0xfffff0b0
    79dc:	74702853 	ldrbtvc	r2, [r0], #-2131	; 0xfffff7ad
    79e0:	28202972 	stmdacs	r0!, {r1, r4, r5, r6, r8, fp, sp}
    79e4:	72747028 	rsbsvc	r7, r4, #40	; 0x28
    79e8:	5f3e2d29 	svcpl	0x003e2d29
    79ec:	3e2d706d 	cdpcc	0, 2, cr7, cr13, cr13, {3}
    79f0:	7335705f 	teqvc	r5, #95	; 0x5f
    79f4:	5f5f0029 	svcpl	0x005f0029
    79f8:	34364c53 	ldrtcc	r4, [r6], #-3155	; 0xfffff3ad
    79fc:	38783020 	ldmdacc	r8!, {r5, ip, sp}^
    7a00:	00303030 	eorseq	r3, r0, r0, lsr r0
    7a04:	52535f5f 	subspl	r5, r3, #380	; 0x17c
    7a08:	78302057 	ldmdavc	r0!, {r0, r1, r2, r4, r6, sp}
    7a0c:	30313030 	eorscc	r3, r1, r0, lsr r0
    7a10:	5f5f5f00 	svcpl	0x005f5f00
    7a14:	5f746e69 	svcpl	0x00746e69
    7a18:	61686377 	smcvs	34359	; 0x8637
    7a1c:	5f745f72 	svcpl	0x00745f72
    7a20:	5f002068 	svcpl	0x00002068
    7a24:	4e454552 	mcrmi	5, 2, r4, cr5, cr2, {2}
    7a28:	424d5f54 	submi	r5, sp, #84, 30	; 0x150
    7a2c:	43574f54 	cmpmi	r7, #84, 30	; 0x150
    7a30:	4154535f 	cmpmi	r4, pc, asr r3
    7a34:	70284554 	eorvc	r4, r8, r4, asr r5
    7a38:	20297274 	eorcs	r7, r9, r4, ror r2
    7a3c:	74702828 	ldrbtvc	r2, [r0], #-2088	; 0xfffff7d8
    7a40:	3e2d2972 			; <UNDEFINED> instruction: 0x3e2d2972
    7a44:	73696d5f 	cmnvc	r9, #6080	; 0x17c0
    7a48:	5f3e2d63 	svcpl	0x003e2d63
    7a4c:	6f74626d 	svcvs	0x0074626d
    7a50:	735f6377 	cmpvc	pc, #-603979775	; 0xdc000001
    7a54:	65746174 	ldrbvs	r6, [r4, #-372]!	; 0xfffffe8c
    7a58:	434c0029 	movtmi	r0, #49193	; 0xc029
    7a5c:	45425f44 	strbmi	r5, [r2, #-3908]	; 0xfffff0bc
    7a60:	5f4e4947 	svcpl	0x004e4947
    7a64:	465f5441 	ldrbmi	r5, [pc], -r1, asr #8
    7a68:	54535249 	ldrbpl	r5, [r3], #-585	; 0xfffffdb7
    7a6c:	574f525f 	smlsldpl	r5, pc, pc, r2	; <UNPREDICTABLE>
    7a70:	78302820 	ldmdavc	r0!, {r5, fp, sp}
    7a74:	00293038 	eoreq	r3, r9, r8, lsr r0
    7a78:	53585f5f 	cmppl	r8, #380	; 0x17c
    7a7c:	4e495254 	mcrmi	2, 2, r5, cr9, cr4, {2}
    7a80:	29782847 	ldmdbcs	r8!, {r0, r1, r2, r6, fp, sp}^
    7a84:	535f5f20 	cmppl	pc, #32, 30	; 0x80
    7a88:	4e495254 	mcrmi	2, 2, r5, cr9, cr4, {2}
    7a8c:	29782847 	ldmdbcs	r8!, {r0, r1, r2, r6, fp, sp}^
    7a90:	615f5f00 	cmpvs	pc, r0, lsl #30
    7a94:	69727474 	ldmdbvs	r2!, {r2, r4, r5, r6, sl, ip, sp, lr}^
    7a98:	65747562 	ldrbvs	r7, [r4, #-1378]!	; 0xfffffa9e
    7a9c:	7275705f 	rsbsvc	r7, r5, #95	; 0x5f
    7aa0:	205f5f65 	subscs	r5, pc, r5, ror #30
    7aa4:	51524900 	cmppl	r2, r0, lsl #18
    7aa8:	616c465f 	cmnvs	ip, pc, asr r6
    7aac:	5f5f0067 	svcpl	0x005f0067
    7ab0:	54504e53 	ldrbpl	r4, [r0], #-3667	; 0xfffff1ad
    7ab4:	30783020 	rsbscc	r3, r8, r0, lsr #32
    7ab8:	00303038 	eorseq	r3, r0, r8, lsr r0
    7abc:	4e475f5f 	mcrmi	15, 2, r5, cr7, cr15, {2}
    7ac0:	494c4355 	stmdbmi	ip, {r0, r2, r4, r6, r8, r9, lr}^
    7ac4:	425f454b 	subsmi	r4, pc, #314572800	; 0x12c00000
    7ac8:	544c4955 	strbpl	r4, [ip], #-2389	; 0xfffff6ab
    7acc:	565f4e49 	ldrbpl	r4, [pc], -r9, asr #28
    7ad0:	52415241 	subpl	r5, r1, #268435460	; 0x10000004
    7ad4:	31205347 			; <UNDEFINED> instruction: 0x31205347
    7ad8:	4c4f4300 	mcrrmi	3, 0, r4, pc, cr0
    7adc:	5f4e4d55 	svcpl	0x004e4d55
    7ae0:	204d554e 	subcs	r5, sp, lr, asr #10
    7ae4:	2e2e0034 	mcrcs	0, 1, r0, cr14, cr4, {1}
    7ae8:	6372532f 	cmnvs	r2, #-1140850688	; 0xbc000000
    7aec:	69616d2f 	stmdbvs	r1!, {r0, r1, r2, r3, r5, r8, sl, fp, sp, lr}^
    7af0:	00632e6e 	rsbeq	r2, r3, lr, ror #28
    7af4:	5f41565f 	svcpl	0x0041565f
    7af8:	5453494c 	ldrbpl	r4, [r3], #-2380	; 0xfffff6b4
    7afc:	4645445f 			; <UNDEFINED> instruction: 0x4645445f
    7b00:	44454e49 	strbmi	r4, [r5], #-3657	; 0xfffff1b7
    7b04:	5f5f0020 	svcpl	0x005f0020
    7b08:	4f53424f 	svcmi	0x0053424f
    7b0c:	4554454c 	ldrbmi	r4, [r4, #-1356]	; 0xfffffab4
    7b10:	54414d5f 	strbpl	r4, [r1], #-3423	; 0xfffff2a1
    7b14:	5f5f2048 	svcpl	0x005f2048
    7b18:	4f53424f 	svcmi	0x0053424f
    7b1c:	4554454c 	ldrbmi	r4, [r4, #-1356]	; 0xfffffab4
    7b20:	54414d5f 	strbpl	r4, [r1], #-3423	; 0xfffff2a1
    7b24:	45445f48 	strbmi	r5, [r4, #-3912]	; 0xfffff0b8
    7b28:	4c554146 	ldfmie	f4, [r5], {70}	; 0x46
    7b2c:	535f0054 	cmppl	pc, #84	; 0x54
    7b30:	54455a49 	strbpl	r5, [r5], #-2633	; 0xfffff5b7
    7b34:	4b00205f 	blmi	fcb8 <_Min_Stack_Size+0xf8b8>
    7b38:	525f4450 	subspl	r4, pc, #80, 8	; 0x50000000
    7b3c:	5f33574f 	svcpl	0x0033574f
    7b40:	204e4950 	subcs	r4, lr, r0, asr r9
    7b44:	4f495047 	svcmi	0x00495047
    7b48:	4e49505f 	mcrmi	0, 2, r5, cr9, cr15, {2}
    7b4c:	5f00345f 	svcpl	0x0000345f
    7b50:	5245535f 	subpl	r5, r5, #2080374785	; 0x7c000001
    7b54:	78302052 	ldmdavc	r0!, {r1, r4, r6, sp}
    7b58:	30343030 	eorscc	r3, r4, r0, lsr r0
    7b5c:	735f5f00 	cmpvc	pc, #0, 30
    7b60:	5f657a69 	svcpl	0x00657a69
    7b64:	5f002074 	svcpl	0x00002074
    7b68:	66666f5f 	uqsaxvs	r6, r6, pc	; <UNPREDICTABLE>
    7b6c:	6f746573 	svcvs	0x00746573
    7b70:	79742866 	ldmdbvc	r4!, {r1, r2, r5, r6, fp, sp}^
    7b74:	662c6570 			; <UNDEFINED> instruction: 0x662c6570
    7b78:	646c6569 	strbtvs	r6, [ip], #-1385	; 0xfffffa97
    7b7c:	666f2029 	strbtvs	r2, [pc], -r9, lsr #32
    7b80:	74657366 	strbtvc	r7, [r5], #-870	; 0xfffffc9a
    7b84:	7428666f 	strtvc	r6, [r8], #-1647	; 0xfffff991
    7b88:	2c657079 	stclcs	0, cr7, [r5], #-484	; 0xfffffe1c
    7b8c:	65696620 	strbvs	r6, [r9, #-1568]!	; 0xfffff9e0
    7b90:	0029646c 	eoreq	r6, r9, ip, ror #8
    7b94:	4e475f5f 	mcrmi	15, 2, r5, cr7, cr15, {2}
    7b98:	494c4355 	stmdbmi	ip, {r0, r2, r4, r6, r8, r9, lr}^
    7b9c:	415f454b 	cmpmi	pc, fp, asr #10
    7ba0:	33204d53 			; <UNDEFINED> instruction: 0x33204d53
    7ba4:	44504b00 	ldrbmi	r4, [r0], #-2816	; 0xfffff500
    7ba8:	544f4e5f 	strbpl	r4, [pc], #-3679	; 7bb0 <_Min_Stack_Size+0x77b0>
    7bac:	4552505f 	ldrbmi	r5, [r2, #-95]	; 0xffffffa1
    7bb0:	44455353 	strbmi	r5, [r5], #-851	; 0xfffffcad
    7bb4:	59454b5f 	stmdbpl	r5, {r0, r1, r2, r3, r4, r6, r8, r9, fp, lr}^
    7bb8:	66783020 	ldrbtvs	r3, [r8], -r0, lsr #32
    7bbc:	425f0066 	subsmi	r0, pc, #102	; 0x66
    7bc0:	575f4453 			; <UNDEFINED> instruction: 0x575f4453
    7bc4:	52414843 	subpl	r4, r1, #4390912	; 0x430000
    7bc8:	205f545f 	subscs	r5, pc, pc, asr r4	; <UNPREDICTABLE>
    7bcc:	6e5f5f00 	cdpvs	15, 5, cr5, cr15, cr0, {0}
    7bd0:	6e61736f 	cdpvs	3, 6, cr7, cr1, cr15, {3}
    7bd4:	7a697469 	bvc	1a64d80 <_Min_Stack_Size+0x1a64980>
    7bd8:	6d656d65 	stclvs	13, cr6, [r5, #-404]!	; 0xfffffe6c
    7bdc:	2079726f 	rsbscs	r7, r9, pc, ror #4
    7be0:	44434c00 	strbmi	r4, [r3], #-3072	; 0xfffff400
    7be4:	646f4d5f 	strbtvs	r4, [pc], #-3423	; 7bec <_Min_Stack_Size+0x77ec>
    7be8:	49452065 	stmdbmi	r5, {r0, r2, r5, r6, sp}^
    7bec:	5f544847 	svcpl	0x00544847
    7bf0:	5f544942 	svcpl	0x00544942
    7bf4:	45444f4d 	strbmi	r4, [r4, #-3917]	; 0xfffff0b3
    7bf8:	6e5f5f00 	cdpvs	15, 5, cr5, cr15, cr0, {0}
    7bfc:	6e61736f 	cdpvs	3, 6, cr7, cr1, cr15, {3}
    7c00:	7a697469 	bvc	1a64dac <_Min_Stack_Size+0x1a649ac>
    7c04:	64646165 	strbtvs	r6, [r4], #-357	; 0xfffffe9b
    7c08:	73736572 	cmnvc	r3, #478150656	; 0x1c800000
    7c0c:	445f0020 	ldrbmi	r0, [pc], #-32	; 7c14 <_Min_Stack_Size+0x7814>
    7c10:	55414645 	strbpl	r4, [r1, #-1605]	; 0xfffff9bb
    7c14:	535f544c 	cmppl	pc, #76, 8	; 0x4c000000
    7c18:	4352554f 	cmpmi	r2, #331350016	; 0x13c00000
    7c1c:	00312045 	eorseq	r2, r1, r5, asr #32
    7c20:	5f44434c 	svcpl	0x0044434c
    7c24:	434e5546 	movtmi	r5, #58694	; 0xe546
    7c28:	4e4f4954 			; <UNDEFINED> instruction: 0x4e4f4954
    7c2c:	4942385f 	stmdbmi	r2, {r0, r1, r2, r3, r4, r6, fp, ip, sp}^
    7c30:	4c325f54 	ldcmi	15, cr5, [r2], #-336	; 0xfffffeb0
    7c34:	53454e49 	movtpl	r4, #24137	; 0x5e49
    7c38:	78302820 	ldmdavc	r0!, {r5, fp, sp}
    7c3c:	00293833 	eoreq	r3, r9, r3, lsr r8
    7c40:	4554415f 	ldrbmi	r4, [r4, #-351]	; 0xfffffea1
    7c44:	5f544958 	svcpl	0x00544958
    7c48:	54494e49 	strbpl	r4, [r9], #-3657	; 0xfffff1b7
    7c4c:	4e5f7b20 	vnmlsmi.f64	d23, d15, d16
    7c50:	2c4c4c55 	mcrrcs	12, 5, r4, ip, cr5
    7c54:	202c3020 	eorcs	r3, ip, r0, lsr #32
    7c58:	554e5f7b 	strbpl	r5, [lr, #-3963]	; 0xfffff085
    7c5c:	2c7d4c4c 	ldclcs	12, cr4, [sp], #-304	; 0xfffffed0
    7c60:	554e5f20 	strbpl	r5, [lr, #-3872]	; 0xfffff0e0
    7c64:	007d4c4c 	rsbseq	r4, sp, ip, asr #24
    7c68:	4545525f 	strbmi	r5, [r5, #-607]	; 0xfffffda1
    7c6c:	4d5f544e 	cfldrdmi	mvd5, [pc, #-312]	; 7b3c <_Min_Stack_Size+0x773c>
    7c70:	4f545242 	svcmi	0x00545242
    7c74:	535f4357 	cmppl	pc, #1543503873	; 0x5c000001
    7c78:	45544154 	ldrbmi	r4, [r4, #-340]	; 0xfffffeac
    7c7c:	72747028 	rsbsvc	r7, r4, #40	; 0x28
    7c80:	28282029 	stmdacs	r8!, {r0, r3, r5, sp}
    7c84:	29727470 	ldmdbcs	r2!, {r4, r5, r6, sl, ip, sp, lr}^
    7c88:	6d5f3e2d 	ldclvs	14, cr3, [pc, #-180]	; 7bdc <_Min_Stack_Size+0x77dc>
    7c8c:	2d637369 	stclcs	3, cr7, [r3, #-420]!	; 0xfffffe5c
    7c90:	626d5f3e 	rsbvs	r5, sp, #62, 30	; 0xf8
    7c94:	776f7472 			; <UNDEFINED> instruction: 0x776f7472
    7c98:	74735f63 	ldrbtvc	r5, [r3], #-3939	; 0xfffff09d
    7c9c:	29657461 	stmdbcs	r5!, {r0, r5, r6, sl, ip, sp, lr}^
    7ca0:	725f5f00 	subsvc	r5, pc, #0, 30
    7ca4:	72747365 	rsbsvc	r7, r4, #-1811939327	; 0x94000001
    7ca8:	20746369 	rsbscs	r6, r4, r9, ror #6
    7cac:	74736572 	ldrbtvc	r6, [r3], #-1394	; 0xfffffa8e
    7cb0:	74636972 	strbtvc	r6, [r3], #-2418	; 0xfffff68e
    7cb4:	73616600 	cmnvc	r1, #0, 12
    7cb8:	75705f74 	ldrbvc	r5, [r0, #-3956]!	; 0xfffff08c
    7cbc:	78286374 	stmdavc	r8!, {r2, r4, r5, r6, r8, r9, sp, lr}
    7cc0:	2029702c 	eorcs	r7, r9, ip, lsr #32
    7cc4:	282d2d28 	stmdacs	sp!, {r3, r5, r8, sl, fp, sp}
    7cc8:	3e2d2970 			; <UNDEFINED> instruction: 0x3e2d2970
    7ccc:	3c20775f 	stccc	7, cr7, [r0], #-380	; 0xfffffe84
    7cd0:	3f203020 	svccc	0x00203020
    7cd4:	735f5f20 	cmpvc	pc, #32, 30	; 0x80
    7cd8:	66756277 			; <UNDEFINED> instruction: 0x66756277
    7cdc:	5f28725f 	svcpl	0x0028725f
    7ce0:	4e454552 	mcrmi	5, 2, r4, cr5, cr2, {2}
    7ce4:	28202c54 	stmdacs	r0!, {r2, r4, r6, sl, fp, sp}
    7ce8:	29746e69 	ldmdbcs	r4!, {r0, r3, r5, r6, r9, sl, fp, sp, lr}^
    7cec:	2c297828 	stccs	8, cr7, [r9], #-160	; 0xffffff60
    7cf0:	20297020 	eorcs	r7, r9, r0, lsr #32
    7cf4:	45203d3d 	strmi	r3, [r0, #-3389]!	; 0xfffff2c3
    7cf8:	3a20464f 	bcc	81963c <_Min_Stack_Size+0x81923c>
    7cfc:	282a2820 	stmdacs	sl!, {r5, fp, sp}
    7d00:	3e2d2970 			; <UNDEFINED> instruction: 0x3e2d2970
    7d04:	3d20705f 	stccc	0, cr7, [r0, #-380]!	; 0xfffffe84
    7d08:	29782820 	ldmdbcs	r8!, {r5, fp, sp}^
    7d0c:	7028202c 	eorvc	r2, r8, ip, lsr #32
    7d10:	5f3e2d29 	svcpl	0x003e2d29
    7d14:	2c2b2b70 			; <UNDEFINED> instruction: 0x2c2b2b70
    7d18:	29293020 	stmdbcs	r9!, {r5, ip, sp}
    7d1c:	6e5f5f00 	cdpvs	15, 5, cr5, cr15, cr0, {0}
    7d20:	5f646565 	svcpl	0x00646565
    7d24:	4c4c554e 	cfstr64mi	mvdx5, [ip], {78}	; 0x4e
    7d28:	53425f00 	movtpl	r5, #12032	; 0x2f00
    7d2c:	54505f44 	ldrbpl	r5, [r0], #-3908	; 0xfffff0bc
    7d30:	46494452 			; <UNDEFINED> instruction: 0x46494452
    7d34:	5f545f46 	svcpl	0x00545f46
    7d38:	525f0020 	subspl	r0, pc, #32
    7d3c:	544e4545 	strbpl	r4, [lr], #-1349	; 0xfffffabb
    7d40:	5254535f 	subspl	r5, r4, #2080374785	; 0x7c000001
    7d44:	5f4b4f54 	svcpl	0x004b4f54
    7d48:	5453414c 	ldrbpl	r4, [r3], #-332	; 0xfffffeb4
    7d4c:	72747028 	rsbsvc	r7, r4, #40	; 0x28
    7d50:	28282029 	stmdacs	r8!, {r0, r3, r5, sp}
    7d54:	29727470 	ldmdbcs	r2!, {r4, r5, r6, sl, ip, sp, lr}^
    7d58:	6d5f3e2d 	ldclvs	14, cr3, [pc, #-180]	; 7cac <_Min_Stack_Size+0x78ac>
    7d5c:	2d637369 	stclcs	3, cr7, [r3, #-420]!	; 0xfffffe5c
    7d60:	74735f3e 	ldrbtvc	r5, [r3], #-3902	; 0xfffff0c2
    7d64:	6b6f7472 	blvs	1be4f34 <_Min_Stack_Size+0x1be4b34>
    7d68:	73616c5f 	cmnvc	r1, #24320	; 0x5f00
    7d6c:	5f002974 	svcpl	0x00002974
    7d70:	49465441 	stmdbmi	r6, {r0, r6, sl, ip, lr}^
    7d74:	535f454c 	cmppl	pc, #76, 10	; 0x13000000
    7d78:	4352554f 	cmpmi	r2, #331350016	; 0x13c00000
    7d7c:	5f5f0045 	svcpl	0x005f0045
    7d80:	6c797274 	lfmvs	f7, 2, [r9], #-464	; 0xfffffe30
    7d84:	736b636f 	cmnvc	fp, #-1140850687	; 0xbc000001
    7d88:	6168735f 	cmnvs	r8, pc, asr r3
    7d8c:	28646572 	stmdacs	r4!, {r1, r4, r5, r6, r8, sl, sp, lr}^
    7d90:	292e2e2e 	stmdbcs	lr!, {r1, r2, r3, r5, r9, sl, fp, sp}
    7d94:	6c5f5f20 	mrrcvs	15, 2, r5, pc, cr0	; <UNPREDICTABLE>
    7d98:	5f6b636f 	svcpl	0x006b636f
    7d9c:	6f6e6e61 	svcvs	0x006e6e61
    7da0:	65746174 	ldrbvs	r6, [r4, #-372]!	; 0xfffffe8c
    7da4:	61687328 	cmnvs	r8, r8, lsr #6
    7da8:	5f646572 	svcpl	0x00646572
    7dac:	6c797274 	lfmvs	f7, 2, [r9], #-464	; 0xfffffe30
    7db0:	5f6b636f 	svcpl	0x006b636f
    7db4:	636e7566 	cmnvs	lr, #427819008	; 0x19800000
    7db8:	6e6f6974 			; <UNDEFINED> instruction: 0x6e6f6974
    7dbc:	565f5f28 	ldrbpl	r5, [pc], -r8, lsr #30
    7dc0:	52415f41 	subpl	r5, r1, #260	; 0x104
    7dc4:	5f5f5347 	svcpl	0x005f5347
    7dc8:	5f002929 	svcpl	0x00002929
    7dcc:	636f6c5f 	cmnvs	pc, #24320	; 0x5f00
    7dd0:	735f736b 	cmpvc	pc, #-1409286143	; 0xac000001
    7dd4:	65726168 	ldrbvs	r6, [r2, #-360]!	; 0xfffffe98
    7dd8:	2e2e2864 	cdpcs	8, 2, cr2, cr14, cr4, {3}
    7ddc:	5f20292e 	svcpl	0x0020292e
    7de0:	636f6c5f 	cmnvs	pc, #24320	; 0x5f00
    7de4:	6e615f6b 	cdpvs	15, 6, cr5, cr1, cr11, {3}
    7de8:	61746f6e 	cmnvs	r4, lr, ror #30
    7dec:	73286574 			; <UNDEFINED> instruction: 0x73286574
    7df0:	65726168 	ldrbvs	r6, [r2, #-360]!	; 0xfffffe98
    7df4:	6f6c5f64 	svcvs	0x006c5f64
    7df8:	665f6b63 	ldrbvs	r6, [pc], -r3, ror #22
    7dfc:	74636e75 	strbtvc	r6, [r3], #-3701	; 0xfffff18b
    7e00:	286e6f69 	stmdacs	lr!, {r0, r3, r5, r6, r8, r9, sl, fp, sp, lr}^
    7e04:	41565f5f 	cmpmi	r6, pc, asr pc
    7e08:	4752415f 			; <UNDEFINED> instruction: 0x4752415f
    7e0c:	295f5f53 	ldmdbcs	pc, {r0, r1, r4, r6, r8, r9, sl, fp, ip, lr}^	; <UNPREDICTABLE>
    7e10:	6e750029 	cdpvs	0, 7, cr0, cr5, cr9, {1}
    7e14:	6e676973 			; <UNDEFINED> instruction: 0x6e676973
    7e18:	73206465 			; <UNDEFINED> instruction: 0x73206465
    7e1c:	656e6769 	strbvs	r6, [lr, #-1897]!	; 0xfffff897
    7e20:	504b0064 	subpl	r0, fp, r4, rrx
    7e24:	4e495f44 	cdpmi	15, 4, cr5, cr9, cr4, {2}
    7e28:	46524554 			; <UNDEFINED> instruction: 0x46524554
    7e2c:	5f454341 	svcpl	0x00454341
    7e30:	00205f48 	eoreq	r5, r0, r8, asr #30
    7e34:	61685f5f 	cmnvs	r8, pc, asr pc
    7e38:	65665f73 	strbvs	r5, [r6, #-3955]!	; 0xfffff08d
    7e3c:	72757461 	rsbsvc	r7, r5, #1627389952	; 0x61000000
    7e40:	29782865 	ldmdbcs	r8!, {r0, r2, r5, r6, fp, sp}^
    7e44:	5f003020 	svcpl	0x00003020
    7e48:	434f4c5f 	movtmi	r4, #64607	; 0xfc5f
    7e4c:	4e495f4b 	cdpmi	15, 4, cr5, cr9, cr11, {2}
    7e50:	63285449 			; <UNDEFINED> instruction: 0x63285449
    7e54:	7373616c 	cmnvc	r3, #108, 2
    7e58:	636f6c2c 	cmnvs	pc, #44, 24	; 0x2c00
    7e5c:	6520296b 	strvs	r2, [r0, #-2411]!	; 0xfffff695
    7e60:	72657478 	rsbvc	r7, r5, #120, 8	; 0x78000000
    7e64:	7473206e 	ldrbtvc	r2, [r3], #-110	; 0xffffff92
    7e68:	74637572 	strbtvc	r7, [r3], #-1394	; 0xfffffa8e
    7e6c:	6c5f5f20 	mrrcvs	15, 2, r5, pc, cr0	; <UNPREDICTABLE>
    7e70:	206b636f 	rsbcs	r6, fp, pc, ror #6
    7e74:	6f6c5f5f 	svcvs	0x006c5f5f
    7e78:	205f6b63 	subscs	r6, pc, r3, ror #22
    7e7c:	6c202323 	stcvs	3, cr2, [r0], #-140	; 0xffffff74
    7e80:	3b6b636f 	blcc	1ae0c44 <_Min_Stack_Size+0x1ae0844>
    7e84:	616c6320 	cmnvs	ip, r0, lsr #6
    7e88:	5f207373 	svcpl	0x00207373
    7e8c:	4b434f4c 	blmi	10dbbc4 <_Min_Stack_Size+0x10db7c4>
    7e90:	6c20545f 	cfstrsvs	mvf5, [r0], #-380	; 0xfffffe84
    7e94:	206b636f 	rsbcs	r6, fp, pc, ror #6
    7e98:	5f26203d 	svcpl	0x0026203d
    7e9c:	636f6c5f 	cmnvs	pc, #24320	; 0x5f00
    7ea0:	23205f6b 			; <UNDEFINED> instruction: 0x23205f6b
    7ea4:	6f6c2023 	svcvs	0x006c2023
    7ea8:	5f006b63 	svcpl	0x00006b63
    7eac:	6e6f6e5f 	mcrvs	14, 3, r6, cr15, cr15, {2}
    7eb0:	6c6c756e 	cfstr64vs	mvdx7, [ip], #-440	; 0xfffffe48
    7eb4:	6c6c615f 	stfvse	f6, [ip], #-380	; 0xfffffe84
    7eb8:	615f5f20 	cmpvs	pc, r0, lsr #30
    7ebc:	69727474 	ldmdbvs	r2!, {r2, r4, r5, r6, sl, ip, sp, lr}^
    7ec0:	65747562 	ldrbvs	r7, [r4, #-1378]!	; 0xfffffa9e
    7ec4:	28285f5f 	stmdacs	r8!, {r0, r1, r2, r3, r4, r6, r8, r9, sl, fp, ip, lr}
    7ec8:	6f6e5f5f 	svcvs	0x006e5f5f
    7ecc:	6c756e6e 	ldclvs	14, cr6, [r5], #-440	; 0xfffffe48
    7ed0:	295f5f6c 	ldmdbcs	pc, {r2, r3, r5, r6, r8, r9, sl, fp, ip, lr}^	; <UNPREDICTABLE>
    7ed4:	525f0029 	subspl	r0, pc, #41	; 0x29
    7ed8:	544e4545 	strbpl	r4, [lr], #-1349	; 0xfffffabb
    7edc:	284d545f 	stmdacs	sp, {r0, r1, r2, r3, r4, r6, sl, ip, lr}^
    7ee0:	29727470 	ldmdbcs	r2!, {r4, r5, r6, sl, ip, sp, lr}^
    7ee4:	70282820 	eorvc	r2, r8, r0, lsr #16
    7ee8:	2d297274 	sfmcs	f7, 4, [r9, #-464]!	; 0xfffffe30
    7eec:	6f6c5f3e 	svcvs	0x006c5f3e
    7ef0:	746c6163 	strbtvc	r6, [ip], #-355	; 0xfffffe9d
    7ef4:	5f656d69 	svcpl	0x00656d69
    7ef8:	29667562 	stmdbcs	r6!, {r1, r5, r6, r8, sl, ip, sp, lr}^
    7efc:	414d5f00 	cmpmi	sp, r0, lsl #30
    7f00:	4e494843 	cdpmi	8, 4, cr4, cr9, cr3, {2}
    7f04:	545f5f45 	ldrbpl	r5, [pc], #-3909	; 7f0c <_Min_Stack_Size+0x7b0c>
    7f08:	53455059 	movtpl	r5, #20569	; 0x5059
    7f0c:	0020485f 	eoreq	r4, r0, pc, asr r8
    7f10:	535f545f 	cmppl	pc, #1593835520	; 0x5f000000
    7f14:	5f455a49 	svcpl	0x00455a49
    7f18:	5f5f0020 	svcpl	0x005f0020
    7f1c:	72747461 	rsbsvc	r7, r4, #1627389952	; 0x61000000
    7f20:	74756269 	ldrbtvc	r6, [r5], #-617	; 0xfffffd97
    7f24:	616d5f65 	cmnvs	sp, r5, ror #30
    7f28:	636f6c6c 	cmnvs	pc, #108, 24	; 0x6c00
    7f2c:	00205f5f 	eoreq	r5, r0, pc, asr pc
    7f30:	65647473 	strbvs	r7, [r4, #-1139]!	; 0xfffffb8d
    7f34:	5f207272 	svcpl	0x00207272
    7f38:	4e454552 	mcrmi	5, 2, r4, cr5, cr2, {2}
    7f3c:	54535f54 	ldrbpl	r5, [r3], #-3924	; 0xfffff0ac
    7f40:	52524544 	subspl	r4, r2, #68, 10	; 0x11000000
    7f44:	45525f28 	ldrbmi	r5, [r2, #-3880]	; 0xfffff0d8
    7f48:	29544e45 	ldmdbcs	r4, {r0, r2, r6, r9, sl, fp, lr}^
    7f4c:	4c455f00 	mcrrmi	15, 0, r5, r5, cr0
    7f50:	42414449 	submi	r4, r1, #1224736768	; 0x49000000
    7f54:	495f454c 	ldmdbmi	pc, {r2, r3, r6, r8, sl, lr}^	; <UNPREDICTABLE>
    7f58:	4e494c4e 	cdpmi	12, 4, cr4, cr9, cr14, {2}
    7f5c:	74732045 	ldrbtvc	r2, [r3], #-69	; 0xffffffbb
    7f60:	63697461 	cmnvs	r9, #1627389952	; 0x61000000
    7f64:	695f5f20 	ldmdbvs	pc, {r5, r8, r9, sl, fp, ip, lr}^	; <UNPREDICTABLE>
    7f68:	6e696c6e 	cdpvs	12, 6, cr6, cr9, cr14, {3}
    7f6c:	005f5f65 	subseq	r5, pc, r5, ror #30
    7f70:	554e5f5f 	strbpl	r5, [lr, #-3935]	; 0xfffff0a1
    7f74:	42414c4c 	submi	r4, r1, #76, 24	; 0x4c00
    7f78:	54494c49 	strbpl	r4, [r9], #-3145	; 0xfffff3b7
    7f7c:	52505f59 	subspl	r5, r0, #356	; 0x164
    7f80:	414d4741 	cmpmi	sp, r1, asr #14
    7f84:	504f505f 	subpl	r5, pc, pc, asr r0	; <UNPREDICTABLE>
    7f88:	525f0020 	subspl	r0, pc, #32
    7f8c:	544e4545 	strbpl	r4, [lr], #-1349	; 0xfffffabb
    7f90:	4548435f 	strbmi	r4, [r8, #-863]	; 0xfffffca1
    7f94:	455f4b43 	ldrbmi	r4, [pc, #-2883]	; 7459 <_Min_Stack_Size+0x7059>
    7f98:	4752454d 	ldrbmi	r4, [r2, -sp, asr #10]
    7f9c:	59434e45 	stmdbpl	r3, {r0, r2, r6, r9, sl, fp, lr}^
    7fa0:	72617628 	rsbvc	r7, r1, #40, 12	; 0x2800000
    7fa4:	525f2029 	subspl	r2, pc, #41	; 0x29
    7fa8:	544e4545 	strbpl	r4, [lr], #-1349	; 0xfffffabb
    7fac:	4548435f 	strbmi	r4, [r8, #-863]	; 0xfffffca1
    7fb0:	76284b43 	strtvc	r4, [r8], -r3, asr #22
    7fb4:	202c7261 	eorcs	r7, ip, r1, ror #4
    7fb8:	656d655f 	strbvs	r6, [sp, #-1375]!	; 0xfffffaa1
    7fbc:	6e656772 	mcrvs	7, 3, r6, cr5, cr2, {3}
    7fc0:	202c7963 	eorcs	r7, ip, r3, ror #18
    7fc4:	72616863 	rsbvc	r6, r1, #6488064	; 0x630000
    7fc8:	202c2a20 	eorcs	r2, ip, r0, lsr #20
    7fcc:	4545525f 	strbmi	r5, [r5, #-607]	; 0xfffffda1
    7fd0:	455f544e 	ldrbmi	r5, [pc, #-1102]	; 7b8a <_Min_Stack_Size+0x778a>
    7fd4:	4752454d 	ldrbmi	r4, [r2, -sp, asr #10]
    7fd8:	59434e45 	stmdbpl	r3, {r0, r2, r6, r9, sl, fp, lr}^
    7fdc:	5a49535f 	bpl	125cd60 <_Min_Stack_Size+0x125c960>
    7fe0:	29202c45 	stmdbcs	r0!, {r0, r2, r6, sl, fp, sp}
    7fe4:	53555f00 	cmppl	r5, #0, 30
    7fe8:	44475f45 	strbmi	r5, [r7], #-3909	; 0xfffff0bb
    7fec:	20414f54 	subcs	r4, r1, r4, asr pc
    7ff0:	6d5f5f00 	ldclvs	15, cr5, [pc, #-0]	; 7ff8 <_Min_Stack_Size+0x7bf8>
    7ff4:	735f6e69 	cmpvc	pc, #1680	; 0x690
    7ff8:	28657a69 	stmdacs	r5!, {r0, r3, r5, r6, r9, fp, ip, sp, lr}^
    7ffc:	73202978 			; <UNDEFINED> instruction: 0x73202978
    8000:	69746174 	ldmdbvs	r4!, {r2, r4, r5, r6, r8, sp, lr}^
    8004:	78282063 	stmdavc	r8!, {r0, r1, r5, r6, sp}
    8008:	5f5f0029 	svcpl	0x005f0029
    800c:	5f444e45 	svcpl	0x00444e45
    8010:	4c434544 	cfstr64mi	mvdx4, [r3], {68}	; 0x44
    8014:	5f002053 	svcpl	0x00002053
    8018:	4745425f 	smlsldmi	r4, r5, pc, r2	; <UNPREDICTABLE>
    801c:	445f4e49 	ldrbmi	r4, [pc], #-3657	; 8024 <_Min_Stack_Size+0x7c24>
    8020:	534c4345 	movtpl	r4, #49989	; 0xc345
    8024:	5f5f0020 	svcpl	0x005f0020
    8028:	6c6c756e 	cfstr64vs	mvdx7, [ip], #-440	; 0xfffffe48
    802c:	6e65735f 	mcrvs	3, 3, r7, cr5, cr15, {2}
    8030:	656e6974 	strbvs	r6, [lr, #-2420]!	; 0xfffff68c
    8034:	5f5f206c 	svcpl	0x005f206c
    8038:	72747461 	rsbsvc	r7, r4, #1627389952	; 0x61000000
    803c:	74756269 	ldrbtvc	r6, [r5], #-617	; 0xfffffd97
    8040:	285f5f65 	ldmdacs	pc, {r0, r2, r5, r6, r8, r9, sl, fp, ip, lr}^	; <UNPREDICTABLE>
    8044:	735f5f28 	cmpvc	pc, #40, 30	; 0xa0
    8048:	69746e65 	ldmdbvs	r4!, {r0, r2, r5, r6, r9, sl, fp, sp, lr}^
    804c:	5f6c656e 	svcpl	0x006c656e
    8050:	0029295f 	eoreq	r2, r9, pc, asr r9
    8054:	656e5f5f 	strbvs	r5, [lr, #-3935]!	; 0xfffff0a1
    8058:	4e5f6465 	cdpmi	4, 5, cr6, cr15, cr5, {3}
    805c:	204c4c55 	subcs	r4, ip, r5, asr ip
    8060:	535f5f00 	cmppl	pc, #0, 30
    8064:	2046424c 	subcs	r4, r6, ip, asr #4
    8068:	30307830 	eorscc	r7, r0, r0, lsr r8
    806c:	6f003130 	svcvs	0x00003130
    8070:	65736666 	ldrbvs	r6, [r3, #-1638]!	; 0xfffff99a
    8074:	28666f74 	stmdacs	r6!, {r2, r4, r5, r6, r8, r9, sl, fp, sp, lr}^
    8078:	45505954 	ldrbmi	r5, [r0, #-2388]	; 0xfffff6ac
    807c:	4d454d2c 	stclmi	13, cr4, [r5, #-176]	; 0xffffff50
    8080:	29524542 	ldmdbcs	r2, {r1, r6, r8, sl, lr}^
    8084:	625f5f20 	subsvs	r5, pc, #32, 30	; 0x80
    8088:	746c6975 	strbtvc	r6, [ip], #-2421	; 0xfffff68b
    808c:	6f5f6e69 	svcvs	0x005f6e69
    8090:	65736666 	ldrbvs	r6, [r3, #-1638]!	; 0xfffff99a
    8094:	20666f74 	rsbcs	r6, r6, r4, ror pc
    8098:	50595428 	subspl	r5, r9, r8, lsr #8
    809c:	4d202c45 	stcmi	12, cr2, [r0, #-276]!	; 0xfffffeec
    80a0:	45424d45 	strbmi	r4, [r2, #-3397]	; 0xfffff2bb
    80a4:	4c002952 			; <UNDEFINED> instruction: 0x4c002952
    80a8:	455f4443 	ldrbmi	r4, [pc, #-1091]	; 7c6d <_Min_Stack_Size+0x786d>
    80ac:	5952544e 	ldmdbpl	r2, {r1, r2, r3, r6, sl, ip, lr}^
    80b0:	444f4d5f 	strbmi	r4, [pc], #-3423	; 80b8 <_Min_Stack_Size+0x7cb8>
    80b4:	30282045 	eorcc	r2, r8, r5, asr #32
    80b8:	29363078 	ldmdbcs	r6!, {r3, r4, r5, r6, ip, sp}
    80bc:	705f5f00 	subsvc	r5, pc, r0, lsl #30
    80c0:	32657275 	rsbcc	r7, r5, #1342177287	; 0x50000007
    80c4:	615f5f20 	cmpvs	pc, r0, lsr #30
    80c8:	69727474 	ldmdbvs	r2!, {r2, r4, r5, r6, sl, ip, sp, lr}^
    80cc:	65747562 	ldrbvs	r7, [r4, #-1378]!	; 0xfffffa9e
    80d0:	28285f5f 	stmdacs	r8!, {r0, r1, r2, r3, r4, r6, r8, r9, sl, fp, ip, lr}
    80d4:	6f635f5f 	svcvs	0x00635f5f
    80d8:	5f74736e 	svcpl	0x0074736e
    80dc:	0029295f 	eoreq	r2, r9, pc, asr r9
    80e0:	534f505f 	movtpl	r5, #61535	; 0xf05f
    80e4:	535f5849 	cmppl	pc, #4784128	; 0x490000
    80e8:	4352554f 	cmpmi	r2, #331350016	; 0x13c00000
    80ec:	00312045 	eorseq	r2, r1, r5, asr #32
    80f0:	4e41525f 	mcrmi	2, 2, r5, cr1, cr15, {2}
    80f4:	5f383444 	svcpl	0x00383444
    80f8:	44454553 	strbmi	r4, [r5], #-1363	; 0xfffffaad
    80fc:	2820315f 	stmdacs	r0!, {r0, r1, r2, r3, r4, r6, r8, ip, sp}
    8100:	62617830 	rsbvs	r7, r1, #48, 16	; 0x300000
    8104:	00296463 	eoreq	r6, r9, r3, ror #8
    8108:	5f44434c 	svcpl	0x0044434c
    810c:	49505f45 	ldmdbmi	r0, {r0, r2, r6, r8, r9, sl, fp, ip, lr}^
    8110:	5047204e 	subpl	r2, r7, lr, asr #32
    8114:	505f4f49 	subspl	r4, pc, r9, asr #30
    8118:	315f4e49 	cmpcc	pc, r9, asr #28
    811c:	5f5f0030 	svcpl	0x005f0030
    8120:	746e695f 	strbtvc	r6, [lr], #-2399	; 0xfffff6a1
    8124:	7274705f 	rsbsvc	r7, r4, #95	; 0x5f
    8128:	66666964 	strbtvs	r6, [r6], -r4, ror #18
    812c:	685f745f 	ldmdavs	pc, {r0, r1, r2, r3, r4, r6, sl, ip, sp, lr}^	; <UNPREDICTABLE>
    8130:	525f0020 	subspl	r0, pc, #32
    8134:	544e4545 	strbpl	r4, [lr], #-1349	; 0xfffffabb
    8138:	454c435f 	strbmi	r4, [ip, #-863]	; 0xfffffca1
    813c:	50554e41 	subspl	r4, r5, r1, asr #28
    8140:	74705f28 	ldrbtvc	r5, [r0], #-3880	; 0xfffff0d8
    8144:	28202972 	stmdacs	r0!, {r1, r4, r5, r6, r8, fp, sp}
    8148:	74705f28 	ldrbtvc	r5, [r0], #-3880	; 0xfffff0d8
    814c:	3e2d2972 			; <UNDEFINED> instruction: 0x3e2d2972
    8150:	6c635f5f 	stclvs	15, cr5, [r3], #-380	; 0xfffffe84
    8154:	756e6165 	strbvc	r6, [lr, #-357]!	; 0xfffffe9b
    8158:	5f002970 	svcpl	0x00002970
    815c:	5f43435f 	svcpl	0x0043435f
    8160:	50505553 	subspl	r5, r0, r3, asr r5
    8164:	5354524f 	cmppl	r4, #-268435452	; 0xf0000004
    8168:	465f5f5f 	usaxmi	r5, pc, pc	; <UNPREDICTABLE>
    816c:	5f434e55 	svcpl	0x00434e55
    8170:	0031205f 	eorseq	r2, r1, pc, asr r0
    8174:	53535f5f 	cmppl	r3, #380	; 0x17c
    8178:	4f465f50 	svcmi	0x00465f50
    817c:	46495452 			; <UNDEFINED> instruction: 0x46495452
    8180:	454c5f59 	strbmi	r5, [ip, #-3929]	; 0xfffff0a7
    8184:	204c4556 	subcs	r4, ip, r6, asr r5
    8188:	5f5f0030 	svcpl	0x005f0030
    818c:	43554e47 	cmpmi	r5, #1136	; 0x470
    8190:	454b494c 	strbmi	r4, [fp, #-2380]	; 0xfffff6b4
    8194:	54414d5f 	strbpl	r4, [r1], #-3423	; 0xfffff2a1
    8198:	55425f48 	strbpl	r5, [r2, #-3912]	; 0xfffff0b8
    819c:	49544c49 	ldmdbmi	r4, {r0, r3, r6, sl, fp, lr}^
    81a0:	4f435f4e 	svcmi	0x00435f4e
    81a4:	4154534e 	cmpmi	r4, lr, asr #6
    81a8:	2053544e 	subscs	r5, r3, lr, asr #8
    81ac:	535f5f00 	cmppl	pc, #0, 30
    81b0:	5f455a49 	svcpl	0x00455a49
    81b4:	205f5f54 	subscs	r5, pc, r4, asr pc	; <UNPREDICTABLE>
    81b8:	5f545f00 	svcpl	0x00545f00
    81bc:	44525450 	ldrbmi	r5, [r2], #-1104	; 0xfffffbb0
    81c0:	5f464649 	svcpl	0x00464649
    81c4:	5f5f0020 	svcpl	0x005f0020
    81c8:	4c57454e 	cfldr64mi	mvdx4, [r7], {78}	; 0x4e
    81cc:	505f4249 	subspl	r4, pc, r9, asr #4
    81d0:	48435441 	stmdami	r3, {r0, r6, sl, ip, lr}^
    81d4:	4556454c 	ldrbmi	r4, [r6, #-1356]	; 0xfffffab4
    81d8:	205f5f4c 	subscs	r5, pc, ip, asr #30
    81dc:	415f0030 	cmpmi	pc, r0, lsr r0	; <UNPREDICTABLE>
    81e0:	5f49534e 	svcpl	0x0049534e
    81e4:	44445453 	strbmi	r5, [r4], #-1107	; 0xfffffbad
    81e8:	485f4645 	ldmdami	pc, {r0, r2, r6, r9, sl, lr}^	; <UNPREDICTABLE>
    81ec:	5f5f0020 	svcpl	0x005f0020
    81f0:	6c697562 	cfstr64vs	mvdx7, [r9], #-392	; 0xfffffe78
    81f4:	5f6e6974 	svcpl	0x006e6974
    81f8:	67696c61 	strbvs	r6, [r9, -r1, ror #24]!
    81fc:	70755f6e 	rsbsvc	r5, r5, lr, ror #30
    8200:	612c7828 			; <UNDEFINED> instruction: 0x612c7828
    8204:	6e67696c 	vnmulvs.f16	s13, s14, s25	; <UNPREDICTABLE>
    8208:	28282029 	stmdacs	r8!, {r0, r3, r5, sp}
    820c:	79745f5f 	ldmdbvc	r4!, {r0, r1, r2, r3, r4, r6, r8, r9, sl, fp, ip, lr}^
    8210:	666f6570 			; <UNDEFINED> instruction: 0x666f6570
    8214:	78285f5f 	stmdavc	r8!, {r0, r1, r2, r3, r4, r6, r8, r9, sl, fp, ip, lr}
    8218:	28282929 	stmdacs	r8!, {r0, r3, r5, r8, fp, sp}
    821c:	755f5f28 	ldrbvc	r5, [pc, #-3880]	; 72fc <_Min_Stack_Size+0x6efc>
    8220:	70746e69 	rsbsvc	r6, r4, r9, ror #28
    8224:	745f7274 	ldrbvc	r7, [pc], #-628	; 822c <_Min_Stack_Size+0x7e2c>
    8228:	29782829 	ldmdbcs	r8!, {r0, r3, r5, fp, sp}^
    822c:	6128282b 			; <UNDEFINED> instruction: 0x6128282b
    8230:	6e67696c 	vnmulvs.f16	s13, s14, s25	; <UNPREDICTABLE>
    8234:	29312d29 	ldmdbcs	r1!, {r0, r3, r5, r8, sl, fp, sp}
    8238:	7e282629 	cfmadda32vc	mvax1, mvax2, mvfx8, mvfx9
    823c:	6c612828 	stclvs	8, cr2, [r1], #-160	; 0xffffff60
    8240:	296e6769 	stmdbcs	lr!, {r0, r3, r5, r6, r8, r9, sl, sp, lr}^
    8244:	2929312d 	stmdbcs	r9!, {r0, r2, r3, r5, r8, ip, sp}
    8248:	5f002929 	svcpl	0x00002929
    824c:	6e6f635f 	mcrvs	3, 3, r6, cr15, cr15, {2}
    8250:	63207473 			; <UNDEFINED> instruction: 0x63207473
    8254:	74736e6f 	ldrbtvc	r6, [r3], #-3695	; 0xfffff191
    8258:	615f5f00 	cmpvs	pc, r0, lsl #30
    825c:	636f6c6c 	cmnvs	pc, #108, 24	; 0x6c00
    8260:	7a69735f 	bvc	1a64fe4 <_Min_Stack_Size+0x1a64be4>
    8264:	29782865 	ldmdbcs	r8!, {r0, r2, r5, r6, fp, sp}^
    8268:	615f5f20 	cmpvs	pc, r0, lsr #30
    826c:	69727474 	ldmdbvs	r2!, {r2, r4, r5, r6, sl, ip, sp, lr}^
    8270:	65747562 	ldrbvs	r7, [r4, #-1378]!	; 0xfffffa9e
    8274:	28285f5f 	stmdacs	r8!, {r0, r1, r2, r3, r4, r6, r8, r9, sl, fp, ip, lr}
    8278:	6c615f5f 	stclvs	15, cr5, [r1], #-380	; 0xfffffe84
    827c:	5f636f6c 	svcpl	0x00636f6c
    8280:	657a6973 	ldrbvs	r6, [sl, #-2419]!	; 0xfffff68d
    8284:	78285f5f 	stmdavc	r8!, {r0, r1, r2, r3, r4, r6, r8, r9, sl, fp, ip, lr}
    8288:	00292929 	eoreq	r2, r9, r9, lsr #18
    828c:	4e41575f 	mcrmi	7, 2, r5, cr1, cr15, {2}
    8290:	53555f54 	cmppl	r5, #84, 30	; 0x150
    8294:	44475f45 	strbmi	r5, [r7], #-3909	; 0xfffff0bb
    8298:	20414f54 	subcs	r4, r1, r4, asr pc
    829c:	5f5f0031 	svcpl	0x005f0031
    82a0:	6e726177 	mrcvs	1, 3, r6, cr2, cr7, {3}
    82a4:	6665725f 			; <UNDEFINED> instruction: 0x6665725f
    82a8:	6e657265 	cdpvs	2, 6, cr7, cr5, cr5, {3}
    82ac:	28736563 	ldmdacs	r3!, {r0, r1, r5, r6, r8, sl, sp, lr}^
    82b0:	2c6d7973 			; <UNDEFINED> instruction: 0x2c6d7973
    82b4:	2967736d 	stmdbcs	r7!, {r0, r2, r3, r5, r6, r8, r9, ip, sp, lr}^
    82b8:	615f5f20 	cmpvs	pc, r0, lsr #30
    82bc:	5f5f6d73 	svcpl	0x005f6d73
    82c0:	732e2228 			; <UNDEFINED> instruction: 0x732e2228
    82c4:	69746365 	ldmdbvs	r4!, {r0, r2, r5, r6, r8, r9, sp, lr}^
    82c8:	2e206e6f 	cdpcs	14, 2, cr6, cr0, cr15, {3}
    82cc:	2e756e67 	cdpcs	14, 7, cr6, cr5, cr7, {3}
    82d0:	6e726177 	mrcvs	1, 3, r6, cr2, cr7, {3}
    82d4:	2e676e69 	cdpcs	14, 6, cr6, cr7, cr9, {3}
    82d8:	73232022 			; <UNDEFINED> instruction: 0x73232022
    82dc:	3b296d79 	blcc	a638c8 <_Min_Stack_Size+0xa634c8>
    82e0:	615f5f20 	cmpvs	pc, r0, lsr #30
    82e4:	5f5f6d73 	svcpl	0x005f6d73
    82e8:	612e2228 			; <UNDEFINED> instruction: 0x612e2228
    82ec:	7a696373 	bvc	1a610c0 <_Min_Stack_Size+0x1a60cc0>
    82f0:	22225c20 	eorcs	r5, r2, #32, 24	; 0x2000
    82f4:	67736d20 	ldrbvs	r6, [r3, -r0, lsr #26]!
    82f8:	225c2220 	subscs	r2, ip, #32, 4
    82fc:	203b2922 	eorscs	r2, fp, r2, lsr #18
    8300:	73615f5f 	cmnvc	r1, #380	; 0x17c
    8304:	285f5f6d 	ldmdacs	pc, {r0, r2, r3, r5, r6, r8, r9, sl, fp, ip, lr}^	; <UNPREDICTABLE>
    8308:	72702e22 	rsbsvc	r2, r0, #544	; 0x220
    830c:	6f697665 	svcvs	0x00697665
    8310:	29227375 	stmdbcs	r2!, {r0, r2, r4, r5, r6, r8, r9, ip, sp, lr}
    8314:	6e5f5f00 	cdpvs	15, 5, cr5, cr15, cr0, {0}
    8318:	5f646565 	svcpl	0x00646565
    831c:	61765f5f 	cmnvs	r6, pc, asr pc
    8320:	73696c5f 	cmnvc	r9, #24320	; 0x5f00
    8324:	49450074 	stmdbmi	r5, {r2, r4, r5, r6}^
    8328:	5f544847 	svcpl	0x00544847
    832c:	5f544942 	svcpl	0x00544942
    8330:	45444f4d 	strbmi	r4, [r4, #-3917]	; 0xfffff0b3
    8334:	5f003120 	svcpl	0x00003120
    8338:	4c57454e 	cfldr64mi	mvdx4, [r7], {78}	; 0x4e
    833c:	565f4249 	ldrbpl	r4, [pc], -r9, asr #4
    8340:	49535245 	ldmdbmi	r3, {r0, r2, r6, r9, ip, lr}^
    8344:	485f4e4f 	ldmdami	pc, {r0, r1, r2, r3, r6, r9, sl, fp, lr}^	; <UNPREDICTABLE>
    8348:	31205f5f 			; <UNDEFINED> instruction: 0x31205f5f
    834c:	54415f00 	strbpl	r5, [r1], #-3840	; 0xfffff100
    8350:	54495845 	strbpl	r5, [r9], #-2117	; 0xfffff7bb
    8354:	4e59445f 	mrcmi	4, 2, r4, cr9, cr15, {2}
    8358:	43494d41 	movtmi	r4, #40257	; 0x9d41
    835c:	4c4c415f 	stfmie	f4, [ip], {95}	; 0x5f
    8360:	3120434f 			; <UNDEFINED> instruction: 0x3120434f
    8364:	6e5f5f00 	cdpvs	15, 5, cr5, cr15, cr0, {0}
    8368:	5f646565 	svcpl	0x00646565
    836c:	657a6973 	ldrbvs	r6, [sl, #-2419]!	; 0xfffff68d
    8370:	5f00745f 	svcpl	0x0000745f
    8374:	4e454552 	mcrmi	5, 2, r4, cr5, cr2, {2}
    8378:	54535f54 	ldrbpl	r5, [r3], #-3924	; 0xfffff0ac
    837c:	52524544 	subspl	r4, r2, #68, 10	; 0x11000000
    8380:	74705f28 	ldrbtvc	r5, [r0], #-3880	; 0xfffff0d8
    8384:	28202972 	stmdacs	r0!, {r1, r4, r5, r6, r8, fp, sp}
    8388:	74705f28 	ldrbtvc	r5, [r0], #-3880	; 0xfffff0d8
    838c:	3e2d2972 			; <UNDEFINED> instruction: 0x3e2d2972
    8390:	6474735f 	ldrbtvs	r7, [r4], #-863	; 0xfffffca1
    8394:	29727265 	ldmdbcs	r2!, {r0, r2, r5, r6, r9, ip, sp, lr}^
    8398:	635f4c00 	cmpvs	pc, #0, 24
    839c:	6d726574 	cfldr64vs	mvdx6, [r2, #-464]!	; 0xfffffe30
    83a0:	31206469 			; <UNDEFINED> instruction: 0x31206469
    83a4:	49460036 	stmdbmi	r6, {r1, r2, r4, r5}^
    83a8:	414e454c 	cmpmi	lr, ip, asr #10
    83ac:	4d5f454d 	cfldr64mi	mvdx4, [pc, #-308]	; 8280 <_Min_Stack_Size+0x7e80>
    83b0:	31205841 			; <UNDEFINED> instruction: 0x31205841
    83b4:	00343230 	eorseq	r3, r4, r0, lsr r2
    83b8:	63775f5f 	cmnvs	r7, #380	; 0x17c
    83bc:	5f726168 	svcpl	0x00726168
    83c0:	205f5f74 	subscs	r5, pc, r4, ror pc	; <UNPREDICTABLE>
    83c4:	565f5f00 	ldrbpl	r5, [pc], -r0, lsl #30
    83c8:	53494c41 	movtpl	r4, #40001	; 0x9c41
    83cc:	5f5f2054 	svcpl	0x005f2054
    83d0:	63756e67 	cmnvs	r5, #1648	; 0x670
    83d4:	5f61765f 	svcpl	0x0061765f
    83d8:	7473696c 	ldrbtvc	r6, [r3], #-2412	; 0xfffff694
    83dc:	745f5000 	ldrbvc	r5, [pc], #-0	; 83e4 <_Min_Stack_Size+0x7fe4>
    83e0:	6964706d 	stmdbvs	r4!, {r0, r2, r3, r5, r6, ip, sp, lr}^
    83e4:	2f222072 	svccs	0x00222072
    83e8:	22706d74 	rsbscs	r6, r0, #116, 26	; 0x1d00
    83ec:	45525f00 	ldrbmi	r5, [r2, #-3840]	; 0xfffff100
    83f0:	5f544e45 	svcpl	0x00544e45
    83f4:	54435341 	strbpl	r5, [r3], #-833	; 0xfffffcbf
    83f8:	5f454d49 	svcpl	0x00454d49
    83fc:	28465542 	stmdacs	r6, {r1, r6, r8, sl, ip, lr}^
    8400:	29727470 	ldmdbcs	r2!, {r4, r5, r6, sl, ip, sp, lr}^
    8404:	70282820 	eorvc	r2, r8, r0, lsr #16
    8408:	2d297274 	sfmcs	f7, 4, [r9, #-464]!	; 0xfffffe30
    840c:	73615f3e 	cmnvc	r1, #62, 30	; 0xf8
    8410:	6d697463 	cfstrdvs	mvd7, [r9, #-396]!	; 0xfffffe74
    8414:	75625f65 	strbvc	r5, [r2, #-3941]!	; 0xfffff09b
    8418:	5f002966 	svcpl	0x00002966
    841c:	454d4954 	strbmi	r4, [sp, #-2388]	; 0xfffff6ac
    8420:	5f545f52 	svcpl	0x00545f52
    8424:	736e7520 	cmnvc	lr, #32, 10	; 0x8000000
    8428:	656e6769 	strbvs	r6, [lr, #-1897]!	; 0xfffff897
    842c:	6f6c2064 	svcvs	0x006c2064
    8430:	5f00676e 	svcpl	0x0000676e
    8434:	4e454552 	mcrmi	5, 2, r4, cr5, cr2, {2}
    8438:	4f4c5f54 	svcmi	0x004c5f54
    843c:	454c4143 	strbmi	r4, [ip, #-323]	; 0xfffffebd
    8440:	74705f28 	ldrbtvc	r5, [r0], #-3880	; 0xfffff0d8
    8444:	28202972 	stmdacs	r0!, {r1, r4, r5, r6, r8, fp, sp}
    8448:	74705f28 	ldrbtvc	r5, [r0], #-3880	; 0xfffff0d8
    844c:	3e2d2972 			; <UNDEFINED> instruction: 0x3e2d2972
    8450:	636f6c5f 	cmnvs	pc, #24320	; 0x5f00
    8454:	29656c61 	stmdbcs	r5!, {r0, r5, r6, sl, fp, sp, lr}^
    8458:	45525f00 	ldrbmi	r5, [r2, #-3840]	; 0xfffff100
    845c:	5f544e45 	svcpl	0x00544e45
    8460:	444e4152 	strbmi	r4, [lr], #-338	; 0xfffffeae
    8464:	4d5f3834 	ldclmi	8, cr3, [pc, #-208]	; 839c <_Min_Stack_Size+0x7f9c>
    8468:	28544c55 	ldmdacs	r4, {r0, r2, r4, r6, sl, fp, lr}^
    846c:	29727470 	ldmdbcs	r2!, {r4, r5, r6, sl, ip, sp, lr}^
    8470:	70282820 	eorvc	r2, r8, r0, lsr #16
    8474:	2d297274 	sfmcs	f7, 4, [r9, #-464]!	; 0xfffffe30
    8478:	34725f3e 	ldrbtcc	r5, [r2], #-3902	; 0xfffff0c2
    847c:	5f3e2d38 	svcpl	0x003e2d38
    8480:	746c756d 	strbtvc	r7, [ip], #-1389	; 0xfffffa93
    8484:	735f0029 	cmpvc	pc, #41	; 0x29
    8488:	6e696474 	mcrvs	4, 3, r6, cr9, cr4, {3}
    848c:	7828725f 	stmdavc	r8!, {r0, r1, r2, r3, r4, r6, r9, ip, sp, lr}
    8490:	525f2029 	subspl	r2, pc, #41	; 0x29
    8494:	544e4545 	strbpl	r4, [lr], #-1349	; 0xfffffabb
    8498:	4454535f 	ldrbmi	r5, [r4], #-863	; 0xfffffca1
    849c:	78284e49 	stmdavc	r8!, {r0, r3, r6, r9, sl, fp, lr}
    84a0:	5f5f0029 	svcpl	0x005f0029
    84a4:	41484357 	cmpmi	r8, r7, asr r3
    84a8:	20545f52 	subscs	r5, r4, r2, asr pc
    84ac:	535f5f00 	cmppl	pc, #0, 30
    84b0:	435f5359 	cmpmi	pc, #1677721601	; 0x64000001
    84b4:	49464e4f 	stmdbmi	r6, {r0, r1, r2, r3, r6, r9, sl, fp, lr}^
    84b8:	5f485f47 	svcpl	0x00485f47
    84bc:	5f00205f 	svcpl	0x0000205f
    84c0:	6e695f5f 	mcrvs	15, 3, r5, cr9, cr15, {2}
    84c4:	5f323374 	svcpl	0x00323374
    84c8:	65645f74 	strbvs	r5, [r4, #-3956]!	; 0xfffff08c
    84cc:	656e6966 	strbvs	r6, [lr, #-2406]!	; 0xfffff69a
    84d0:	00312064 	eorseq	r2, r1, r4, rrx
    84d4:	65735f5f 	ldrbvs	r5, [r3, #-3935]!	; 0xfffff0a1
    84d8:	6f697463 	svcvs	0x00697463
    84dc:	2978286e 	ldmdbcs	r8!, {r1, r2, r3, r5, r6, fp, sp}^
    84e0:	615f5f20 	cmpvs	pc, r0, lsr #30
    84e4:	69727474 	ldmdbvs	r2!, {r2, r4, r5, r6, sl, ip, sp, lr}^
    84e8:	65747562 	ldrbvs	r7, [r4, #-1378]!	; 0xfffffa9e
    84ec:	28285f5f 	stmdacs	r8!, {r0, r1, r2, r3, r4, r6, r8, r9, sl, fp, ip, lr}
    84f0:	65735f5f 	ldrbvs	r5, [r3, #-3935]!	; 0xfffff0a1
    84f4:	6f697463 	svcvs	0x00697463
    84f8:	285f5f6e 	ldmdacs	pc, {r1, r2, r3, r5, r6, r8, r9, sl, fp, ip, lr}^	; <UNPREDICTABLE>
    84fc:	29292978 	stmdbcs	r9!, {r3, r4, r5, r6, r8, fp, sp}
    8500:	4f495f00 	svcmi	0x00495f00
    8504:	2046424e 	subcs	r4, r6, lr, asr #4
    8508:	5f5f0032 	svcpl	0x005f0032
    850c:	5f445342 	svcpl	0x00445342
    8510:	49534956 	ldmdbmi	r3, {r1, r2, r4, r6, r8, fp, lr}^
    8514:	20454c42 	subcs	r4, r5, r2, asr #24
    8518:	5f5f0031 	svcpl	0x005f0031
    851c:	73756e75 	cmnvc	r5, #1872	; 0x750
    8520:	5f206465 	svcpl	0x00206465
    8524:	7474615f 	ldrbtvc	r6, [r4], #-351	; 0xfffffea1
    8528:	75626972 	strbvc	r6, [r2, #-2418]!	; 0xfffff68e
    852c:	5f5f6574 	svcpl	0x005f6574
    8530:	5f5f2828 	svcpl	0x005f2828
    8534:	73756e75 	cmnvc	r5, #1872	; 0x750
    8538:	5f5f6465 	svcpl	0x005f6465
    853c:	5f002929 	svcpl	0x00002929
    8540:	5353415f 	cmppl	r3, #-1073741801	; 0xc0000017
    8544:	5f545245 	svcpl	0x00545245
    8548:	434e5546 	movtmi	r5, #58694	; 0xe546
    854c:	665f5f20 	ldrbvs	r5, [pc], -r0, lsr #30
    8550:	5f636e75 	svcpl	0x00636e75
    8554:	5f5f005f 	svcpl	0x005f005f
    8558:	43554e47 	cmpmi	r5, #1136	; 0x470
    855c:	454b494c 	strbmi	r4, [fp, #-2380]	; 0xfffff6b4
    8560:	535f5f5f 	cmppl	pc, #380	; 0x17c
    8564:	49544345 	ldmdbmi	r4, {r0, r2, r6, r8, r9, lr}^
    8568:	31204e4f 			; <UNDEFINED> instruction: 0x31204e4f
    856c:	6d4b5f00 	stclvs	15, cr5, [fp, #-0]
    8570:	28207861 	stmdacs	r0!, {r0, r5, r6, fp, ip, sp, lr}
    8574:	657a6973 	ldrbvs	r6, [sl, #-2419]!	; 0xfffff68d
    8578:	2820666f 	stmdacs	r0!, {r0, r1, r2, r3, r5, r6, r9, sl, sp, lr}
    857c:	657a6973 	ldrbvs	r6, [sl, #-2419]!	; 0xfffff68d
    8580:	2029745f 	eorcs	r7, r9, pc, asr r4
    8584:	33203c3c 			; <UNDEFINED> instruction: 0x33203c3c
    8588:	5f5f0029 	svcpl	0x005f0029
    858c:	746e695f 	strbtvc	r6, [lr], #-2399	; 0xfffff6a1
    8590:	61656c5f 	cmnvs	r5, pc, asr ip
    8594:	34367473 	ldrtcc	r7, [r6], #-1139	; 0xfffffb8d
    8598:	645f745f 	ldrbvs	r7, [pc], #-1119	; 85a0 <_Min_Stack_Size+0x81a0>
    859c:	6e696665 	cdpvs	6, 6, cr6, cr9, cr5, {3}
    85a0:	31206465 			; <UNDEFINED> instruction: 0x31206465
    85a4:	41575f00 	cmpmi	r7, r0, lsl #30
    85a8:	525f544e 	subspl	r5, pc, #1308622848	; 0x4e000000
    85ac:	544e4545 	strbpl	r4, [lr], #-1349	; 0xfffffabb
    85b0:	414d535f 	cmpmi	sp, pc, asr r3
    85b4:	31204c4c 			; <UNDEFINED> instruction: 0x31204c4c
    85b8:	545f5f00 	ldrbpl	r5, [pc], #-3840	; 85c0 <_Min_Stack_Size+0x81c0>
    85bc:	574f5248 	strbpl	r5, [pc, -r8, asr #4]
    85c0:	525f0020 	subspl	r0, pc, #32
    85c4:	544e4545 	strbpl	r4, [lr], #-1349	; 0xfffffabb
    85c8:	4548435f 	strbmi	r4, [r8, #-863]	; 0xfffffca1
    85cc:	4d5f4b43 	vldrmi	d20, [pc, #-268]	; 84c8 <_Min_Stack_Size+0x80c8>
    85d0:	61762850 	cmnvs	r6, r0, asr r8
    85d4:	5f202972 	svcpl	0x00202972
    85d8:	4e454552 	mcrmi	5, 2, r4, cr5, cr2, {2}
    85dc:	48435f54 	stmdami	r3, {r2, r4, r6, r8, r9, sl, fp, ip, lr}^
    85e0:	284b4345 	stmdacs	fp, {r0, r2, r6, r8, r9, lr}^
    85e4:	2c726176 	ldfcse	f6, [r2], #-472	; 0xfffffe28
    85e8:	706d5f20 	rsbvc	r5, sp, r0, lsr #30
    85ec:	7473202c 	ldrbtvc	r2, [r3], #-44	; 0xffffffd4
    85f0:	74637572 	strbtvc	r7, [r3], #-1394	; 0xfffffa8e
    85f4:	706d5f20 	rsbvc	r5, sp, r0, lsr #30
    85f8:	20636572 	rsbcs	r6, r3, r2, ror r5
    85fc:	73202c2a 			; <UNDEFINED> instruction: 0x73202c2a
    8600:	6f657a69 	svcvs	0x00657a69
    8604:	282a2066 	stmdacs	sl!, {r1, r2, r5, r6, sp}
    8608:	72617628 	rsbvc	r7, r1, #40, 12	; 0x2800000
    860c:	5f3e2d29 	svcpl	0x003e2d29
    8610:	2c29706d 	stccs	0, cr7, [r9], #-436	; 0xfffffe4c
    8614:	45525f20 	ldrbmi	r5, [r2, #-3872]	; 0xfffff0e0
    8618:	5f544e45 	svcpl	0x00544e45
    861c:	54494e49 	strbpl	r4, [r9], #-3657	; 0xfffff1b7
    8620:	28504d5f 	ldmdacs	r0, {r0, r1, r2, r3, r4, r6, r8, sl, fp, lr}^
    8624:	29726176 	ldmdbcs	r2!, {r1, r2, r4, r5, r6, r8, sp, lr}^
    8628:	75700029 	ldrbvc	r0, [r0, #-41]!	; 0xffffffd7
    862c:	61686374 	smcvs	34356	; 0x8634
    8630:	6e755f72 	mrcvs	15, 3, r5, cr5, cr2, {3}
    8634:	6b636f6c 	blvs	18e43ec <_Min_Stack_Size+0x18e3fec>
    8638:	5f286465 	svcpl	0x00286465
    863c:	5f202963 	svcpl	0x00202963
    8640:	63747570 	cmnvs	r4, #112, 10	; 0x1c000000
    8644:	5f726168 	svcpl	0x00726168
    8648:	6f6c6e75 	svcvs	0x006c6e75
    864c:	64656b63 	strbtvs	r6, [r5], #-2915	; 0xfffff49d
    8650:	29635f28 	stmdbcs	r3!, {r3, r5, r8, r9, sl, fp, ip, lr}^
    8654:	54415f00 	strbpl	r5, [r1], #-3840	; 0xfffff100
    8658:	454c4946 	strbmi	r4, [ip, #-2374]	; 0xfffff6ba
    865c:	554f535f 	strbpl	r5, [pc, #-863]	; 8305 <_Min_Stack_Size+0x7f05>
    8660:	20454352 	subcs	r4, r5, r2, asr r3
    8664:	5f5f0031 	svcpl	0x005f0031
    8668:	28505845 	ldmdacs	r0, {r0, r2, r6, fp, ip, lr}^
    866c:	5f202978 	svcpl	0x00202978
    8670:	2323205f 			; <UNDEFINED> instruction: 0x2323205f
    8674:	23232078 			; <UNDEFINED> instruction: 0x23232078
    8678:	43005f5f 	movwmi	r5, #3935	; 0xf5f
    867c:	72746e6f 	rsbsvc	r6, r4, #1776	; 0x6f0
    8680:	525f6c6f 	subspl	r6, pc, #28416	; 0x6f00
    8684:	5f006765 	svcpl	0x00006765
    8688:	48544f4e 	ldmdami	r4, {r1, r2, r3, r6, r8, r9, sl, fp, lr}^
    868c:	20574f52 	subscs	r4, r7, r2, asr pc
    8690:	735f5f00 	cmpvc	pc, #0, 30
    8694:	666f6566 	strbtvs	r6, [pc], -r6, ror #10
    8698:	20297028 	eorcs	r7, r9, r8, lsr #32
    869c:	6e692828 	cdpvs	8, 6, cr2, cr9, cr8, {1}
    86a0:	28282974 	stmdacs	r8!, {r2, r4, r5, r6, r8, fp, sp}
    86a4:	2d297028 	stccs	0, cr7, [r9, #-160]!	; 0xffffff60
    86a8:	6c665f3e 	stclvs	15, cr5, [r6], #-248	; 0xffffff08
    86ac:	20736761 	rsbscs	r6, r3, r1, ror #14
    86b0:	5f5f2026 	svcpl	0x005f2026
    86b4:	464f4553 			; <UNDEFINED> instruction: 0x464f4553
    86b8:	3d212029 	stccc	0, cr2, [r1, #-164]!	; 0xffffff5c
    86bc:	29293020 	stmdbcs	r9!, {r5, ip, sp}
    86c0:	4e415f00 	cdpmi	15, 4, cr5, cr1, cr0, {0}
    86c4:	45444953 	strbmi	r4, [r4, #-2387]	; 0xfffff6ad
    86c8:	485f4c43 	ldmdami	pc, {r0, r1, r6, sl, fp, lr}^	; <UNPREDICTABLE>
    86cc:	4500205f 	strmi	r2, [r0, #-95]	; 0xffffffa1
    86d0:	2820464f 	stmdacs	r0!, {r0, r1, r2, r3, r6, r9, sl, lr}
    86d4:	0029312d 	eoreq	r3, r9, sp, lsr #2
    86d8:	4f505f5f 	svcmi	0x00505f5f
    86dc:	5f584953 	svcpl	0x00584953
    86e0:	49534956 	ldmdbmi	r3, {r1, r2, r4, r6, r8, fp, lr}^
    86e4:	20454c42 	subcs	r4, r5, r2, asr #24
    86e8:	38303032 	ldmdacc	r0!, {r1, r4, r5, ip, sp}
    86ec:	5f003930 	svcpl	0x00003930
    86f0:	554e475f 	strbpl	r4, [lr, #-1887]	; 0xfffff8a1
    86f4:	4b494c43 	blmi	125b808 <_Min_Stack_Size+0x125b408>
    86f8:	55425f45 	strbpl	r5, [r2, #-3909]	; 0xfffff0bb
    86fc:	49544c49 	ldmdbmi	r4, {r0, r3, r6, sl, fp, lr}^
    8700:	454d5f4e 	strbmi	r5, [sp, #-3918]	; 0xfffff0b2
    8704:	5950434d 	ldmdbpl	r0, {r0, r2, r3, r6, r8, r9, lr}^
    8708:	5f003120 	svcpl	0x00003120
    870c:	4f4c465f 	svcmi	0x004c465f
    8710:	545f5441 	ldrbpl	r5, [pc], #-1089	; 8718 <_Min_Stack_Size+0x8318>
    8714:	20455059 	subcs	r5, r5, r9, asr r0
    8718:	616f6c66 	cmnvs	pc, r6, ror #24
    871c:	5f5f0074 	svcpl	0x005f0074
    8720:	464f4553 			; <UNDEFINED> instruction: 0x464f4553
    8724:	30783020 	rsbscc	r3, r8, r0, lsr #32
    8728:	00303230 	eorseq	r3, r0, r0, lsr r2
    872c:	4545525f 	strbmi	r5, [r5, #-607]	; 0xfffffda1
    8730:	4d5f544e 	cfldrdmi	mvd5, [pc, #-312]	; 8600 <_Min_Stack_Size+0x8200>
    8734:	454c5242 	strbmi	r5, [ip, #-578]	; 0xfffffdbe
    8738:	54535f4e 	ldrbpl	r5, [r3], #-3918	; 0xfffff0b2
    873c:	28455441 	stmdacs	r5, {r0, r6, sl, ip, lr}^
    8740:	29727470 	ldmdbcs	r2!, {r4, r5, r6, sl, ip, sp, lr}^
    8744:	70282820 	eorvc	r2, r8, r0, lsr #16
    8748:	2d297274 	sfmcs	f7, 4, [r9, #-464]!	; 0xfffffe30
    874c:	696d5f3e 	stmdbvs	sp!, {r1, r2, r3, r4, r5, r8, r9, sl, fp, ip, lr}^
    8750:	3e2d6373 	mcrcc	3, 1, r6, cr13, cr3, {3}
    8754:	72626d5f 	rsbvc	r6, r2, #6080	; 0x17c0
    8758:	5f6e656c 	svcpl	0x006e656c
    875c:	74617473 	strbtvc	r7, [r1], #-1139	; 0xfffffb8d
    8760:	45002965 	strmi	r2, [r0, #-2405]	; 0xfffff69b
    8764:	42495458 	submi	r5, r9, #88, 8	; 0x58000000
    8768:	61435f39 	cmpvs	r3, r9, lsr pc
    876c:	61426c6c 	cmpvs	r2, ip, ror #24
    8770:	5f006b63 	svcpl	0x00006b63
    8774:	5454415f 	ldrbpl	r4, [r4], #-351	; 0xfffffea1
    8778:	55424952 	strbpl	r4, [r2, #-2386]	; 0xfffff6ae
    877c:	495f4554 	ldmdbmi	pc, {r2, r4, r6, r8, sl, lr}^	; <UNPREDICTABLE>
    8780:	5255504d 	subspl	r5, r5, #77	; 0x4d
    8784:	41445f45 	cmpmi	r4, r5, asr #30
    8788:	5f5f4154 	svcpl	0x005f4154
    878c:	5f5f0020 	svcpl	0x005f0020
    8790:	4c57454e 	cfldr64mi	mvdx4, [r7], {78}	; 0x4e
    8794:	4d5f4249 	lfmmi	f4, 2, [pc, #-292]	; 8678 <_Min_Stack_Size+0x8278>
    8798:	524f4e49 	subpl	r4, pc, #1168	; 0x490
    879c:	32205f5f 	eorcc	r5, r0, #380	; 0x17c
    87a0:	44504b00 	ldrbmi	r4, [r0], #-2816	; 0xfffff500
    87a4:	574f525f 	smlsldpl	r5, pc, pc, r2	; <UNPREDICTABLE>
    87a8:	524f505f 	subpl	r5, pc, #95	; 0x5f
    87ac:	50472054 	subpl	r2, r7, r4, asr r0
    87b0:	00424f49 	subeq	r4, r2, r9, asr #30
    87b4:	5f504d54 	svcpl	0x00504d54
    87b8:	2058414d 	subscs	r4, r8, sp, asr #2
    87bc:	4c003632 	stcmi	6, cr3, [r0], {50}	; 0x32
    87c0:	455f4443 	ldrbmi	r4, [pc, #-1091]	; 8385 <_Min_Stack_Size+0x7f85>
    87c4:	5952544e 	ldmdbpl	r2, {r1, r2, r3, r6, sl, ip, lr}^
    87c8:	4345445f 	movtmi	r4, #21599	; 0x545f
    87cc:	4948535f 	stmdbmi	r8, {r0, r1, r2, r3, r4, r6, r8, r9, ip, lr}^
    87d0:	28205446 	stmdacs	r0!, {r1, r2, r6, sl, ip, lr}
    87d4:	35307830 	ldrcc	r7, [r0, #-2096]!	; 0xfffff7d0
    87d8:	5f5f0029 	svcpl	0x005f0029
    87dc:	64657270 	strbtvs	r7, [r5], #-624	; 0xfffffd90
    87e0:	5f746369 	svcpl	0x00746369
    87e4:	736c6166 	cmnvc	ip, #-2147483623	; 0x80000019
    87e8:	78652865 	stmdavc	r5!, {r0, r2, r5, r6, fp, sp}^
    87ec:	5f202970 	svcpl	0x00202970
    87f0:	6975625f 	ldmdbvs	r5!, {r0, r1, r2, r3, r4, r6, r9, sp, lr}^
    87f4:	6e69746c 	cdpvs	4, 6, cr7, cr9, cr12, {3}
    87f8:	7078655f 	rsbsvc	r6, r8, pc, asr r5
    87fc:	28746365 	ldmdacs	r4!, {r0, r2, r5, r6, r8, r9, sp, lr}^
    8800:	70786528 	rsbsvc	r6, r8, r8, lsr #10
    8804:	30202c29 	eorcc	r2, r0, r9, lsr #24
    8808:	575f0029 	ldrbpl	r0, [pc, -r9, lsr #32]
    880c:	52414843 	subpl	r4, r1, #4390912	; 0x430000
    8810:	445f545f 	ldrbmi	r5, [pc], #-1119	; 8818 <_Min_Stack_Size+0x8418>
    8814:	414c4345 	cmpmi	ip, r5, asr #6
    8818:	20444552 	subcs	r4, r4, r2, asr r5
    881c:	59535f00 	ldmdbpl	r3, {r8, r9, sl, fp, ip, lr}^
    8820:	45525f53 	ldrbmi	r5, [r2, #-3923]	; 0xfffff0ad
    8824:	5f544e45 	svcpl	0x00544e45
    8828:	00205f48 	eoreq	r5, r0, r8, asr #30
    882c:	5f574f52 	svcpl	0x00574f52
    8830:	204d554e 	subcs	r5, sp, lr, asr #10
    8834:	505f0034 	subspl	r0, pc, r4, lsr r0	; <UNPREDICTABLE>
    8838:	5849534f 	stmdapl	r9, {r0, r1, r2, r3, r6, r8, r9, ip, lr}^
    883c:	554f535f 	strbpl	r5, [pc, #-863]	; 84e5 <_Min_Stack_Size+0x80e5>
    8840:	00454352 	subeq	r4, r5, r2, asr r3
    8844:	4545525f 	strbmi	r5, [r5, #-607]	; 0xfffffda1
    8848:	435f544e 	cmpmi	pc, #1308622848	; 0x4e000000
    884c:	4b434548 	blmi	10d9d74 <_Min_Stack_Size+0x10d9974>
    8850:	53494d5f 	movtpl	r4, #40287	; 0x9d5f
    8854:	61762843 	cmnvs	r6, r3, asr #16
    8858:	5f202972 	svcpl	0x00202972
    885c:	4e454552 	mcrmi	5, 2, r4, cr5, cr2, {2}
    8860:	48435f54 	stmdami	r3, {r2, r4, r6, r8, r9, sl, fp, ip, lr}^
    8864:	284b4345 	stmdacs	fp, {r0, r2, r6, r8, r9, lr}^
    8868:	2c726176 	ldfcse	f6, [r2], #-472	; 0xfffffe28
    886c:	696d5f20 	stmdbvs	sp!, {r5, r8, r9, sl, fp, ip, lr}^
    8870:	202c6373 	eorcs	r6, ip, r3, ror r3
    8874:	75727473 	ldrbvc	r7, [r2, #-1139]!	; 0xfffffb8d
    8878:	5f207463 	svcpl	0x00207463
    887c:	6373696d 	cmnvs	r3, #1785856	; 0x1b4000
    8880:	6565725f 	strbvs	r7, [r5, #-607]!	; 0xfffffda1
    8884:	2a20746e 	bcs	825a44 <_Min_Stack_Size+0x825644>
    8888:	6973202c 	ldmdbvs	r3!, {r2, r3, r5, sp}^
    888c:	666f657a 			; <UNDEFINED> instruction: 0x666f657a
    8890:	28282a20 	stmdacs	r8!, {r5, r9, fp, sp}
    8894:	29726176 	ldmdbcs	r2!, {r1, r2, r4, r5, r6, r8, sp, lr}^
    8898:	6d5f3e2d 	ldclvs	14, cr3, [pc, #-180]	; 87ec <_Min_Stack_Size+0x83ec>
    889c:	29637369 	stmdbcs	r3!, {r0, r3, r5, r6, r8, r9, ip, sp, lr}^
    88a0:	525f202c 	subspl	r2, pc, #44	; 0x2c
    88a4:	544e4545 	strbpl	r4, [lr], #-1349	; 0xfffffabb
    88a8:	494e495f 	stmdbmi	lr, {r0, r1, r2, r3, r4, r6, r8, fp, lr}^
    88ac:	494d5f54 	stmdbmi	sp, {r2, r4, r6, r8, r9, sl, fp, ip, lr}^
    88b0:	76284353 			; <UNDEFINED> instruction: 0x76284353
    88b4:	29297261 	stmdbcs	r9!, {r0, r5, r6, r9, ip, sp, lr}
    88b8:	45525f00 	ldrbmi	r5, [r2, #-3840]	; 0xfffff100
    88bc:	5f544e45 	svcpl	0x00544e45
    88c0:	4f544357 	svcmi	0x00544357
    88c4:	535f424d 	cmppl	pc, #-805306364	; 0xd0000004
    88c8:	45544154 	ldrbmi	r4, [r4, #-340]	; 0xfffffeac
    88cc:	72747028 	rsbsvc	r7, r4, #40	; 0x28
    88d0:	28282029 	stmdacs	r8!, {r0, r3, r5, sp}
    88d4:	29727470 	ldmdbcs	r2!, {r4, r5, r6, sl, ip, sp, lr}^
    88d8:	6d5f3e2d 	ldclvs	14, cr3, [pc, #-180]	; 882c <_Min_Stack_Size+0x842c>
    88dc:	2d637369 	stclcs	3, cr7, [r3, #-420]!	; 0xfffffe5c
    88e0:	63775f3e 	cmnvs	r7, #62, 30	; 0xf8
    88e4:	626d6f74 	rsbvs	r6, sp, #116, 30	; 0x1d0
    88e8:	6174735f 	cmnvs	r4, pc, asr r3
    88ec:	00296574 	eoreq	r6, r9, r4, ror r5
    88f0:	65725f5f 	ldrbvs	r5, [r2, #-3935]!	; 0xfffff0a1
    88f4:	72697571 	rsbvc	r7, r9, #473956352	; 0x1c400000
    88f8:	755f7365 	ldrbvc	r7, [pc, #-869]	; 859b <_Min_Stack_Size+0x819b>
    88fc:	636f6c6e 	cmnvs	pc, #28160	; 0x6e00
    8900:	2864656b 	stmdacs	r4!, {r0, r1, r3, r5, r6, r8, sl, sp, lr}^
    8904:	292e2e2e 	stmdbcs	lr!, {r1, r2, r3, r5, r9, sl, fp, sp}
    8908:	6c5f5f20 	mrrcvs	15, 2, r5, pc, cr0	; <UNPREDICTABLE>
    890c:	5f6b636f 	svcpl	0x006b636f
    8910:	6f6e6e61 	svcvs	0x006e6e61
    8914:	65746174 	ldrbvs	r6, [r4, #-372]!	; 0xfffffe8c
    8918:	636f6c28 	cmnvs	pc, #40, 24	; 0x2800
    891c:	655f736b 	ldrbvs	r7, [pc, #-875]	; 85b9 <_Min_Stack_Size+0x81b9>
    8920:	756c6378 	strbvc	r6, [ip, #-888]!	; 0xfffffc88
    8924:	28646564 	stmdacs	r4!, {r2, r5, r6, r8, sl, sp, lr}^
    8928:	41565f5f 	cmpmi	r6, pc, asr pc
    892c:	4752415f 			; <UNDEFINED> instruction: 0x4752415f
    8930:	295f5f53 	ldmdbcs	pc, {r0, r1, r4, r6, r8, r9, sl, fp, ip, lr}^	; <UNPREDICTABLE>
    8934:	5f5f0029 	svcpl	0x005f0029
    8938:	746e695f 	strbtvc	r6, [lr], #-2399	; 0xfffff6a1
    893c:	61656c5f 	cmnvs	r5, pc, asr ip
    8940:	5f387473 	svcpl	0x00387473
    8944:	65645f74 	strbvs	r5, [r4, #-3956]!	; 0xfffff08c
    8948:	656e6966 	strbvs	r6, [lr, #-2406]!	; 0xfffff69a
    894c:	00312064 	eorseq	r2, r1, r4, rrx
    8950:	5f44434c 	svcpl	0x0044434c
    8954:	41544144 	cmpmi	r4, r4, asr #2
    8958:	4942385f 	stmdbmi	r2, {r0, r1, r2, r3, r4, r6, fp, ip, sp}^
    895c:	49505f54 	ldmdbmi	r0, {r2, r4, r6, r8, r9, sl, fp, ip, lr}^
    8960:	7b20534e 	blvc	81d6a0 <_Min_Stack_Size+0x81d2a0>
    8964:	4f495047 	svcmi	0x00495047
    8968:	4e49505f 	mcrmi	0, 2, r5, cr9, cr15, {2}
    896c:	472c375f 			; <UNDEFINED> instruction: 0x472c375f
    8970:	5f4f4950 	svcpl	0x004f4950
    8974:	5f4e4950 	svcpl	0x004e4950
    8978:	50472c36 	subpl	r2, r7, r6, lsr ip
    897c:	505f4f49 	subspl	r4, pc, r9, asr #30
    8980:	355f4e49 	ldrbcc	r4, [pc, #-3657]	; 7b3f <_Min_Stack_Size+0x773f>
    8984:	4950472c 	ldmdbmi	r0, {r2, r3, r5, r8, r9, sl, lr}^
    8988:	49505f4f 	ldmdbmi	r0, {r0, r1, r2, r3, r6, r8, r9, sl, fp, ip, lr}^
    898c:	2c345f4e 	ldccs	15, cr5, [r4], #-312	; 0xfffffec8
    8990:	4f495047 	svcmi	0x00495047
    8994:	4e49505f 	mcrmi	0, 2, r5, cr9, cr15, {2}
    8998:	472c335f 			; <UNDEFINED> instruction: 0x472c335f
    899c:	5f4f4950 	svcpl	0x004f4950
    89a0:	5f4e4950 	svcpl	0x004e4950
    89a4:	50472c32 	subpl	r2, r7, r2, lsr ip
    89a8:	505f4f49 	subspl	r4, pc, r9, asr #30
    89ac:	315f4e49 	cmpcc	pc, r9, asr #28
    89b0:	4950472c 	ldmdbmi	r0, {r2, r3, r5, r8, r9, sl, lr}^
    89b4:	49505f4f 	ldmdbmi	r0, {r0, r1, r2, r3, r6, r8, r9, sl, fp, ip, lr}^
    89b8:	7d305f4e 	ldcvc	15, cr5, [r0, #-312]!	; 0xfffffec8
    89bc:	755f5f00 	ldrbvc	r5, [pc, #-3840]	; 7ac4 <_Min_Stack_Size+0x76c4>
    89c0:	636f6c6e 	cmnvs	pc, #28160	; 0x6e00
    89c4:	2e28736b 	cdpcs	3, 2, cr7, cr8, cr11, {3}
    89c8:	20292e2e 	eorcs	r2, r9, lr, lsr #28
    89cc:	6f6c5f5f 	svcvs	0x006c5f5f
    89d0:	615f6b63 	cmpvs	pc, r3, ror #22
    89d4:	746f6e6e 	strbtvc	r6, [pc], #-3694	; 89dc <_Min_Stack_Size+0x85dc>
    89d8:	28657461 	stmdacs	r5!, {r0, r5, r6, sl, ip, sp, lr}^
    89dc:	6f6c6e75 	svcvs	0x006c6e75
    89e0:	665f6b63 	ldrbvs	r6, [pc], -r3, ror #22
    89e4:	74636e75 	strbtvc	r6, [r3], #-3701	; 0xfffff18b
    89e8:	286e6f69 	stmdacs	lr!, {r0, r3, r5, r6, r8, r9, sl, fp, sp, lr}^
    89ec:	41565f5f 	cmpmi	r6, pc, asr pc
    89f0:	4752415f 			; <UNDEFINED> instruction: 0x4752415f
    89f4:	295f5f53 	ldmdbcs	pc, {r0, r1, r4, r6, r8, r9, sl, fp, ip, lr}^	; <UNPREDICTABLE>
    89f8:	5f5f0029 	svcpl	0x005f0029
    89fc:	4f505845 	svcmi	0x00505845
    8a00:	00205452 	eoreq	r5, r0, r2, asr r4
    8a04:	424f5f5f 	submi	r5, pc, #380	; 0x17c
    8a08:	454c4f53 	strbmi	r4, [ip, #-3923]	; 0xfffff0ad
    8a0c:	4d5f4554 	cfldr64mi	mvdx4, [pc, #-336]	; 88c4 <_Min_Stack_Size+0x84c4>
    8a10:	5f485441 	svcpl	0x00485441
    8a14:	41464544 	cmpmi	r6, r4, asr #10
    8a18:	20544c55 	subscs	r4, r4, r5, asr ip
    8a1c:	5f5f0031 	svcpl	0x005f0031
    8a20:	53434353 	movtpl	r4, #13139	; 0x3353
    8a24:	73284449 			; <UNDEFINED> instruction: 0x73284449
    8a28:	74732029 	ldrbtvc	r2, [r3], #-41	; 0xffffffd7
    8a2c:	74637572 	strbtvc	r7, [r3], #-1394	; 0xfffffa8e
    8a30:	685f5f20 	ldmdavs	pc, {r5, r8, r9, sl, fp, ip, lr}^	; <UNPREDICTABLE>
    8a34:	006b6361 	rsbeq	r6, fp, r1, ror #6
    8a38:	4145525f 	cmpmi	r5, pc, asr r2
    8a3c:	52575f44 	subspl	r5, r7, #68, 30	; 0x110
    8a40:	5f455449 	svcpl	0x00455449
    8a44:	53465542 	movtpl	r5, #25922	; 0x6542
    8a48:	5f455a49 	svcpl	0x00455a49
    8a4c:	45505954 	ldrbmi	r5, [r0, #-2388]	; 0xfffff6ac
    8a50:	746e6920 	strbtvc	r6, [lr], #-2336	; 0xfffff6e0
    8a54:	4c475f00 	mcrrmi	15, 0, r5, r7, cr0
    8a58:	4c41424f 	sfmmi	f4, 2, [r1], {79}	; 0x4f
    8a5c:	4545525f 	strbmi	r5, [r5, #-607]	; 0xfffffda1
    8a60:	2820544e 	stmdacs	r0!, {r1, r2, r3, r6, sl, ip, lr}
    8a64:	6d695f26 	stclvs	15, cr5, [r9, #-152]!	; 0xffffff68
    8a68:	65727570 	ldrbvs	r7, [r2, #-1392]!	; 0xfffffa90
    8a6c:	7461645f 	strbtvc	r6, [r1], #-1119	; 0xfffffba1
    8a70:	5f002961 	svcpl	0x00002961
    8a74:	504d495f 	subpl	r4, sp, pc, asr r9
    8a78:	2054524f 	subscs	r5, r4, pc, asr #4
    8a7c:	41525f00 	cmpmi	r2, r0, lsl #30
    8a80:	3834444e 	ldmdacc	r4!, {r1, r2, r3, r6, sl, lr}
    8a84:	4545535f 	strbmi	r5, [r5, #-863]	; 0xfffffca1
    8a88:	20325f44 	eorscs	r5, r2, r4, asr #30
    8a8c:	31783028 	cmncc	r8, r8, lsr #32
    8a90:	29343332 	ldmdbcs	r4!, {r1, r4, r5, r8, r9, ip, sp}
    8a94:	54505f00 	ldrbpl	r5, [r0], #-3840	; 0xfffff100
    8a98:	46494452 			; <UNDEFINED> instruction: 0x46494452
    8a9c:	5f545f46 	svcpl	0x00545f46
    8aa0:	4c434544 	cfstr64mi	mvdx4, [r3], {68}	; 0x44
    8aa4:	44455241 	strbmi	r5, [r5], #-577	; 0xfffffdbf
    8aa8:	5f5f0020 	svcpl	0x005f0020
    8aac:	616c6f76 	smcvs	50934	; 0xc6f6
    8ab0:	656c6974 	strbvs	r6, [ip, #-2420]!	; 0xfffff68c
    8ab4:	6c6f7620 	stclvs	6, cr7, [pc], #-128	; 8a3c <_Min_Stack_Size+0x863c>
    8ab8:	6c697461 	cfstrdvs	mvd7, [r9], #-388	; 0xfffffe7c
    8abc:	5f5f0065 	svcpl	0x005f0065
    8ac0:	615f7369 	cmpvs	pc, r9, ror #6
    8ac4:	6e67696c 	vnmulvs.f16	s13, s14, s25	; <UNPREDICTABLE>
    8ac8:	78286465 	stmdavc	r8!, {r0, r2, r5, r6, sl, sp, lr}
    8acc:	2029792c 	eorcs	r7, r9, ip, lsr #18
    8ad0:	75625f5f 	strbvc	r5, [r2, #-3935]!	; 0xfffff0a1
    8ad4:	69746c69 	ldmdbvs	r4!, {r0, r3, r5, r6, sl, fp, sp, lr}^
    8ad8:	73695f6e 	cmnvc	r9, #440	; 0x1b8
    8adc:	696c615f 	stmdbvs	ip!, {r0, r1, r2, r3, r4, r6, r8, sp, lr}^
    8ae0:	64656e67 	strbtvs	r6, [r5], #-3687	; 0xfffff199
    8ae4:	202c7828 	eorcs	r7, ip, r8, lsr #16
    8ae8:	5f002979 	svcpl	0x00002979
    8aec:	4545495f 	strbmi	r4, [r5, #-2399]	; 0xfffff6a1
    8af0:	494c5f45 	stmdbmi	ip, {r0, r2, r6, r8, r9, sl, fp, ip, lr}^
    8af4:	454c5454 	strbmi	r5, [ip, #-1108]	; 0xfffffbac
    8af8:	444e455f 	strbmi	r4, [lr], #-1375	; 0xfffffaa1
    8afc:	204e4149 	subcs	r4, lr, r9, asr #2
    8b00:	6c5f5f00 	mrrcvs	15, 0, r5, pc, cr0	; <UNPREDICTABLE>
    8b04:	5f6b636f 	svcpl	0x006b636f
    8b08:	736f6c63 	cmnvc	pc, #25344	; 0x6300
    8b0c:	65725f65 	ldrbvs	r5, [r2, #-3941]!	; 0xfffff09b
    8b10:	73727563 	cmnvc	r2, #415236096	; 0x18c00000
    8b14:	28657669 	stmdacs	r5!, {r0, r3, r5, r6, r9, sl, ip, sp, lr}^
    8b18:	6b636f6c 	blvs	18e48d0 <_Min_Stack_Size+0x18e44d0>
    8b1c:	5f5f2029 	svcpl	0x005f2029
    8b20:	61746572 	cmnvs	r4, r2, ror r5
    8b24:	74656772 	strbtvc	r6, [r5], #-1906	; 0xfffff88e
    8b28:	636f6c5f 	cmnvs	pc, #24320	; 0x5f00
    8b2c:	6c635f6b 	stclvs	15, cr5, [r3], #-428	; 0xfffffe54
    8b30:	5f65736f 	svcpl	0x0065736f
    8b34:	75636572 	strbvc	r6, [r3, #-1394]!	; 0xfffffa8e
    8b38:	76697372 			; <UNDEFINED> instruction: 0x76697372
    8b3c:	6f6c2865 	svcvs	0x006c2865
    8b40:	00296b63 	eoreq	r6, r9, r3, ror #22
    8b44:	4545525f 	strbmi	r5, [r5, #-607]	; 0xfffffda1
    8b48:	455f544e 	ldrbmi	r5, [pc, #-1102]	; 8702 <_Min_Stack_Size+0x8302>
    8b4c:	4752454d 	ldrbmi	r4, [r2, -sp, asr #10]
    8b50:	59434e45 	stmdbpl	r3, {r0, r2, r6, r9, sl, fp, lr}^
    8b54:	74705f28 	ldrbtvc	r5, [r0], #-3880	; 0xfffff0d8
    8b58:	28202972 	stmdacs	r0!, {r1, r4, r5, r6, r8, fp, sp}
    8b5c:	74705f28 	ldrbtvc	r5, [r0], #-3880	; 0xfffff0d8
    8b60:	3e2d2972 			; <UNDEFINED> instruction: 0x3e2d2972
    8b64:	656d655f 	strbvs	r6, [sp, #-1375]!	; 0xfffffaa1
    8b68:	6e656772 	mcrvs	7, 3, r6, cr5, cr2, {3}
    8b6c:	00297963 	eoreq	r7, r9, r3, ror #18
    8b70:	5f44504b 	svcpl	0x0044504b
    8b74:	31574f52 	cmpcc	r7, r2, asr pc
    8b78:	4e49505f 	mcrmi	0, 2, r5, cr9, cr15, {2}
    8b7c:	49504720 	ldmdbmi	r0, {r5, r8, r9, sl, lr}^
    8b80:	49505f4f 	ldmdbmi	r0, {r0, r1, r2, r3, r6, r8, r9, sl, fp, ip, lr}^
    8b84:	00315f4e 	eorseq	r5, r1, lr, asr #30
    8b88:	616d5f5f 	cmnvs	sp, pc, asr pc
    8b8c:	636f6c6c 	cmnvs	pc, #108, 24	; 0x6c00
    8b90:	6b696c5f 	blvs	1a63d14 <_Min_Stack_Size+0x1a63914>
    8b94:	5f5f2065 	svcpl	0x005f2065
    8b98:	72747461 	rsbsvc	r7, r4, #1627389952	; 0x61000000
    8b9c:	74756269 	ldrbtvc	r6, [r5], #-617	; 0xfffffd97
    8ba0:	285f5f65 	ldmdacs	pc, {r0, r2, r5, r6, r8, r9, sl, fp, ip, lr}^	; <UNPREDICTABLE>
    8ba4:	6d5f5f28 	ldclvs	15, cr5, [pc, #-160]	; 8b0c <_Min_Stack_Size+0x870c>
    8ba8:	6f6c6c61 	svcvs	0x006c6c61
    8bac:	295f5f63 	ldmdbcs	pc, {r0, r1, r5, r6, r8, r9, sl, fp, ip, lr}^	; <UNPREDICTABLE>
    8bb0:	434c0029 	movtmi	r0, #49193	; 0xc029
    8bb4:	41445f44 	cmpmi	r4, r4, asr #30
    8bb8:	345f4154 	ldrbcc	r4, [pc], #-340	; 8bc0 <_Min_Stack_Size+0x87c0>
    8bbc:	5f544942 	svcpl	0x00544942
    8bc0:	534e4950 	movtpl	r4, #59728	; 0xe950
    8bc4:	50477b20 	subpl	r7, r7, r0, lsr #22
    8bc8:	505f4f49 	subspl	r4, pc, r9, asr #30
    8bcc:	375f4e49 	ldrbcc	r4, [pc, -r9, asr #28]
    8bd0:	4950472c 	ldmdbmi	r0, {r2, r3, r5, r8, r9, sl, lr}^
    8bd4:	49505f4f 	ldmdbmi	r0, {r0, r1, r2, r3, r6, r8, r9, sl, fp, ip, lr}^
    8bd8:	2c365f4e 	ldccs	15, cr5, [r6], #-312	; 0xfffffec8
    8bdc:	4f495047 	svcmi	0x00495047
    8be0:	4e49505f 	mcrmi	0, 2, r5, cr9, cr15, {2}
    8be4:	472c355f 			; <UNDEFINED> instruction: 0x472c355f
    8be8:	5f4f4950 	svcpl	0x004f4950
    8bec:	5f4e4950 	svcpl	0x004e4950
    8bf0:	5f007d34 	svcpl	0x00007d34
    8bf4:	4e494f50 	mcrmi	15, 2, r4, cr9, cr0, {2}
    8bf8:	5f524554 	svcpl	0x00524554
    8bfc:	20544e49 	subscs	r4, r4, r9, asr #28
    8c00:	676e6f6c 	strbvs	r6, [lr, -ip, ror #30]!
    8c04:	53465f00 	movtpl	r5, #28416	; 0x6f00
    8c08:	4f494454 	svcmi	0x00494454
    8c0c:	5f5f0020 	svcpl	0x005f0020
    8c10:	746e695f 	strbtvc	r6, [lr], #-2399	; 0xfffff6a1
    8c14:	7a69735f 	bvc	1a65998 <_Min_Stack_Size+0x1a65598>
    8c18:	5f745f65 	svcpl	0x00745f65
    8c1c:	5f002068 	svcpl	0x00002068
    8c20:	4e41525f 	mcrmi	2, 2, r5, cr1, cr15, {2}
    8c24:	414d5f44 	cmpmi	sp, r4, asr #30
    8c28:	78302058 	ldmdavc	r0!, {r3, r4, r6, sp}
    8c2c:	66666637 			; <UNDEFINED> instruction: 0x66666637
    8c30:	66666666 	strbtvs	r6, [r6], -r6, ror #12
    8c34:	475f5f00 	ldrbmi	r5, [pc, -r0, lsl #30]
    8c38:	5f43554e 	svcpl	0x0043554e
    8c3c:	4c5f4156 	ldfmie	f4, [pc], {86}	; 0x56
    8c40:	20545349 	subscs	r5, r4, r9, asr #6
    8c44:	495f5f00 	ldmdbmi	pc, {r8, r9, sl, fp, ip, lr}^	; <UNPREDICTABLE>
    8c48:	435f4f53 	cmpmi	pc, #332	; 0x14c
    8c4c:	5349565f 	movtpl	r5, #38495	; 0x965f
    8c50:	454c4249 	strbmi	r4, [ip, #-585]	; 0xfffffdb7
    8c54:	31303220 	teqcc	r0, r0, lsr #4
    8c58:	475f0031 	smmlarmi	pc, r1, r0, r0	; <UNPREDICTABLE>
    8c5c:	505f4343 	subspl	r4, pc, r3, asr #6
    8c60:	49445254 	stmdbmi	r4, {r2, r4, r6, r9, ip, lr}^
    8c64:	545f4646 	ldrbpl	r4, [pc], #-1606	; 8c6c <_Min_Stack_Size+0x886c>
    8c68:	5f5f0020 	svcpl	0x005f0020
    8c6c:	44534246 	ldrbmi	r4, [r3], #-582	; 0xfffffdba
    8c70:	73284449 			; <UNDEFINED> instruction: 0x73284449
    8c74:	74732029 	ldrbtvc	r2, [r3], #-41	; 0xffffffd7
    8c78:	74637572 	strbtvc	r7, [r3], #-1394	; 0xfffffa8e
    8c7c:	685f5f20 	ldmdavs	pc, {r5, r8, r9, sl, fp, ip, lr}^	; <UNPREDICTABLE>
    8c80:	006b6361 	rsbeq	r6, fp, r1, ror #6
    8c84:	54535f5f 	ldrbpl	r5, [r3], #-3935	; 0xfffff0a1
    8c88:	474e4952 	smlsldmi	r4, lr, r2, r9
    8c8c:	20297828 	eorcs	r7, r9, r8, lsr #16
    8c90:	5f007823 	svcpl	0x00007823
    8c94:	554e475f 	strbpl	r4, [lr, #-1887]	; 0xfffff8a1
    8c98:	4b494c43 	blmi	125bdac <_Min_Stack_Size+0x125b9ac>
    8c9c:	55425f45 	strbpl	r5, [r2, #-3909]	; 0xfffff0bb
    8ca0:	49544c49 	ldmdbmi	r4, {r0, r3, r6, sl, fp, lr}^
    8ca4:	454e5f4e 	strbmi	r5, [lr, #-3918]	; 0xfffff0b2
    8ca8:	415f5458 	cmpmi	pc, r8, asr r4	; <UNPREDICTABLE>
    8cac:	31204752 			; <UNDEFINED> instruction: 0x31204752
    8cb0:	725f5f00 	subsvc	r5, pc, #0, 30
    8cb4:	746e6565 	strbtvc	r6, [lr], #-1381	; 0xfffffa9b
    8cb8:	7373615f 	cmnvc	r3, #-1073741801	; 0xc0000017
    8cbc:	28747265 	ldmdacs	r4!, {r0, r2, r5, r6, r9, ip, sp, lr}^
    8cc0:	28202978 	stmdacs	r0!, {r3, r4, r5, r6, r8, fp, sp}
    8cc4:	20297828 	eorcs	r7, r9, r8, lsr #16
    8cc8:	7628203f 			; <UNDEFINED> instruction: 0x7628203f
    8ccc:	2964696f 	stmdbcs	r4!, {r0, r1, r2, r3, r5, r6, r8, fp, sp, lr}^
    8cd0:	203a2030 	eorscs	r2, sl, r0, lsr r0
    8cd4:	73615f5f 	cmnvc	r1, #380	; 0x17c
    8cd8:	74726573 	ldrbtvc	r6, [r2], #-1395	; 0xfffffa8d
    8cdc:	6e75665f 	mrcvs	6, 3, r6, cr5, cr15, {2}
    8ce0:	5f5f2863 	svcpl	0x005f2863
    8ce4:	454c4946 	strbmi	r4, [ip, #-2374]	; 0xfffff6ba
    8ce8:	202c5f5f 	eorcs	r5, ip, pc, asr pc
    8cec:	494c5f5f 	stmdbmi	ip, {r0, r1, r2, r3, r4, r6, r8, r9, sl, fp, ip, lr}^
    8cf0:	5f5f454e 	svcpl	0x005f454e
    8cf4:	6328202c 			; <UNDEFINED> instruction: 0x6328202c
    8cf8:	20726168 	rsbscs	r6, r2, r8, ror #2
    8cfc:	2c30292a 			; <UNDEFINED> instruction: 0x2c30292a
    8d00:	45522220 	ldrbmi	r2, [r2, #-544]	; 0xfffffde0
    8d04:	20544e45 	subscs	r4, r4, r5, asr #28
    8d08:	6c6c616d 	stfvse	f6, [ip], #-436	; 0xfffffe4c
    8d0c:	7320636f 			; <UNDEFINED> instruction: 0x7320636f
    8d10:	65636375 	strbvs	r6, [r3, #-885]!	; 0xfffffc8b
    8d14:	64656465 	strbtvs	r6, [r5], #-1125	; 0xfffffb9b
    8d18:	00292922 	eoreq	r2, r9, r2, lsr #18
    8d1c:	4c4f495f 	mcrrmi	9, 5, r4, pc, cr15	; <UNPREDICTABLE>
    8d20:	31204642 			; <UNDEFINED> instruction: 0x31204642
    8d24:	41525f00 	cmpmi	r2, r0, lsl #30
    8d28:	3834444e 	ldmdacc	r4!, {r1, r2, r3, r6, sl, lr}
    8d2c:	4c554d5f 	mrrcmi	13, 5, r4, r5, cr15
    8d30:	20325f54 	eorscs	r5, r2, r4, asr pc
    8d34:	30783028 	rsbscc	r3, r8, r8, lsr #32
    8d38:	29353030 	ldmdbcs	r5!, {r4, r5, ip, sp}
    8d3c:	41485f00 	cmpmi	r8, r0, lsl #30
    8d40:	435f4556 	cmpmi	pc, #360710144	; 0x15800000
    8d44:	4e495f43 	cdpmi	15, 4, cr5, cr9, cr3, {2}
    8d48:	49424948 	stmdbmi	r2, {r3, r6, r8, fp, lr}^
    8d4c:	4f4c5f54 	svcmi	0x004c5f54
    8d50:	545f504f 	ldrbpl	r5, [pc], #-79	; 8d58 <_Min_Stack_Size+0x8958>
    8d54:	494c5f4f 	stmdbmi	ip, {r0, r1, r2, r3, r6, r8, r9, sl, fp, ip, lr}^
    8d58:	4c414342 	mcrrmi	3, 4, r4, r1, cr2
    8d5c:	0031204c 	eorseq	r2, r1, ip, asr #32
    8d60:	72615f5f 	rsbvc	r5, r1, #380	; 0x17c
    8d64:	79745f67 	ldmdbvc	r4!, {r0, r1, r2, r5, r6, r8, r9, sl, fp, ip, lr}^
    8d68:	745f6570 	ldrbvc	r6, [pc], #-1392	; 8d70 <_Min_Stack_Size+0x8970>
    8d6c:	61286761 			; <UNDEFINED> instruction: 0x61286761
    8d70:	6b5f6772 	blvs	17e2b40 <_Min_Stack_Size+0x17e2740>
    8d74:	2c646e69 	stclcs	14, cr6, [r4], #-420	; 0xfffffe5c
    8d78:	5f677261 	svcpl	0x00677261
    8d7c:	2c786469 	cfldrdcs	mvd6, [r8], #-420	; 0xfffffe5c
    8d80:	65707974 	ldrbvs	r7, [r0, #-2420]!	; 0xfffff68c
    8d84:	6761745f 			; <UNDEFINED> instruction: 0x6761745f
    8d88:	7864695f 	stmdavc	r4!, {r0, r1, r2, r3, r4, r6, r8, fp, sp, lr}^
    8d8c:	5f002029 	svcpl	0x00002029
    8d90:	4e454552 	mcrmi	5, 2, r4, cr5, cr2, {2}
    8d94:	4e495f54 	mcrmi	15, 2, r5, cr9, cr4, {2}
    8d98:	505f5449 	subspl	r5, pc, r9, asr #8
    8d9c:	76285254 			; <UNDEFINED> instruction: 0x76285254
    8da0:	20297261 	eorcs	r7, r9, r1, ror #4
    8da4:	656d207b 	strbvs	r2, [sp, #-123]!	; 0xffffff85
    8da8:	7465736d 	strbtvc	r7, [r5], #-877	; 0xfffffc93
    8dac:	61762828 	cmnvs	r6, r8, lsr #16
    8db0:	202c2972 	eorcs	r2, ip, r2, ror r9
    8db4:	73202c30 			; <UNDEFINED> instruction: 0x73202c30
    8db8:	6f657a69 	svcvs	0x00657a69
    8dbc:	282a2866 	stmdacs	sl!, {r1, r2, r5, r6, fp, sp}
    8dc0:	29726176 	ldmdbcs	r2!, {r1, r2, r4, r5, r6, r8, sp, lr}^
    8dc4:	203b2929 	eorscs	r2, fp, r9, lsr #18
    8dc8:	4545525f 	strbmi	r5, [r5, #-607]	; 0xfffffda1
    8dcc:	495f544e 	ldmdbmi	pc, {r1, r2, r3, r6, sl, ip, lr}^	; <UNPREDICTABLE>
    8dd0:	5f54494e 	svcpl	0x0054494e
    8dd4:	5f525450 	svcpl	0x00525450
    8dd8:	4f52455a 	svcmi	0x0052455a
    8ddc:	76284445 	strtvc	r4, [r8], -r5, asr #8
    8de0:	3b297261 	blcc	a6576c <_Min_Stack_Size+0xa6536c>
    8de4:	5f007d20 	svcpl	0x00007d20
    8de8:	504f435f 	subpl	r4, pc, pc, asr r3	; <UNPREDICTABLE>
    8dec:	47495259 	smlsldmi	r5, r9, r9, r2
    8df0:	73285448 			; <UNDEFINED> instruction: 0x73285448
    8df4:	74732029 	ldrbtvc	r2, [r3], #-41	; 0xffffffd7
    8df8:	74637572 	strbtvc	r7, [r3], #-1394	; 0xfffffa8e
    8dfc:	685f5f20 	ldmdavs	pc, {r5, r8, r9, sl, fp, ip, lr}^	; <UNPREDICTABLE>
    8e00:	006b6361 	rsbeq	r6, fp, r1, ror #6
    8e04:	4454535f 	ldrbmi	r5, [r4], #-863	; 0xfffffca1
    8e08:	5f464544 	svcpl	0x00464544
    8e0c:	00205f48 	eoreq	r5, r0, r8, asr #30
    8e10:	49535f5f 	ldmdbmi	r3, {r0, r1, r2, r3, r4, r6, r8, r9, sl, fp, ip, lr}^
    8e14:	545f455a 	ldrbpl	r4, [pc], #-1370	; 8e1c <_Min_Stack_Size+0x8a1c>
    8e18:	5f5f0020 	svcpl	0x005f0020
    8e1c:	6e697270 	mcrvs	2, 3, r7, cr9, cr0, {3}
    8e20:	6c306674 	ldcvs	6, cr6, [r0], #-464	; 0xfffffe30
    8e24:	28656b69 	stmdacs	r5!, {r0, r3, r5, r6, r8, r9, fp, sp, lr}^
    8e28:	61746d66 	cmnvs	r4, r6, ror #26
    8e2c:	662c6772 			; <UNDEFINED> instruction: 0x662c6772
    8e30:	74737269 	ldrbtvc	r7, [r3], #-617	; 0xfffffd97
    8e34:	61726176 	cmnvs	r2, r6, ror r1
    8e38:	20296772 	eorcs	r6, r9, r2, ror r7
    8e3c:	45525f00 	ldrbmi	r5, [r2, #-3840]	; 0xfffff100
    8e40:	5f544e45 	svcpl	0x00544e45
    8e44:	54494e49 	strbpl	r4, [r9], #-3657	; 0xfffff1b7
    8e48:	72617628 	rsbvc	r7, r1, #40, 12	; 0x2800000
    8e4c:	207b2029 	rsbscs	r2, fp, r9, lsr #32
    8e50:	26202c30 			; <UNDEFINED> instruction: 0x26202c30
    8e54:	66735f5f 	uhsaxvs	r5, r3, pc	; <UNPREDICTABLE>
    8e58:	2c5d305b 	mrrccs	0, 5, r3, sp, cr11
    8e5c:	5f5f2620 	svcpl	0x005f2620
    8e60:	315b6673 	cmpcc	fp, r3, ror r6
    8e64:	26202c5d 			; <UNDEFINED> instruction: 0x26202c5d
    8e68:	66735f5f 	uhsaxvs	r5, r3, pc	; <UNPREDICTABLE>
    8e6c:	2c5d325b 	lfmcs	f3, 2, [sp], {91}	; 0x5b
    8e70:	202c3020 	eorcs	r3, ip, r0, lsr #32
    8e74:	4c554e5f 	mrrcmi	14, 5, r4, r5, cr15
    8e78:	5f202c4c 	svcpl	0x00202c4c
    8e7c:	4e454552 	mcrmi	5, 2, r4, cr5, cr2, {2}
    8e80:	4e495f54 	mcrmi	15, 2, r5, cr9, cr4, {2}
    8e84:	525f5449 	subspl	r5, pc, #1224736768	; 0x49000000
    8e88:	52455345 	subpl	r5, r5, #335544321	; 0x14000001
    8e8c:	5f444556 	svcpl	0x00444556
    8e90:	525f2030 	subspl	r2, pc, #48	; 0x30
    8e94:	544e4545 	strbpl	r4, [lr], #-1349	; 0xfffffabb
    8e98:	494e495f 	stmdbmi	lr, {r0, r1, r2, r3, r4, r6, r8, fp, lr}^
    8e9c:	45525f54 	ldrbmi	r5, [r2, #-3924]	; 0xfffff0ac
    8ea0:	56524553 			; <UNDEFINED> instruction: 0x56524553
    8ea4:	315f4445 	cmpcc	pc, r5, asr #8
    8ea8:	554e5f20 	strbpl	r5, [lr, #-3872]	; 0xfffff0e0
    8eac:	202c4c4c 	eorcs	r4, ip, ip, asr #24
    8eb0:	4c554e5f 	mrrcmi	14, 5, r4, r5, cr15
    8eb4:	5f202c4c 	svcpl	0x00202c4c
    8eb8:	4c4c554e 	cfstr64mi	mvdx5, [ip], {78}	; 0x4e
    8ebc:	2c30202c 	ldccs	0, cr2, [r0], #-176	; 0xffffff50
    8ec0:	202c3020 	eorcs	r3, ip, r0, lsr #32
    8ec4:	4c554e5f 	mrrcmi	14, 5, r4, r5, cr15
    8ec8:	5f202c4c 	svcpl	0x00202c4c
    8ecc:	4c4c554e 	cfstr64mi	mvdx5, [ip], {78}	; 0x4e
    8ed0:	4e5f202c 	cdpmi	0, 5, cr2, cr15, cr12, {1}
    8ed4:	2c4c4c55 	mcrrcs	12, 5, r4, ip, cr5
    8ed8:	554e5f20 	strbpl	r5, [lr, #-3872]	; 0xfffff0e0
    8edc:	202c4c4c 	eorcs	r4, ip, ip, asr #24
    8ee0:	4c554e5f 	mrrcmi	14, 5, r4, r5, cr15
    8ee4:	5f202c4c 	svcpl	0x00202c4c
    8ee8:	4e454552 	mcrmi	5, 2, r4, cr5, cr2, {2}
    8eec:	4e495f54 	mcrmi	15, 2, r5, cr9, cr4, {2}
    8ef0:	525f5449 	subspl	r5, pc, #1224736768	; 0x49000000
    8ef4:	52455345 	subpl	r5, r5, #335544321	; 0x14000001
    8ef8:	5f444556 	svcpl	0x00444556
    8efc:	20375f36 	eorscs	r5, r7, r6, lsr pc
    8f00:	4545525f 	strbmi	r5, [r5, #-607]	; 0xfffffda1
    8f04:	495f544e 	ldmdbmi	pc, {r1, r2, r3, r6, sl, ip, lr}^	; <UNPREDICTABLE>
    8f08:	5f54494e 	svcpl	0x0054494e
    8f0c:	45534552 	ldrbmi	r4, [r3, #-1362]	; 0xfffffaae
    8f10:	44455652 	strbmi	r5, [r5], #-1618	; 0xfffff9ae
    8f14:	5f20385f 	svcpl	0x0020385f
    8f18:	4c4c554e 	cfstr64mi	mvdx5, [ip], {78}	; 0x4e
    8f1c:	4e5f202c 	cdpmi	0, 5, cr2, cr15, cr12, {1}
    8f20:	2c4c4c55 	mcrrcs	12, 5, r4, ip, cr5
    8f24:	554e5f20 	strbpl	r5, [lr, #-3872]	; 0xfffff0e0
    8f28:	7d204c4c 	stcvc	12, cr4, [r0, #-304]!	; 0xfffffed0
    8f2c:	645f5f00 	ldrbvs	r5, [pc], #-3840	; 8f34 <_Min_Stack_Size+0x8b34>
    8f30:	32646165 	rsbcc	r6, r4, #1073741849	; 0x40000019
    8f34:	615f5f20 	cmpvs	pc, r0, lsr #30
    8f38:	69727474 	ldmdbvs	r2!, {r2, r4, r5, r6, sl, ip, sp, lr}^
    8f3c:	65747562 	ldrbvs	r7, [r4, #-1378]!	; 0xfffffa9e
    8f40:	28285f5f 	stmdacs	r8!, {r0, r1, r2, r3, r4, r6, r8, r9, sl, fp, ip, lr}
    8f44:	6f6e5f5f 	svcvs	0x006e5f5f
    8f48:	75746572 	ldrbvc	r6, [r4, #-1394]!	; 0xfffffa8e
    8f4c:	5f5f6e72 	svcpl	0x005f6e72
    8f50:	5f002929 	svcpl	0x00002929
    8f54:	4e454552 	mcrmi	5, 2, r4, cr5, cr2, {2}
    8f58:	504d5f54 	subpl	r5, sp, r4, asr pc
    8f5c:	5345525f 	movtpl	r5, #21087	; 0x525f
    8f60:	5f544c55 	svcpl	0x00544c55
    8f64:	7470284b 	ldrbtvc	r2, [r0], #-2123	; 0xfffff7b5
    8f68:	28202972 	stmdacs	r0!, {r1, r4, r5, r6, r8, fp, sp}
    8f6c:	72747028 	rsbsvc	r7, r4, #40	; 0x28
    8f70:	5f3e2d29 	svcpl	0x003e2d29
    8f74:	3e2d706d 	cdpcc	0, 2, cr7, cr13, cr13, {3}
    8f78:	7365725f 	cmnvc	r5, #-268435451	; 0xf0000005
    8f7c:	5f746c75 	svcpl	0x00746c75
    8f80:	4c00296b 			; <UNDEFINED> instruction: 0x4c00296b
    8f84:	455f4443 	ldrbmi	r4, [pc, #-1091]	; 8b49 <_Min_Stack_Size+0x8749>
    8f88:	5952544e 	ldmdbpl	r2, {r1, r2, r3, r6, sl, ip, lr}^
    8f8c:	434e495f 	movtmi	r4, #59743	; 0xe95f
    8f90:	4948535f 	stmdbmi	r8, {r0, r1, r2, r3, r4, r6, r8, r9, ip, lr}^
    8f94:	28205446 	stmdacs	r0!, {r1, r2, r6, sl, ip, lr}
    8f98:	37307830 			; <UNDEFINED> instruction: 0x37307830
    8f9c:	5f5f0029 	svcpl	0x005f0029
    8fa0:	535f4343 	cmppl	pc, #201326593	; 0xc000001
    8fa4:	4f505055 	svcmi	0x00505055
    8fa8:	5f535452 	svcpl	0x00535452
    8fac:	494c4e49 	stmdbmi	ip, {r0, r3, r6, r9, sl, fp, lr}^
    8fb0:	3120454e 			; <UNDEFINED> instruction: 0x3120454e
    8fb4:	4d5f5f00 	ldclmi	15, cr5, [pc, #-0]	; 8fbc <_Min_Stack_Size+0x8bbc>
    8fb8:	5f435349 	svcpl	0x00435349
    8fbc:	49534956 	ldmdbmi	r3, {r1, r2, r4, r6, r8, fp, lr}^
    8fc0:	20454c42 	subcs	r4, r5, r2, asr #24
    8fc4:	5f5f0031 	svcpl	0x005f0031
    8fc8:	00505845 	subseq	r5, r0, r5, asr #16
    8fcc:	695f5f5f 	ldmdbvs	pc, {r0, r1, r2, r3, r4, r6, r8, r9, sl, fp, ip, lr}^	; <UNPREDICTABLE>
    8fd0:	3436746e 	ldrtcc	r7, [r6], #-1134	; 0xfffffb92
    8fd4:	645f745f 	ldrbvs	r7, [pc], #-1119	; 8fdc <_Min_Stack_Size+0x8bdc>
    8fd8:	6e696665 	cdpvs	6, 6, cr6, cr9, cr5, {3}
    8fdc:	31206465 			; <UNDEFINED> instruction: 0x31206465
    8fe0:	475f5f00 	ldrbmi	r5, [pc, -r0, lsl #30]
    8fe4:	5f43554e 	svcpl	0x0043554e
    8fe8:	4c5f4156 	ldfmie	f4, [pc], {86}	; 0x56
    8fec:	5f545349 	svcpl	0x00545349
    8ff0:	504d4f43 	subpl	r4, sp, r3, asr #30
    8ff4:	42495441 	submi	r5, r9, #1090519040	; 0x41000000
    8ff8:	54494c49 	strbpl	r4, [r9], #-3145	; 0xfffff3b7
    8ffc:	00312059 	eorseq	r2, r1, r9, asr r0
    9000:	505f545f 	subspl	r5, pc, pc, asr r4	; <UNPREDICTABLE>
    9004:	49445254 	stmdbmi	r4, {r2, r4, r6, r9, ip, lr}^
    9008:	00204646 	eoreq	r4, r0, r6, asr #12
    900c:	54415f5f 	strbpl	r5, [r1], #-3935	; 0xfffff0a1
    9010:	454c4946 	strbmi	r4, [ip, #-2374]	; 0xfffff6ba
    9014:	5349565f 	movtpl	r5, #38495	; 0x965f
    9018:	454c4249 	strbmi	r4, [ip, #-585]	; 0xfffffdb7
    901c:	5f003120 	svcpl	0x00003120
    9020:	636f6c5f 	cmnvs	pc, #24320	; 0x5f00
    9024:	63615f6b 	cmnvs	r1, #428	; 0x1ac
    9028:	72697571 	rsbvc	r7, r9, #473956352	; 0x1c400000
    902c:	6f6c2865 	svcvs	0x006c2865
    9030:	20296b63 	eorcs	r6, r9, r3, ror #22
    9034:	65725f5f 	ldrbvs	r5, [r2, #-3935]!	; 0xfffff0a1
    9038:	67726174 			; <UNDEFINED> instruction: 0x67726174
    903c:	6c5f7465 	cfldrdvs	mvd7, [pc], {101}	; 0x65
    9040:	5f6b636f 	svcpl	0x006b636f
    9044:	75716361 	ldrbvc	r6, [r1, #-865]!	; 0xfffffc9f
    9048:	28657269 	stmdacs	r5!, {r0, r3, r5, r6, r9, ip, sp, lr}^
    904c:	6b636f6c 	blvs	18e4e04 <_Min_Stack_Size+0x18e4a04>
    9050:	5f5f0029 	svcpl	0x005f0029
    9054:	657a6973 	ldrbvs	r6, [sl, #-2419]!	; 0xfffff68d
    9058:	5f00745f 	svcpl	0x0000745f
    905c:	544f445f 	strbpl	r4, [pc], #-1119	; 9064 <_Min_Stack_Size+0x8c64>
    9060:	202c2053 	eorcs	r2, ip, r3, asr r0
    9064:	002e2e2e 	eoreq	r2, lr, lr, lsr #28
    9068:	4545525f 	strbmi	r5, [r5, #-607]	; 0xfffffda1
    906c:	475f544e 	ldrbmi	r5, [pc, -lr, asr #8]
    9070:	41445445 	cmpmi	r4, r5, asr #8
    9074:	455f4554 	ldrbmi	r4, [pc, #-1364]	; 8b28 <_Min_Stack_Size+0x8728>
    9078:	505f5252 	subspl	r5, pc, r2, asr r2	; <UNPREDICTABLE>
    907c:	72747028 	rsbsvc	r7, r4, #40	; 0x28
    9080:	26282029 	strtcs	r2, [r8], -r9, lsr #32
    9084:	74702828 	ldrbtvc	r2, [r0], #-2088	; 0xfffff7d8
    9088:	3e2d2972 			; <UNDEFINED> instruction: 0x3e2d2972
    908c:	73696d5f 	cmnvc	r9, #6080	; 0x17c0
    9090:	5f3e2d63 	svcpl	0x003e2d63
    9094:	64746567 	ldrbtvs	r6, [r4], #-1383	; 0xfffffa99
    9098:	5f657461 	svcpl	0x00657461
    909c:	29727265 	ldmdbcs	r2!, {r0, r2, r5, r6, r9, ip, sp, lr}^
    90a0:	4e5f0029 	cdpmi	0, 5, cr0, cr15, cr9, {1}
    90a4:	5f6c6c75 	svcpl	0x006c6c75
    90a8:	70736e75 	rsbsvc	r6, r3, r5, ror lr
    90ac:	66696365 	strbtvs	r6, [r9], -r5, ror #6
    90b0:	20646569 	rsbcs	r6, r4, r9, ror #10
    90b4:	475f5f00 	ldrbmi	r5, [pc, -r0, lsl #30]
    90b8:	565f554e 	ldrbpl	r5, [pc], -lr, asr #10
    90bc:	42495349 	submi	r5, r9, #603979777	; 0x24000001
    90c0:	3020454c 	eorcc	r4, r0, ip, asr #10
    90c4:	505f5f00 	subspl	r5, pc, r0, lsl #30
    90c8:	49445254 	stmdbmi	r4, {r2, r4, r6, r9, ip, lr}^
    90cc:	545f4646 	ldrbpl	r4, [pc], #-1606	; 90d4 <_Min_Stack_Size+0x8cd4>
    90d0:	525f0020 	subspl	r0, pc, #32
    90d4:	544e4545 	strbpl	r4, [lr], #-1349	; 0xfffffabb
    90d8:	4454535f 	ldrbmi	r5, [r4], #-863	; 0xfffffca1
    90dc:	2854554f 	ldmdacs	r4, {r0, r1, r2, r3, r6, r8, sl, ip, lr}^
    90e0:	7274705f 	rsbsvc	r7, r4, #95	; 0x5f
    90e4:	28282029 	stmdacs	r8!, {r0, r3, r5, sp}
    90e8:	7274705f 	rsbsvc	r7, r4, #95	; 0x5f
    90ec:	5f3e2d29 	svcpl	0x003e2d29
    90f0:	6f647473 	svcvs	0x00647473
    90f4:	00297475 	eoreq	r7, r9, r5, ror r4
    90f8:	5f44434c 	svcpl	0x0044434c
    90fc:	41454c43 	cmpmi	r5, r3, asr #24
    9100:	43535f52 	cmpmi	r3, #328	; 0x148
    9104:	4e454552 	mcrmi	5, 2, r4, cr5, cr2, {2}
    9108:	78302820 	ldmdavc	r0!, {r5, fp, sp}
    910c:	00293130 	eoreq	r3, r9, r0, lsr r1
    9110:	5f44434c 	svcpl	0x0044434c
    9114:	50534944 	subspl	r4, r3, r4, asr #18
    9118:	5f4e4f5f 	svcpl	0x004e4f5f
    911c:	53525543 	cmppl	r2, #281018368	; 0x10c00000
    9120:	2820524f 	stmdacs	r0!, {r0, r1, r2, r3, r6, r9, ip, lr}
    9124:	45307830 	ldrmi	r7, [r0, #-2096]!	; 0xfffff7d0
    9128:	74730029 	ldrbtvc	r0, [r3], #-41	; 0xffffffd7
    912c:	63697461 	cmnvs	r9, #1627389952	; 0x61000000
    9130:	7373615f 	cmnvc	r3, #-1073741801	; 0xc0000017
    9134:	20747265 	rsbscs	r7, r4, r5, ror #4
    9138:	6174535f 	cmnvs	r4, pc, asr r3
    913c:	5f636974 	svcpl	0x00636974
    9140:	65737361 	ldrbvs	r7, [r3, #-865]!	; 0xfffffc9f
    9144:	5f007472 	svcpl	0x00007472
    9148:	4452535f 	ldrbmi	r5, [r2], #-863	; 0xfffffca1
    914c:	30783020 	rsbscc	r3, r8, r0, lsr #32
    9150:	00343030 	eorseq	r3, r4, r0, lsr r0
    9154:	69735f5f 	ldmdbvs	r3!, {r0, r1, r2, r3, r4, r6, r8, r9, sl, fp, ip, lr}^
    9158:	64656e67 	strbtvs	r6, [r5], #-3687	; 0xfffff199
    915c:	67697320 	strbvs	r7, [r9, -r0, lsr #6]!
    9160:	0064656e 	rsbeq	r6, r4, lr, ror #10
    9164:	74705f5f 	ldrbtvc	r5, [r0], #-3935	; 0xfffff0a1
    9168:	6c617672 	stclvs	6, cr7, [r1], #-456	; 0xfffffe38
    916c:	00206575 	eoreq	r6, r0, r5, ror r5
    9170:	4e535f5f 	mrcmi	15, 2, r5, cr3, cr15, {2}
    9174:	30204b4c 	eorcc	r4, r0, ip, asr #22
    9178:	30303078 	eorscc	r3, r0, r8, ror r0
    917c:	525f0031 	subspl	r0, pc, #49	; 0x31
    9180:	544e4545 	strbpl	r4, [lr], #-1349	; 0xfffffabb
    9184:	4548435f 	strbmi	r4, [r8, #-863]	; 0xfffffca1
    9188:	535f4b43 	cmppl	pc, #68608	; 0x10c00
    918c:	414e4749 	cmpmi	lr, r9, asr #14
    9190:	55425f4c 	strbpl	r5, [r2, #-3916]	; 0xfffff0b4
    9194:	61762846 	cmnvs	r6, r6, asr #16
    9198:	5f202972 	svcpl	0x00202972
    919c:	4e454552 	mcrmi	5, 2, r4, cr5, cr2, {2}
    91a0:	48435f54 	stmdami	r3, {r2, r4, r6, r8, r9, sl, fp, ip, lr}^
    91a4:	284b4345 	stmdacs	fp, {r0, r2, r6, r8, r9, lr}^
    91a8:	2c726176 	ldfcse	f6, [r2], #-472	; 0xfffffe28
    91ac:	69735f20 	ldmdbvs	r3!, {r5, r8, r9, sl, fp, ip, lr}^
    91b0:	6c616e67 	stclvs	14, cr6, [r1], #-412	; 0xfffffe64
    91b4:	6675625f 			; <UNDEFINED> instruction: 0x6675625f
    91b8:	6863202c 	stmdavs	r3!, {r2, r3, r5, sp}^
    91bc:	2a207261 	bcs	825b48 <_Min_Stack_Size+0x825748>
    91c0:	525f202c 	subspl	r2, pc, #44	; 0x2c
    91c4:	544e4545 	strbpl	r4, [lr], #-1349	; 0xfffffabb
    91c8:	4749535f 	smlsldmi	r5, r9, pc, r3	; <UNPREDICTABLE>
    91cc:	5f4c414e 	svcpl	0x004c414e
    91d0:	455a4953 	ldrbmi	r4, [sl, #-2387]	; 0xfffff6ad
    91d4:	0029202c 	eoreq	r2, r9, ip, lsr #32
    91d8:	61685f5f 	cmnvs	r8, pc, asr pc
    91dc:	6c5f6576 	cfldr64vs	mvdx6, [pc], {118}	; 0x76
    91e0:	6c676e6f 	stclvs	14, cr6, [r7], #-444	; 0xfffffe44
    91e4:	36676e6f 	strbtcc	r6, [r7], -pc, ror #28
    91e8:	00312034 	eorseq	r2, r1, r4, lsr r0
    91ec:	4b454553 	blmi	115a740 <_Min_Stack_Size+0x115a340>
    91f0:	444e455f 	strbmi	r4, [lr], #-1375	; 0xfffffaa1
    91f4:	5f003220 	svcpl	0x00003220
    91f8:	7972745f 	ldmdbvc	r2!, {r0, r1, r2, r3, r4, r6, sl, ip, sp, lr}^
    91fc:	6b636f6c 	blvs	18e4fb4 <_Min_Stack_Size+0x18e4bb4>
    9200:	78655f73 	stmdavc	r5!, {r0, r1, r4, r5, r6, r8, r9, sl, fp, ip, lr}^
    9204:	73756c63 	cmnvc	r5, #25344	; 0x6300
    9208:	28657669 	stmdacs	r5!, {r0, r3, r5, r6, r9, sl, ip, sp, lr}^
    920c:	292e2e2e 	stmdbcs	lr!, {r1, r2, r3, r5, r9, sl, fp, sp}
    9210:	6c5f5f20 	mrrcvs	15, 2, r5, pc, cr0	; <UNPREDICTABLE>
    9214:	5f6b636f 	svcpl	0x006b636f
    9218:	6f6e6e61 	svcvs	0x006e6e61
    921c:	65746174 	ldrbvs	r6, [r4, #-372]!	; 0xfffffe8c
    9220:	63786528 	cmnvs	r8, #40, 10	; 0xa000000
    9224:	6973756c 	ldmdbvs	r3!, {r2, r3, r5, r6, r8, sl, ip, sp, lr}^
    9228:	745f6576 	ldrbvc	r6, [pc], #-1398	; 9230 <_Min_Stack_Size+0x8e30>
    922c:	6f6c7972 	svcvs	0x006c7972
    9230:	665f6b63 	ldrbvs	r6, [pc], -r3, ror #22
    9234:	74636e75 	strbtvc	r6, [r3], #-3701	; 0xfffff18b
    9238:	286e6f69 	stmdacs	lr!, {r0, r3, r5, r6, r8, r9, sl, fp, sp, lr}^
    923c:	41565f5f 	cmpmi	r6, pc, asr pc
    9240:	4752415f 			; <UNDEFINED> instruction: 0x4752415f
    9244:	295f5f53 	ldmdbcs	pc, {r0, r1, r4, r6, r8, r9, sl, fp, ip, lr}^	; <UNPREDICTABLE>
    9248:	525f0029 	subspl	r0, pc, #41	; 0x29
    924c:	544e4545 	strbpl	r4, [lr], #-1349	; 0xfffffabb
    9250:	4e41525f 	mcrmi	2, 2, r5, cr1, cr15, {2}
    9254:	454e5f44 	strbmi	r5, [lr, #-3908]	; 0xfffff0bc
    9258:	70285458 	eorvc	r5, r8, r8, asr r4
    925c:	20297274 	eorcs	r7, r9, r4, ror r2
    9260:	74702828 	ldrbtvc	r2, [r0], #-2088	; 0xfffff7d8
    9264:	3e2d2972 			; <UNDEFINED> instruction: 0x3e2d2972
    9268:	3834725f 	ldmdacc	r4!, {r0, r1, r2, r3, r4, r6, r9, ip, sp, lr}
    926c:	725f3e2d 	subsvc	r3, pc, #720	; 0x2d0
    9270:	5f646e61 	svcpl	0x00646e61
    9274:	7478656e 	ldrbtvc	r6, [r8], #-1390	; 0xfffffa92
    9278:	5f5f0029 	svcpl	0x005f0029
    927c:	61776c61 	cmnvs	r7, r1, ror #24
    9280:	695f7379 	ldmdbvs	pc, {r0, r3, r4, r5, r6, r8, r9, ip, sp, lr}^	; <UNPREDICTABLE>
    9284:	6e696c6e 	cdpvs	12, 6, cr6, cr9, cr14, {3}
    9288:	5f5f2065 	svcpl	0x005f2065
    928c:	696c6e69 	stmdbvs	ip!, {r0, r3, r5, r6, r9, sl, fp, sp, lr}^
    9290:	5f5f656e 	svcpl	0x005f656e
    9294:	615f5f20 	cmpvs	pc, r0, lsr #30
    9298:	69727474 	ldmdbvs	r2!, {r2, r4, r5, r6, sl, ip, sp, lr}^
    929c:	65747562 	ldrbvs	r7, [r4, #-1378]!	; 0xfffffa9e
    92a0:	28285f5f 	stmdacs	r8!, {r0, r1, r2, r3, r4, r6, r8, r9, sl, fp, ip, lr}
    92a4:	6c615f5f 	stclvs	15, cr5, [r1], #-380	; 0xfffffe84
    92a8:	73796177 	cmnvc	r9, #-1073741795	; 0xc000001d
    92ac:	6c6e695f 			; <UNDEFINED> instruction: 0x6c6e695f
    92b0:	5f656e69 	svcpl	0x00656e69
    92b4:	0029295f 	eoreq	r2, r9, pc, asr r9
    92b8:	4554415f 	ldrbmi	r4, [r4, #-351]	; 0xfffffea1
    92bc:	5f544958 	svcpl	0x00544958
    92c0:	455a4953 	ldrbmi	r4, [sl, #-2387]	; 0xfffff6ad
    92c4:	00323320 	eorseq	r3, r2, r0, lsr #6
    92c8:	6f635f5f 	svcvs	0x00635f5f
    92cc:	6961746e 	stmdbvs	r1!, {r1, r2, r3, r5, r6, sl, ip, sp, lr}^
    92d0:	6f72656e 	svcvs	0x0072656e
    92d4:	2c782866 	ldclcs	8, cr2, [r8], #-408	; 0xfffffe68
    92d8:	296d2c73 	stmdbcs	sp!, {r0, r1, r4, r5, r6, sl, fp, sp}^
    92dc:	207b2820 	rsbscs	r2, fp, r0, lsr #16
    92e0:	736e6f63 	cmnvc	lr, #396	; 0x18c
    92e4:	6f762074 	svcvs	0x00762074
    92e8:	6974616c 	ldmdbvs	r4!, {r2, r3, r5, r6, r8, sp, lr}^
    92ec:	5f20656c 	svcpl	0x0020656c
    92f0:	7079745f 	rsbsvc	r7, r9, pc, asr r4
    92f4:	28666f65 	stmdacs	r6!, {r0, r2, r5, r6, r8, r9, sl, fp, sp, lr}^
    92f8:	20732828 	rsbscs	r2, r3, r8, lsr #16
    92fc:	2930292a 	ldmdbcs	r0!, {r1, r3, r5, r8, fp, sp}
    9300:	296d3e2d 	stmdbcs	sp!, {r0, r2, r3, r5, r9, sl, fp, ip, sp}^
    9304:	5f5f2a20 	svcpl	0x005f2a20
    9308:	203d2078 	eorscs	r2, sp, r8, ror r0
    930c:	3b297828 	blcc	a673b4 <_Min_Stack_Size+0xa66fb4>
    9310:	445f5f20 	ldrbmi	r5, [pc], #-3872	; 9318 <_Min_Stack_Size+0x8f18>
    9314:	41555145 	cmpmi	r5, r5, asr #2
    9318:	5946494c 	stmdbpl	r6, {r2, r3, r6, r8, fp, lr}^
    931c:	2a207328 	bcs	825fc4 <_Min_Stack_Size+0x825bc4>
    9320:	6328202c 			; <UNDEFINED> instruction: 0x6328202c
    9324:	74736e6f 	ldrbtvc	r6, [r3], #-3695	; 0xfffff191
    9328:	6c6f7620 	stclvs	6, cr7, [pc], #-128	; 92b0 <_Min_Stack_Size+0x8eb0>
    932c:	6c697461 	cfstrdvs	mvd7, [r9], #-388	; 0xfffffe7c
    9330:	68632065 	stmdavs	r3!, {r0, r2, r5, r6, sp}^
    9334:	2a207261 	bcs	825cc0 <_Min_Stack_Size+0x8258c0>
    9338:	785f5f29 	ldmdavc	pc, {r0, r3, r5, r8, r9, sl, fp, ip, lr}^	; <UNPREDICTABLE>
    933c:	5f202d20 	svcpl	0x00202d20
    9340:	66666f5f 	uqsaxvs	r6, r6, pc	; <UNPREDICTABLE>
    9344:	6f746573 	svcvs	0x00746573
    9348:	2c732866 	ldclcs	8, cr2, [r3], #-408	; 0xfffffe68
    934c:	29296d20 	stmdbcs	r9!, {r5, r8, sl, fp, sp, lr}
    9350:	00297d3b 	eoreq	r7, r9, fp, lsr sp
    9354:	4453425f 	ldrbmi	r4, [r3], #-607	; 0xfffffda1
    9358:	5a49535f 	bpl	125e0dc <_Min_Stack_Size+0x125dcdc>
    935c:	5f545f45 	svcpl	0x00545f45
    9360:	434c0020 	movtmi	r0, #49184	; 0xc020
    9364:	54435f44 	strbpl	r5, [r3], #-3908	; 0xfffff0bc
    9368:	505f4c52 	subspl	r4, pc, r2, asr ip	; <UNPREDICTABLE>
    936c:	2054524f 	subscs	r5, r4, pc, asr #4
    9370:	4f495047 	svcmi	0x00495047
    9374:	535f0041 	cmppl	pc, #65	; 0x41
    9378:	4f494454 	svcmi	0x00494454
    937c:	205f485f 	subscs	r4, pc, pc, asr r8	; <UNPREDICTABLE>
    9380:	64747300 	ldrbtvs	r7, [r4], #-768	; 0xfffffd00
    9384:	5f206e69 	svcpl	0x00206e69
    9388:	4e454552 	mcrmi	5, 2, r4, cr5, cr2, {2}
    938c:	54535f54 	ldrbpl	r5, [r3], #-3924	; 0xfffff0ac
    9390:	284e4944 	stmdacs	lr, {r2, r6, r8, fp, lr}^
    9394:	4545525f 	strbmi	r5, [r5, #-607]	; 0xfffffda1
    9398:	0029544e 	eoreq	r5, r9, lr, asr #8
    939c:	4545525f 	strbmi	r5, [r5, #-607]	; 0xfffffda1
    93a0:	435f544e 	cmpmi	pc, #1308622848	; 0x4e000000
    93a4:	4b434548 	blmi	10da8cc <_Min_Stack_Size+0x10da4cc>
    93a8:	4353415f 	cmpmi	r3, #-1073741801	; 0xc0000017
    93ac:	454d4954 	strbmi	r4, [sp, #-2388]	; 0xfffff6ac
    93b0:	4655425f 			; <UNDEFINED> instruction: 0x4655425f
    93b4:	72617628 	rsbvc	r7, r1, #40, 12	; 0x2800000
    93b8:	525f2029 	subspl	r2, pc, #41	; 0x29
    93bc:	544e4545 	strbpl	r4, [lr], #-1349	; 0xfffffabb
    93c0:	4548435f 	strbmi	r4, [r8, #-863]	; 0xfffffca1
    93c4:	76284b43 	strtvc	r4, [r8], -r3, asr #22
    93c8:	202c7261 	eorcs	r7, ip, r1, ror #4
    93cc:	6373615f 	cmnvs	r3, #-1073741801	; 0xc0000017
    93d0:	656d6974 	strbvs	r6, [sp, #-2420]!	; 0xfffff68c
    93d4:	6675625f 			; <UNDEFINED> instruction: 0x6675625f
    93d8:	6863202c 	stmdavs	r3!, {r2, r3, r5, sp}^
    93dc:	2a207261 	bcs	825d68 <_Min_Stack_Size+0x825968>
    93e0:	525f202c 	subspl	r2, pc, #44	; 0x2c
    93e4:	544e4545 	strbpl	r4, [lr], #-1349	; 0xfffffabb
    93e8:	4353415f 	cmpmi	r3, #-1073741801	; 0xc0000017
    93ec:	454d4954 	strbmi	r4, [sp, #-2388]	; 0xfffff6ac
    93f0:	5a49535f 	bpl	125e174 <_Min_Stack_Size+0x125dd74>
    93f4:	6d202c45 	stcvs	12, cr2, [r0, #-276]!	; 0xfffffeec
    93f8:	65736d65 	ldrbvs	r6, [r3, #-3429]!	; 0xfffff29b
    93fc:	76282874 			; <UNDEFINED> instruction: 0x76282874
    9400:	2d297261 	sfmcs	f7, 4, [r9, #-388]!	; 0xfffffe7c
    9404:	73615f3e 	cmnvc	r1, #62, 30	; 0xf8
    9408:	6d697463 	cfstrdvs	mvd7, [r9, #-396]!	; 0xfffffe74
    940c:	75625f65 	strbvc	r5, [r2, #-3941]!	; 0xfffff09b
    9410:	30202c66 	eorcc	r2, r0, r6, ror #24
    9414:	525f202c 	subspl	r2, pc, #44	; 0x2c
    9418:	544e4545 	strbpl	r4, [lr], #-1349	; 0xfffffabb
    941c:	4353415f 	cmpmi	r3, #-1073741801	; 0xc0000017
    9420:	454d4954 	strbmi	r4, [sp, #-2388]	; 0xfffff6ac
    9424:	5a49535f 	bpl	125e1a8 <_Min_Stack_Size+0x125dda8>
    9428:	00292945 	eoreq	r2, r9, r5, asr #18
    942c:	575f545f 			; <UNDEFINED> instruction: 0x575f545f
    9430:	52414843 	subpl	r4, r1, #4390912	; 0x430000
    9434:	434c0020 	movtmi	r0, #49184	; 0xc020
    9438:	55465f44 	strbpl	r5, [r6, #-3908]	; 0xfffff0bc
    943c:	4954434e 	ldmdbmi	r4, {r1, r2, r3, r6, r8, r9, lr}^
    9440:	345f4e4f 	ldrbcc	r4, [pc], #-3663	; 9448 <_Min_Stack_Size+0x9048>
    9444:	5f544942 	svcpl	0x00544942
    9448:	4e494c32 	mcrmi	12, 2, r4, cr9, cr2, {1}
    944c:	28205345 	stmdacs	r0!, {r0, r2, r6, r8, r9, ip, lr}
    9450:	38327830 	ldmdacc	r2!, {r4, r5, fp, ip, sp, lr}
    9454:	425f0029 	subsmi	r0, pc, #41	; 0x29
    9458:	4e494745 	cdpmi	7, 4, cr4, cr9, cr5, {2}
    945c:	4454535f 	ldrbmi	r5, [r4], #-863	; 0xfffffca1
    9460:	0020435f 	eoreq	r4, r0, pc, asr r3
    9464:	4545525f 	strbmi	r5, [r5, #-607]	; 0xfffffda1
    9468:	4d5f544e 	cfldrdmi	mvd5, [pc, #-312]	; 9338 <_Min_Stack_Size+0x8f38>
    946c:	52465f50 	subpl	r5, r6, #80, 30	; 0x140
    9470:	494c4545 	stmdbmi	ip, {r0, r2, r6, r8, sl, lr}^
    9474:	70285453 	eorvc	r5, r8, r3, asr r4
    9478:	20297274 	eorcs	r7, r9, r4, ror r2
    947c:	74702828 	ldrbtvc	r2, [r0], #-2088	; 0xfffff7d8
    9480:	3e2d2972 			; <UNDEFINED> instruction: 0x3e2d2972
    9484:	2d706d5f 	ldclcs	13, cr6, [r0, #-380]!	; 0xfffffe84
    9488:	72665f3e 	rsbvc	r5, r6, #62, 30	; 0xf8
    948c:	696c6565 	stmdbvs	ip!, {r0, r2, r5, r6, r8, sl, sp, lr}^
    9490:	00297473 	eoreq	r7, r9, r3, ror r4
    9494:	4d49545f 	cfstrdmi	mvd5, [r9, #-380]	; 0xfffffe84
    9498:	5f545f45 	svcpl	0x00545f45
    949c:	695f5f20 	ldmdbvs	pc, {r5, r8, r9, sl, fp, ip, lr}^	; <UNPREDICTABLE>
    94a0:	6c5f746e 	cfldrdvs	mvd7, [pc], {110}	; 0x6e
    94a4:	74736165 	ldrbtvc	r6, [r3], #-357	; 0xfffffe9b
    94a8:	745f3436 	ldrbvc	r3, [pc], #-1078	; 94b0 <_Min_Stack_Size+0x90b0>
    94ac:	4c435f00 	mcrrmi	15, 0, r5, r3, cr0
    94b0:	494b434f 	stmdbmi	fp, {r0, r1, r2, r3, r6, r8, r9, lr}^
    94b4:	5f545f44 	svcpl	0x00545f44
    94b8:	736e7520 	cmnvc	lr, #32, 10	; 0x8000000
    94bc:	656e6769 	strbvs	r6, [lr, #-1897]!	; 0xfffff897
    94c0:	6f6c2064 	svcvs	0x006c2064
    94c4:	5f00676e 	svcpl	0x0000676e
    94c8:	544e495f 	strbpl	r4, [lr], #-2399	; 0xfffff6a1
    94cc:	4843575f 	stmdami	r3, {r0, r1, r2, r3, r4, r6, r8, r9, sl, ip, lr}^
    94d0:	545f5241 	ldrbpl	r5, [pc], #-577	; 94d8 <_Min_Stack_Size+0x90d8>
    94d4:	0020485f 	eoreq	r4, r0, pc, asr r8
    94d8:	5641485f 			; <UNDEFINED> instruction: 0x5641485f
    94dc:	4e495f45 	cdpmi	15, 4, cr5, cr9, cr5, {2}
    94e0:	49465449 	stmdbmi	r6, {r0, r3, r6, sl, ip, lr}^
    94e4:	415f494e 	cmpmi	pc, lr, asr #18
    94e8:	59415252 	stmdbpl	r1, {r1, r4, r6, r9, ip, lr}^
    94ec:	5f003120 	svcpl	0x00003120
    94f0:	4d53415f 	ldfmie	f4, [r3, #-380]	; 0xfffffe84
    94f4:	454d414e 	strbmi	r4, [sp, #-334]	; 0xfffffeb2
    94f8:	616e6328 	cmnvs	lr, r8, lsr #6
    94fc:	2029656d 	eorcs	r6, r9, sp, ror #10
    9500:	53585f5f 	cmppl	r8, #380	; 0x17c
    9504:	4e495254 	mcrmi	2, 2, r5, cr9, cr4, {2}
    9508:	5f282047 	svcpl	0x00282047
    950c:	4553555f 	ldrbmi	r5, [r3, #-1375]	; 0xfffffaa1
    9510:	414c5f52 	cmpmi	ip, r2, asr pc
    9514:	5f4c4542 	svcpl	0x004c4542
    9518:	46455250 			; <UNDEFINED> instruction: 0x46455250
    951c:	5f5f5849 	svcpl	0x005f5849
    9520:	6e632029 	cdpvs	0, 6, cr2, cr3, cr9, {1}
    9524:	00656d61 	rsbeq	r6, r5, r1, ror #26
    9528:	4343475f 	movtmi	r4, #14175	; 0x375f
    952c:	4843575f 	stmdami	r3, {r0, r1, r2, r3, r4, r6, r8, r9, sl, ip, lr}^
    9530:	545f5241 	ldrbpl	r5, [pc], #-577	; 9538 <_Min_Stack_Size+0x9138>
    9534:	434c0020 	movtmi	r0, #49184	; 0xc020
    9538:	52505f44 	subspl	r5, r0, #68, 30	; 0x110
    953c:	54415649 	strbpl	r5, [r1], #-1609	; 0xfffff9b7
    9540:	5f485f45 	svcpl	0x00485f45
    9544:	525f0020 	subspl	r0, pc, #32
    9548:	544e4545 	strbpl	r4, [lr], #-1349	; 0xfffffabb
    954c:	4548435f 	strbmi	r4, [r8, #-863]	; 0xfffffca1
    9550:	545f4b43 	ldrbpl	r4, [pc], #-2883	; 9558 <_Min_Stack_Size+0x9158>
    9554:	6176284d 	cmnvs	r6, sp, asr #16
    9558:	5f202972 	svcpl	0x00202972
    955c:	4e454552 	mcrmi	5, 2, r4, cr5, cr2, {2}
    9560:	48435f54 	stmdami	r3, {r2, r4, r6, r8, r9, sl, fp, ip, lr}^
    9564:	284b4345 	stmdacs	fp, {r0, r2, r6, r8, r9, lr}^
    9568:	2c726176 	ldfcse	f6, [r2], #-472	; 0xfffffe28
    956c:	6f6c5f20 	svcvs	0x006c5f20
    9570:	746c6163 	strbtvc	r6, [ip], #-355	; 0xfffffe9d
    9574:	5f656d69 	svcpl	0x00656d69
    9578:	2c667562 	cfstr64cs	mvdx7, [r6], #-392	; 0xfffffe78
    957c:	72747320 	rsbsvc	r7, r4, #32, 6	; 0x80000000
    9580:	20746375 	rsbscs	r6, r4, r5, ror r3
    9584:	6d745f5f 	ldclvs	15, cr5, [r4, #-380]!	; 0xfffffe84
    9588:	202c2a20 	eorcs	r2, ip, r0, lsr #20
    958c:	657a6973 	ldrbvs	r6, [sl, #-2419]!	; 0xfffff68d
    9590:	2a20666f 	bcs	822f54 <_Min_Stack_Size+0x822b54>
    9594:	61762828 	cmnvs	r6, r8, lsr #16
    9598:	3e2d2972 			; <UNDEFINED> instruction: 0x3e2d2972
    959c:	636f6c5f 	cmnvs	pc, #24320	; 0x5f00
    95a0:	69746c61 	ldmdbvs	r4!, {r0, r5, r6, sl, fp, sp, lr}^
    95a4:	625f656d 	subsvs	r6, pc, #457179136	; 0x1b400000
    95a8:	2c296675 	stccs	6, cr6, [r9], #-468	; 0xfffffe2c
    95ac:	5f002920 	svcpl	0x00002920
    95b0:	524f535f 	subpl	r5, pc, #2080374785	; 0x7c000001
    95b4:	78302044 	ldmdavc	r0!, {r2, r6, sp}
    95b8:	30303032 	eorscc	r3, r0, r2, lsr r0
    95bc:	6d697400 	cfstrdvs	mvd7, [r9, #-0]
    95c0:	5f5f0065 	svcpl	0x005f0065
    95c4:	4b434f4c 	blmi	10dd2fc <_Min_Stack_Size+0x10dcefc>
    95c8:	494e495f 	stmdbmi	lr, {r0, r1, r2, r3, r4, r6, r8, fp, lr}^
    95cc:	45525f54 	ldrbmi	r5, [r2, #-3924]	; 0xfffff0ac
    95d0:	53525543 	cmppl	r2, #281018368	; 0x10c00000
    95d4:	28455649 	stmdacs	r5, {r0, r3, r6, r9, sl, ip, lr}^
    95d8:	73616c63 	cmnvc	r1, #25344	; 0x6300
    95dc:	6f6c2c73 	svcvs	0x006c2c73
    95e0:	20296b63 	eorcs	r6, r9, r3, ror #22
    95e4:	4f4c5f5f 	svcmi	0x004c5f5f
    95e8:	495f4b43 	ldmdbmi	pc, {r0, r1, r6, r8, r9, fp, lr}^	; <UNPREDICTABLE>
    95ec:	2854494e 	ldmdacs	r4, {r1, r2, r3, r6, r8, fp, lr}^
    95f0:	73616c63 	cmnvc	r1, #25344	; 0x6300
    95f4:	6f6c2c73 	svcvs	0x006c2c73
    95f8:	00296b63 	eoreq	r6, r9, r3, ror #22
    95fc:	65737361 	ldrbvs	r7, [r3, #-865]!	; 0xfffffc9f
    9600:	5f287472 	svcpl	0x00287472
    9604:	2029655f 	eorcs	r6, r9, pc, asr r5
    9608:	5f5f2828 	svcpl	0x005f2828
    960c:	3f202965 	svccc	0x00202965
    9610:	6f762820 	svcvs	0x00762820
    9614:	30296469 	eorcc	r6, r9, r9, ror #8
    9618:	5f203a20 	svcpl	0x00203a20
    961c:	7373615f 	cmnvc	r3, #-1073741801	; 0xc0000017
    9620:	5f747265 	svcpl	0x00747265
    9624:	636e7566 	cmnvs	lr, #427819008	; 0x19800000
    9628:	5f5f2820 	svcpl	0x005f2820
    962c:	454c4946 	strbmi	r4, [ip, #-2374]	; 0xfffff6ba
    9630:	202c5f5f 	eorcs	r5, ip, pc, asr pc
    9634:	494c5f5f 	stmdbmi	ip, {r0, r1, r2, r3, r4, r6, r8, r9, sl, fp, ip, lr}^
    9638:	5f5f454e 	svcpl	0x005f454e
    963c:	5f5f202c 	svcpl	0x005f202c
    9640:	45535341 	ldrbmi	r5, [r3, #-833]	; 0xfffffcbf
    9644:	465f5452 			; <UNDEFINED> instruction: 0x465f5452
    9648:	2c434e55 	mcrrcs	14, 5, r4, r3, cr5
    964c:	5f5f2320 	svcpl	0x005f2320
    9650:	00292965 	eoreq	r2, r9, r5, ror #18
    9654:	4e41525f 	mcrmi	2, 2, r5, cr1, cr15, {2}
    9658:	5f383444 	svcpl	0x00383444
    965c:	544c554d 	strbpl	r5, [ip], #-1357	; 0xfffffab3
    9660:	2820315f 	stmdacs	r0!, {r0, r1, r2, r3, r4, r6, r8, ip, sp}
    9664:	65647830 	strbvs	r7, [r4, #-2096]!	; 0xfffff7d0
    9668:	00296365 	eoreq	r6, r9, r5, ror #6
    966c:	4e41525f 	mcrmi	2, 2, r5, cr1, cr15, {2}
    9670:	5f383444 	svcpl	0x00383444
    9674:	44454553 	strbmi	r4, [r5], #-1363	; 0xfffffaad
    9678:	2820305f 	stmdacs	r0!, {r0, r1, r2, r3, r4, r6, ip, sp}
    967c:	33337830 	teqcc	r3, #48, 16	; 0x300000
    9680:	00296530 	eoreq	r6, r9, r0, lsr r5
    9684:	5f44504b 	svcpl	0x0044504b
    9688:	32574f52 	subscc	r4, r7, #328	; 0x148
    968c:	4e49505f 	mcrmi	0, 2, r5, cr9, cr15, {2}
    9690:	49504720 	ldmdbmi	r0, {r5, r8, r9, sl, lr}^
    9694:	49505f4f 	ldmdbmi	r0, {r0, r1, r2, r3, r6, r8, r9, sl, fp, ip, lr}^
    9698:	00335f4e 	eorseq	r5, r3, lr, asr #30
    969c:	4953535f 	ldmdbmi	r3, {r0, r1, r2, r3, r4, r6, r8, r9, ip, lr}^
    96a0:	545f455a 	ldrbpl	r4, [pc], #-1370	; 96a8 <_Min_Stack_Size+0x92a8>
    96a4:	4345445f 	movtmi	r4, #21599	; 0x545f
    96a8:	4552414c 	ldrbmi	r4, [r2, #-332]	; 0xfffffeb4
    96ac:	5f002044 	svcpl	0x00002044
    96b0:	5f434347 	svcpl	0x00434347
    96b4:	5f58414d 	svcpl	0x0058414d
    96b8:	47494c41 	strbmi	r4, [r9, -r1, asr #24]
    96bc:	20545f4e 	subscs	r5, r4, lr, asr #30
    96c0:	4c5f5f00 	mrrcmi	15, 0, r5, pc, cr0	; <UNPREDICTABLE>
    96c4:	20676e6f 	rsbcs	r6, r7, pc, ror #28
    96c8:	676e6f6c 	strbvs	r6, [lr, -ip, ror #30]!
    96cc:	44434c00 	strbmi	r4, [r3], #-3072	; 0xfffff400
    96d0:	4e55465f 	mrcmi	6, 2, r4, cr5, cr15, {2}
    96d4:	4f495443 	svcmi	0x00495443
    96d8:	45525f4e 	ldrbmi	r5, [r2, #-3918]	; 0xfffff0b2
    96dc:	4e525554 	mrcmi	5, 2, r5, cr2, cr4, {2}
    96e0:	4d4f485f 	stclmi	8, cr4, [pc, #-380]	; 956c <_Min_Stack_Size+0x916c>
    96e4:	30282045 	eorcc	r2, r8, r5, asr #32
    96e8:	29323078 	ldmdbcs	r2!, {r3, r4, r5, r6, ip, sp}
    96ec:	45525f00 	ldrbmi	r5, [r2, #-3840]	; 0xfffff100
    96f0:	20544e45 	subscs	r4, r4, r5, asr #28
    96f4:	706d695f 	rsbvc	r6, sp, pc, asr r9
    96f8:	5f657275 	svcpl	0x00657275
    96fc:	00727470 	rsbseq	r7, r2, r0, ror r4
    9700:	43435f5f 	movtmi	r5, #16223	; 0x3f5f
    9704:	5055535f 	subspl	r5, r5, pc, asr r3
    9708:	54524f50 	ldrbpl	r4, [r2], #-3920	; 0xfffff0b0
    970c:	41565f53 	cmpmi	r6, r3, asr pc
    9710:	49444152 	stmdbmi	r4, {r1, r4, r6, r8, lr}^
    9714:	58585f43 	ldmdapl	r8, {r0, r1, r6, r8, r9, sl, fp, ip, lr}^
    9718:	00312058 	eorseq	r2, r1, r8, asr r0
    971c:	4545525f 	strbmi	r5, [r5, #-607]	; 0xfffffda1
    9720:	495f544e 	ldmdbmi	pc, {r1, r2, r3, r6, sl, ip, lr}^	; <UNPREDICTABLE>
    9724:	5f54494e 	svcpl	0x0054494e
    9728:	444e4152 	strbmi	r4, [lr], #-338	; 0xfffffeae
    972c:	76283834 			; <UNDEFINED> instruction: 0x76283834
    9730:	20297261 	eorcs	r7, r9, r1, ror #4
    9734:	7b206f64 	blvc	8254cc <_Min_Stack_Size+0x8250cc>
    9738:	72747320 	rsbsvc	r7, r4, #32, 6	; 0x80000000
    973c:	20746375 	rsbscs	r6, r4, r5, ror r3
    9740:	6565725f 	strbvs	r7, [r5, #-607]!	; 0xfffffda1
    9744:	2a20746e 	bcs	826904 <_Min_Stack_Size+0x826504>
    9748:	3d20725f 	sfmcc	f7, 4, [r0, #-380]!	; 0xfffffe84
    974c:	61762820 	cmnvs	r6, r0, lsr #16
    9750:	203b2972 	eorscs	r2, fp, r2, ror r9
    9754:	3e2d725f 	mcrcc	2, 1, r7, cr13, cr15, {2}
    9758:	3834725f 	ldmdacc	r4!, {r0, r1, r2, r3, r4, r6, r9, ip, sp, lr}
    975c:	735f3e2d 	cmpvc	pc, #720	; 0x2d0
    9760:	5b646565 	blpl	1922cfc <_Min_Stack_Size+0x19228fc>
    9764:	3d205d30 	stccc	13, cr5, [r0, #-192]!	; 0xffffff40
    9768:	41525f20 	cmpmi	r2, r0, lsr #30
    976c:	3834444e 	ldmdacc	r4!, {r1, r2, r3, r6, sl, lr}
    9770:	4545535f 	strbmi	r5, [r5, #-863]	; 0xfffffca1
    9774:	3b305f44 	blcc	c2148c <_Min_Stack_Size+0xc2108c>
    9778:	2d725f20 	ldclcs	15, cr5, [r2, #-128]!	; 0xffffff80
    977c:	34725f3e 	ldrbtcc	r5, [r2], #-3902	; 0xfffff0c2
    9780:	5f3e2d38 	svcpl	0x003e2d38
    9784:	64656573 	strbtvs	r6, [r5], #-1395	; 0xfffffa8d
    9788:	205d315b 	subscs	r3, sp, fp, asr r1
    978c:	525f203d 	subspl	r2, pc, #61	; 0x3d
    9790:	34444e41 	strbcc	r4, [r4], #-3649	; 0xfffff1bf
    9794:	45535f38 	ldrbmi	r5, [r3, #-3896]	; 0xfffff0c8
    9798:	315f4445 	cmpcc	pc, r5, asr #8
    979c:	725f203b 	subsvc	r2, pc, #59	; 0x3b
    97a0:	725f3e2d 	subsvc	r3, pc, #720	; 0x2d0
    97a4:	3e2d3834 	mcrcc	8, 1, r3, cr13, cr4, {1}
    97a8:	6565735f 	strbvs	r7, [r5, #-863]!	; 0xfffffca1
    97ac:	5d325b64 	vldmdbpl	r2!, {d5-<overflow reg d54>}
    97b0:	5f203d20 	svcpl	0x00203d20
    97b4:	444e4152 	strbmi	r4, [lr], #-338	; 0xfffffeae
    97b8:	535f3834 	cmppl	pc, #52, 16	; 0x340000
    97bc:	5f444545 	svcpl	0x00444545
    97c0:	5f203b32 	svcpl	0x00203b32
    97c4:	5f3e2d72 	svcpl	0x003e2d72
    97c8:	2d383472 	cfldrscs	mvf3, [r8, #-456]!	; 0xfffffe38
    97cc:	756d5f3e 	strbvc	r5, [sp, #-3902]!	; 0xfffff0c2
    97d0:	305b746c 	subscc	r7, fp, ip, ror #8
    97d4:	203d205d 	eorscs	r2, sp, sp, asr r0
    97d8:	4e41525f 	mcrmi	2, 2, r5, cr1, cr15, {2}
    97dc:	5f383444 	svcpl	0x00383444
    97e0:	544c554d 	strbpl	r5, [ip], #-1357	; 0xfffffab3
    97e4:	203b305f 	eorscs	r3, fp, pc, asr r0
    97e8:	3e2d725f 	mcrcc	2, 1, r7, cr13, cr15, {2}
    97ec:	3834725f 	ldmdacc	r4!, {r0, r1, r2, r3, r4, r6, r9, ip, sp, lr}
    97f0:	6d5f3e2d 	ldclvs	14, cr3, [pc, #-180]	; 9744 <_Min_Stack_Size+0x9344>
    97f4:	5b746c75 	blpl	1d249d0 <_Min_Stack_Size+0x1d245d0>
    97f8:	3d205d31 	stccc	13, cr5, [r0, #-196]!	; 0xffffff3c
    97fc:	41525f20 	cmpmi	r2, r0, lsr #30
    9800:	3834444e 	ldmdacc	r4!, {r1, r2, r3, r6, sl, lr}
    9804:	4c554d5f 	mrrcmi	13, 5, r4, r5, cr15
    9808:	3b315f54 	blcc	c61560 <_Min_Stack_Size+0xc61160>
    980c:	2d725f20 	ldclcs	15, cr5, [r2, #-128]!	; 0xffffff80
    9810:	34725f3e 	ldrbtcc	r5, [r2], #-3902	; 0xfffff0c2
    9814:	5f3e2d38 	svcpl	0x003e2d38
    9818:	746c756d 	strbtvc	r7, [ip], #-1389	; 0xfffffa93
    981c:	205d325b 	subscs	r3, sp, fp, asr r2
    9820:	525f203d 	subspl	r2, pc, #61	; 0x3d
    9824:	34444e41 	strbcc	r4, [r4], #-3649	; 0xfffff1bf
    9828:	554d5f38 	strbpl	r5, [sp, #-3896]	; 0xfffff0c8
    982c:	325f544c 	subscc	r5, pc, #76, 8	; 0x4c000000
    9830:	725f203b 	subsvc	r2, pc, #59	; 0x3b
    9834:	725f3e2d 	subsvc	r3, pc, #720	; 0x2d0
    9838:	3e2d3834 	mcrcc	8, 1, r3, cr13, cr4, {1}
    983c:	6464615f 	strbtvs	r6, [r4], #-351	; 0xfffffea1
    9840:	5f203d20 	svcpl	0x00203d20
    9844:	444e4152 	strbmi	r4, [lr], #-338	; 0xfffffeae
    9848:	415f3834 	cmpmi	pc, r4, lsr r8	; <UNPREDICTABLE>
    984c:	203b4444 	eorscs	r4, fp, r4, asr #8
    9850:	3e2d725f 	mcrcc	2, 1, r7, cr13, cr15, {2}
    9854:	3834725f 	ldmdacc	r4!, {r0, r1, r2, r3, r4, r6, r9, ip, sp, lr}
    9858:	725f3e2d 	subsvc	r3, pc, #720	; 0x2d0
    985c:	5f646e61 	svcpl	0x00646e61
    9860:	7478656e 	ldrbtvc	r6, [r8], #-1390	; 0xfffffa92
    9864:	31203d20 			; <UNDEFINED> instruction: 0x31203d20
    9868:	207d203b 	rsbscs	r2, sp, fp, lsr r0
    986c:	6c696877 	stclvs	8, cr6, [r9], #-476	; 0xfffffe24
    9870:	30282065 	eorcc	r2, r8, r5, rrx
    9874:	5f5f0029 	svcpl	0x005f0029
    9878:	43554e47 	cmpmi	r5, #1136	; 0x470
    987c:	4552505f 	ldrbmi	r5, [r2, #-95]	; 0xffffffa1
    9880:	5f514552 	svcpl	0x00514552
    9884:	616d285f 	cmnvs	sp, pc, asr r8
    9888:	29696d2c 	stmdbcs	r9!, {r2, r3, r5, r8, sl, fp, sp, lr}^
    988c:	475f5f20 	ldrbmi	r5, [pc, -r0, lsr #30]
    9890:	5f43554e 	svcpl	0x0043554e
    9894:	52455250 	subpl	r5, r5, #80, 4
    9898:	6d285145 	stfvss	f5, [r8, #-276]!	; 0xfffffeec
    989c:	6d202c61 	stcvs	12, cr2, [r0, #-388]!	; 0xfffffe7c
    98a0:	5f002969 	svcpl	0x00002969
    98a4:	5343525f 	movtpl	r5, #12895	; 0x325f
    98a8:	73284449 			; <UNDEFINED> instruction: 0x73284449
    98ac:	74732029 	ldrbtvc	r2, [r3], #-41	; 0xffffffd7
    98b0:	74637572 	strbtvc	r7, [r3], #-1394	; 0xfffffa8e
    98b4:	685f5f20 	ldmdavs	pc, {r5, r8, r9, sl, fp, ip, lr}^	; <UNPREDICTABLE>
    98b8:	006b6361 	rsbeq	r6, fp, r1, ror #6
    98bc:	4545525f 	strbmi	r5, [r5, #-607]	; 0xfffffda1
    98c0:	495f544e 	ldmdbmi	pc, {r1, r2, r3, r6, sl, ip, lr}^	; <UNPREDICTABLE>
    98c4:	5f54494e 	svcpl	0x0054494e
    98c8:	45534552 	ldrbmi	r4, [r3, #-1362]	; 0xfffffaae
    98cc:	44455652 	strbmi	r5, [r5], #-1618	; 0xfffff9ae
    98d0:	375f365f 			; <UNDEFINED> instruction: 0x375f365f
    98d4:	525f0020 	subspl	r0, pc, #32
    98d8:	544e4545 	strbpl	r4, [lr], #-1349	; 0xfffffabb
    98dc:	34364c5f 	ldrtcc	r4, [r6], #-3167	; 0xfffff3a1
    98e0:	55425f41 	strbpl	r5, [r2, #-3905]	; 0xfffff0bf
    98e4:	74702846 	ldrbtvc	r2, [r0], #-2118	; 0xfffff7ba
    98e8:	28202972 	stmdacs	r0!, {r1, r4, r5, r6, r8, fp, sp}
    98ec:	72747028 	rsbsvc	r7, r4, #40	; 0x28
    98f0:	5f3e2d29 	svcpl	0x003e2d29
    98f4:	6373696d 	cmnvs	r3, #1785856	; 0x1b4000
    98f8:	6c5f3e2d 	mrrcvs	14, 2, r3, pc, cr13	; <UNPREDICTABLE>
    98fc:	5f613436 	svcpl	0x00613436
    9900:	29667562 	stmdbcs	r6!, {r1, r5, r6, r8, sl, ip, sp, lr}^
    9904:	45525f00 	ldrbmi	r5, [r2, #-3840]	; 0xfffff100
    9908:	5f544e45 	svcpl	0x00544e45
    990c:	454c424d 	strbmi	r4, [ip, #-589]	; 0xfffffdb3
    9910:	54535f4e 	ldrbpl	r5, [r3], #-3918	; 0xfffff0b2
    9914:	28455441 	stmdacs	r5, {r0, r6, sl, ip, lr}^
    9918:	29727470 	ldmdbcs	r2!, {r4, r5, r6, sl, ip, sp, lr}^
    991c:	70282820 	eorvc	r2, r8, r0, lsr #16
    9920:	2d297274 	sfmcs	f7, 4, [r9, #-464]!	; 0xfffffe30
    9924:	696d5f3e 	stmdbvs	sp!, {r1, r2, r3, r4, r5, r8, r9, sl, fp, ip, lr}^
    9928:	3e2d6373 	mcrcc	3, 1, r6, cr13, cr3, {3}
    992c:	6c626d5f 	stclvs	13, cr6, [r2], #-380	; 0xfffffe84
    9930:	735f6e65 	cmpvc	pc, #1616	; 0x650
    9934:	65746174 	ldrbvs	r6, [r4, #-372]!	; 0xfffffe8c
    9938:	5f5f0029 	svcpl	0x005f0029
    993c:	6465656e 	strbtvs	r6, [r5], #-1390	; 0xfffffa92
    9940:	7274705f 	rsbsvc	r7, r4, #95	; 0x5f
    9944:	66666964 	strbtvs	r6, [r6], -r4, ror #18
    9948:	5f00745f 	svcpl	0x0000745f
    994c:	554e475f 	strbpl	r4, [lr, #-1887]	; 0xfffff8a1
    9950:	4b494c43 	blmi	125ca64 <_Min_Stack_Size+0x125c664>
    9954:	54435f45 	strbpl	r5, [r3], #-3909	; 0xfffff0bb
    9958:	535f524f 	cmppl	pc, #-268435452	; 0xf0000004
    995c:	49544345 	ldmdbmi	r4, {r0, r2, r6, r8, r9, lr}^
    9960:	485f4e4f 	ldmdami	pc, {r0, r1, r2, r3, r6, r9, sl, fp, lr}^	; <UNPREDICTABLE>
    9964:	4c444e41 	mcrrmi	14, 4, r4, r4, cr1
    9968:	20474e49 	subcs	r4, r7, r9, asr #28
    996c:	5f5f0031 	svcpl	0x005f0031
    9970:	6b636f6c 	blvs	18e5728 <_Min_Stack_Size+0x18e5328>
    9974:	656c6261 	strbvs	r6, [ip, #-609]!	; 0xfffffd9f
    9978:	6c5f5f20 	mrrcvs	15, 2, r5, pc, cr0	; <UNPREDICTABLE>
    997c:	5f6b636f 	svcpl	0x006b636f
    9980:	6f6e6e61 	svcvs	0x006e6e61
    9984:	65746174 	ldrbvs	r6, [r4, #-372]!	; 0xfffffe8c
    9988:	636f6c28 	cmnvs	pc, #40, 24	; 0x2800
    998c:	6c62616b 	stfvse	f6, [r2], #-428	; 0xfffffe54
    9990:	5f002965 	svcpl	0x00002965
    9994:	6972705f 	ldmdbvs	r2!, {r0, r1, r2, r3, r4, r6, ip, sp, lr}^
    9998:	6c66746e 	cfstrdvs	mvd7, [r6], #-440	; 0xfffffe48
    999c:	28656b69 	stmdacs	r5!, {r0, r3, r5, r6, r8, r9, fp, sp, lr}^
    99a0:	61746d66 	cmnvs	r4, r6, ror #26
    99a4:	662c6772 			; <UNDEFINED> instruction: 0x662c6772
    99a8:	74737269 	ldrbtvc	r7, [r3], #-617	; 0xfffffd97
    99ac:	61726176 	cmnvs	r2, r6, ror r1
    99b0:	20296772 	eorcs	r6, r9, r2, ror r7
    99b4:	74615f5f 	strbtvc	r5, [r1], #-3935	; 0xfffff0a1
    99b8:	62697274 	rsbvs	r7, r9, #116, 4	; 0x40000007
    99bc:	5f657475 	svcpl	0x00657475
    99c0:	5f28285f 	svcpl	0x0028285f
    99c4:	726f665f 	rsbvc	r6, pc, #99614720	; 0x5f00000
    99c8:	5f74616d 	svcpl	0x0074616d
    99cc:	5f28205f 	svcpl	0x0028205f
    99d0:	6972705f 	ldmdbvs	r2!, {r0, r1, r2, r3, r4, r6, ip, sp, lr}^
    99d4:	5f66746e 	svcpl	0x0066746e
    99d8:	66202c5f 			; <UNDEFINED> instruction: 0x66202c5f
    99dc:	7261746d 	rsbvc	r7, r1, #1828716544	; 0x6d000000
    99e0:	66202c67 	strtvs	r2, [r0], -r7, ror #24
    99e4:	74737269 	ldrbtvc	r7, [r3], #-617	; 0xfffffd97
    99e8:	61726176 	cmnvs	r2, r6, ror r1
    99ec:	29296772 	stmdbcs	r9!, {r1, r4, r5, r6, r8, r9, sl, sp, lr}
    99f0:	504b0029 	subpl	r0, fp, r9, lsr #32
    99f4:	4f525f44 	svcmi	0x00525f44
    99f8:	505f3057 	subspl	r3, pc, r7, asr r0	; <UNPREDICTABLE>
    99fc:	47204e49 	strmi	r4, [r0, -r9, asr #28]!
    9a00:	5f4f4950 	svcpl	0x004f4950
    9a04:	5f4e4950 	svcpl	0x004e4950
    9a08:	5f5f0030 	svcpl	0x005f0030
    9a0c:	65727570 	ldrbvs	r7, [r2, #-1392]!	; 0xfffffa90
    9a10:	615f5f20 	cmpvs	pc, r0, lsr #30
    9a14:	69727474 	ldmdbvs	r2!, {r2, r4, r5, r6, sl, ip, sp, lr}^
    9a18:	65747562 	ldrbvs	r7, [r4, #-1378]!	; 0xfffffa9e
    9a1c:	28285f5f 	stmdacs	r8!, {r0, r1, r2, r3, r4, r6, r8, r9, sl, fp, ip, lr}
    9a20:	75705f5f 	ldrbvc	r5, [r0, #-3935]!	; 0xfffff0a1
    9a24:	5f5f6572 	svcpl	0x005f6572
    9a28:	4c002929 			; <UNDEFINED> instruction: 0x4c002929
    9a2c:	495f4443 	ldmdbmi	pc, {r0, r1, r6, sl, lr}^	; <UNPREDICTABLE>
    9a30:	5245544e 	subpl	r5, r5, #1308622848	; 0x4e000000
    9a34:	45434146 	strbmi	r4, [r3, #-326]	; 0xfffffeba
    9a38:	205f485f 	subscs	r4, pc, pc, asr r8	; <UNPREDICTABLE>
    9a3c:	705f5f00 	subsvc	r5, pc, r0, lsl #30
    9a40:	75675f74 	strbvc	r5, [r7, #-3956]!	; 0xfffff08c
    9a44:	65647261 	strbvs	r7, [r4, #-609]!	; 0xfffffd9f
    9a48:	79625f64 	stmdbvc	r2!, {r2, r5, r6, r8, r9, sl, fp, ip, lr}^
    9a4c:	20297828 	eorcs	r7, r9, r8, lsr #16
    9a50:	6f6c5f5f 	svcvs	0x006c5f5f
    9a54:	615f6b63 	cmpvs	pc, r3, ror #22
    9a58:	746f6e6e 	strbtvc	r6, [pc], #-3694	; 9a60 <_Min_Stack_Size+0x9660>
    9a5c:	28657461 	stmdacs	r5!, {r0, r5, r6, sl, ip, sp, lr}^
    9a60:	675f7470 			; <UNDEFINED> instruction: 0x675f7470
    9a64:	64726175 	ldrbtvs	r6, [r2], #-373	; 0xfffffe8b
    9a68:	625f6465 	subsvs	r6, pc, #1694498816	; 0x65000000
    9a6c:	29782879 	ldmdbcs	r8!, {r0, r3, r4, r5, r6, fp, sp}^
    9a70:	5f5f0029 	svcpl	0x005f0029
    9a74:	72617567 	rsbvc	r7, r1, #432013312	; 0x19c00000
    9a78:	5f646564 	svcpl	0x00646564
    9a7c:	78287962 	stmdavc	r8!, {r1, r5, r6, r8, fp, ip, sp, lr}
    9a80:	5f5f2029 	svcpl	0x005f2029
    9a84:	6b636f6c 	blvs	18e583c <_Min_Stack_Size+0x18e543c>
    9a88:	6e6e615f 	mcrvs	1, 3, r6, cr14, cr15, {2}
    9a8c:	7461746f 	strbtvc	r7, [r1], #-1135	; 0xfffffb91
    9a90:	75672865 	strbvc	r2, [r7, #-2149]!	; 0xfffff79b
    9a94:	65647261 	strbvs	r7, [r4, #-609]!	; 0xfffffd9f
    9a98:	79625f64 	stmdbvc	r2!, {r2, r5, r6, r8, r9, sl, fp, ip, lr}^
    9a9c:	29297828 	stmdbcs	r9!, {r3, r5, fp, ip, sp, lr}
    9aa0:	44434c00 	strbmi	r4, [r3], #-3072	; 0xfffff400
    9aa4:	5f57525f 	svcpl	0x0057525f
    9aa8:	204e4950 	subcs	r4, lr, r0, asr r9
    9aac:	4f495047 	svcmi	0x00495047
    9ab0:	4e49505f 	mcrmi	0, 2, r5, cr9, cr15, {2}
    9ab4:	5f00395f 	svcpl	0x0000395f
    9ab8:	6d79735f 	ldclvs	3, cr7, [r9, #-380]!	; 0xfffffe84
    9abc:	6d6f635f 	stclvs	3, cr6, [pc, #-380]!	; 9948 <_Min_Stack_Size+0x9548>
    9ac0:	28746170 	ldmdacs	r4!, {r4, r5, r6, r8, sp, lr}^
    9ac4:	2c6d7973 			; <UNDEFINED> instruction: 0x2c6d7973
    9ac8:	6c706d69 	ldclvs	13, cr6, [r0], #-420	; 0xfffffe5c
    9acc:	7265762c 	rsbvc	r7, r5, #44, 12	; 0x2c00000
    9ad0:	20296469 	eorcs	r6, r9, r9, ror #8
    9ad4:	73615f5f 	cmnvc	r1, #380	; 0x17c
    9ad8:	285f5f6d 	ldmdacs	pc, {r0, r2, r3, r5, r6, r8, r9, sl, fp, ip, lr}^	; <UNPREDICTABLE>
    9adc:	79732e22 	ldmdbvc	r3!, {r1, r5, r9, sl, fp, sp}^
    9ae0:	7265766d 	rsbvc	r7, r5, #114294784	; 0x6d00000
    9ae4:	23202220 			; <UNDEFINED> instruction: 0x23202220
    9ae8:	6c706d69 	ldclvs	13, cr6, [r0], #-420	; 0xfffffe5c
    9aec:	202c2220 	eorcs	r2, ip, r0, lsr #4
    9af0:	73232022 			; <UNDEFINED> instruction: 0x73232022
    9af4:	22206d79 	eorcs	r6, r0, #7744	; 0x1e40
    9af8:	23202240 			; <UNDEFINED> instruction: 0x23202240
    9afc:	69726576 	ldmdbvs	r2!, {r1, r2, r4, r5, r6, r8, sl, sp, lr}^
    9b00:	5f002964 	svcpl	0x00002964
    9b04:	5f43435f 	svcpl	0x0043435f
    9b08:	50505553 	subspl	r5, r0, r3, asr r5
    9b0c:	5354524f 	cmppl	r4, #-268435452	; 0xf0000004
    9b10:	495f5f5f 	ldmdbmi	pc, {r0, r1, r2, r3, r4, r6, r8, r9, sl, fp, ip, lr}^	; <UNPREDICTABLE>
    9b14:	4e494c4e 	cdpmi	12, 4, cr4, cr9, cr14, {2}
    9b18:	205f5f45 	subscs	r5, pc, r5, asr #30
    9b1c:	5f5f0031 	svcpl	0x005f0031
    9b20:	74736166 	ldrbtvc	r6, [r3], #-358	; 0xfffffe9a
    9b24:	6c6c6163 	stfvse	f6, [ip], #-396	; 0xfffffe74
    9b28:	615f5f20 	cmpvs	pc, r0, lsr #30
    9b2c:	69727474 	ldmdbvs	r2!, {r2, r4, r5, r6, sl, ip, sp, lr}^
    9b30:	65747562 	ldrbvs	r7, [r4, #-1378]!	; 0xfffffa9e
    9b34:	28285f5f 	stmdacs	r8!, {r0, r1, r2, r3, r4, r6, r8, r9, sl, fp, ip, lr}
    9b38:	61665f5f 	cmnvs	r6, pc, asr pc
    9b3c:	61637473 	smcvs	14147	; 0x3743
    9b40:	5f5f6c6c 	svcpl	0x005f6c6c
    9b44:	5f002929 	svcpl	0x00002929
    9b48:	636f6c5f 	cmnvs	pc, #24320	; 0x5f00
    9b4c:	6e615f6b 	cdpvs	15, 6, cr5, cr1, cr11, {3}
    9b50:	61746f6e 	cmnvs	r4, lr, ror #30
    9b54:	78286574 	stmdavc	r8!, {r2, r4, r5, r6, r8, sl, sp, lr}
    9b58:	5f002029 	svcpl	0x00002029
    9b5c:	4554494c 	ldrbmi	r4, [r4, #-2380]	; 0xfffff6b4
    9b60:	4958455f 	ldmdbmi	r8, {r0, r1, r2, r3, r4, r6, r8, sl, lr}^
    9b64:	00312054 	eorseq	r2, r1, r4, asr r0
    9b68:	5454415f 	ldrbpl	r4, [r4], #-351	; 0xfffffea1
    9b6c:	55424952 	strbpl	r4, [r2, #-2386]	; 0xfffff6ae
    9b70:	61284554 			; <UNDEFINED> instruction: 0x61284554
    9b74:	73727474 	cmnvc	r2, #116, 8	; 0x74000000
    9b78:	5f5f2029 	svcpl	0x005f2029
    9b7c:	72747461 	rsbsvc	r7, r4, #1627389952	; 0x61000000
    9b80:	74756269 	ldrbtvc	r6, [r5], #-617	; 0xfffffd97
    9b84:	205f5f65 	subscs	r5, pc, r5, ror #30
    9b88:	74746128 	ldrbtvc	r6, [r4], #-296	; 0xfffffed8
    9b8c:	00297372 	eoreq	r7, r9, r2, ror r3
    9b90:	54415f5f 	strbpl	r5, [r1], #-3935	; 0xfffff0a1
    9b94:	42495254 	submi	r5, r9, #84, 4	; 0x40000005
    9b98:	5f455455 	svcpl	0x00455455
    9b9c:	55504d49 	ldrbpl	r4, [r0, #-3401]	; 0xfffff2b7
    9ba0:	505f4552 	subspl	r4, pc, r2, asr r5	; <UNPREDICTABLE>
    9ba4:	5f5f5254 	svcpl	0x005f5254
    9ba8:	525f0020 	subspl	r0, pc, #32
    9bac:	544e4545 	strbpl	r4, [lr], #-1349	; 0xfffffabb
    9bb0:	4548435f 	strbmi	r4, [r8, #-863]	; 0xfffffca1
    9bb4:	525f4b43 	subspl	r4, pc, #68608	; 0x10c00
    9bb8:	34444e41 	strbcc	r4, [r4], #-3649	; 0xfffff1bf
    9bbc:	61762838 	cmnvs	r6, r8, lsr r8
    9bc0:	5f202972 	svcpl	0x00202972
    9bc4:	4e454552 	mcrmi	5, 2, r4, cr5, cr2, {2}
    9bc8:	48435f54 	stmdami	r3, {r2, r4, r6, r8, r9, sl, fp, ip, lr}^
    9bcc:	284b4345 	stmdacs	fp, {r0, r2, r6, r8, r9, lr}^
    9bd0:	2c726176 	ldfcse	f6, [r2], #-472	; 0xfffffe28
    9bd4:	34725f20 	ldrbtcc	r5, [r2], #-3872	; 0xfffff0e0
    9bd8:	73202c38 			; <UNDEFINED> instruction: 0x73202c38
    9bdc:	63757274 	cmnvs	r5, #116, 4	; 0x40000007
    9be0:	725f2074 	subsvc	r2, pc, #116	; 0x74
    9be4:	34646e61 	strbtcc	r6, [r4], #-3681	; 0xfffff19f
    9be8:	2c2a2038 	stccs	0, cr2, [sl], #-224	; 0xffffff20
    9bec:	7a697320 	bvc	1a66874 <_Min_Stack_Size+0x1a66474>
    9bf0:	20666f65 	rsbcs	r6, r6, r5, ror #30
    9bf4:	7628282a 	strtvc	r2, [r8], -sl, lsr #16
    9bf8:	2d297261 	sfmcs	f7, 4, [r9, #-388]!	; 0xfffffe7c
    9bfc:	34725f3e 	ldrbtcc	r5, [r2], #-3902	; 0xfffff0c2
    9c00:	202c2938 	eorcs	r2, ip, r8, lsr r9
    9c04:	4545525f 	strbmi	r5, [r5, #-607]	; 0xfffffda1
    9c08:	495f544e 	ldmdbmi	pc, {r1, r2, r3, r6, sl, ip, lr}^	; <UNPREDICTABLE>
    9c0c:	5f54494e 	svcpl	0x0054494e
    9c10:	444e4152 	strbmi	r4, [lr], #-338	; 0xfffffeae
    9c14:	28283834 	stmdacs	r8!, {r2, r4, r5, fp, ip, sp}
    9c18:	29726176 	ldmdbcs	r2!, {r1, r2, r4, r5, r6, r8, sp, lr}^
    9c1c:	5f002929 	svcpl	0x00002929
    9c20:	41544552 	cmpmi	r4, r2, asr r5
    9c24:	54454752 	strbpl	r4, [r5], #-1874	; 0xfffff8ae
    9c28:	454c4241 	strbmi	r4, [ip, #-577]	; 0xfffffdbf
    9c2c:	434f4c5f 	movtmi	r4, #64607	; 0xfc5f
    9c30:	474e494b 	strbmi	r4, [lr, -fp, asr #18]
    9c34:	4e003120 	adfmisp	f3, f0, f0
    9c38:	204c4c55 	subcs	r4, ip, r5, asr ip
    9c3c:	6f762828 	svcvs	0x00762828
    9c40:	2a206469 	bcs	822dec <_Min_Stack_Size+0x8229ec>
    9c44:	00293029 	eoreq	r3, r9, r9, lsr #32
    9c48:	4c554e5f 	mrrcmi	14, 5, r4, r5, cr15
    9c4c:	0030204c 	eorseq	r2, r0, ip, asr #32
    9c50:	52554f46 	subspl	r4, r5, #280	; 0x118
    9c54:	5449425f 	strbpl	r4, [r9], #-607	; 0xfffffda1
    9c58:	444f4d5f 	strbmi	r4, [pc], #-3423	; 9c60 <_Min_Stack_Size+0x9860>
    9c5c:	00302045 	eorseq	r2, r0, r5, asr #32
    9c60:	6e75665f 	mrcvs	6, 3, r6, cr5, cr15, {2}
    9c64:	6b636f6c 	blvs	18e5a1c <_Min_Stack_Size+0x18e561c>
    9c68:	656c6966 	strbvs	r6, [ip, #-2406]!	; 0xfffff69a
    9c6c:	29706628 	ldmdbcs	r0!, {r3, r5, r9, sl, sp, lr}^
    9c70:	28282820 	stmdacs	r8!, {r5, fp, sp}
    9c74:	2d297066 	stccs	0, cr7, [r9, #-408]!	; 0xfffffe68
    9c78:	6c665f3e 	stclvs	15, cr5, [r6], #-248	; 0xffffff08
    9c7c:	20736761 	rsbscs	r6, r3, r1, ror #14
    9c80:	5f5f2026 	svcpl	0x005f2026
    9c84:	52545353 	subspl	r5, r4, #1275068417	; 0x4c000001
    9c88:	203f2029 	eorscs	r2, pc, r9, lsr #32
    9c8c:	203a2030 	eorscs	r2, sl, r0, lsr r0
    9c90:	6f6c5f5f 	svcvs	0x006c5f5f
    9c94:	725f6b63 	subsvc	r6, pc, #101376	; 0x18c00
    9c98:	61656c65 	cmnvs	r5, r5, ror #24
    9c9c:	725f6573 	subsvc	r6, pc, #482344960	; 0x1cc00000
    9ca0:	72756365 	rsbsvc	r6, r5, #-1811939327	; 0x94000001
    9ca4:	65766973 	ldrbvs	r6, [r6, #-2419]!	; 0xfffff68d
    9ca8:	70662828 	rsbvc	r2, r6, r8, lsr #16
    9cac:	5f3e2d29 	svcpl	0x003e2d29
    9cb0:	6b636f6c 	blvs	18e5a68 <_Min_Stack_Size+0x18e5668>
    9cb4:	5f002929 	svcpl	0x00002929
    9cb8:	6566735f 	strbvs	r7, [r6, #-863]!	; 0xfffffca1
    9cbc:	726f7272 	rsbvc	r7, pc, #536870919	; 0x20000007
    9cc0:	20297028 	eorcs	r7, r9, r8, lsr #32
    9cc4:	6e692828 	cdpvs	8, 6, cr2, cr9, cr8, {1}
    9cc8:	28282974 	stmdacs	r8!, {r2, r4, r5, r6, r8, fp, sp}
    9ccc:	2d297028 	stccs	0, cr7, [r9, #-160]!	; 0xffffff60
    9cd0:	6c665f3e 	stclvs	15, cr5, [r6], #-248	; 0xffffff08
    9cd4:	20736761 	rsbscs	r6, r3, r1, ror #14
    9cd8:	5f5f2026 	svcpl	0x005f2026
    9cdc:	52524553 	subspl	r4, r2, #348127232	; 0x14c00000
    9ce0:	3d212029 	stccc	0, cr2, [r1, #-164]!	; 0xffffff5c
    9ce4:	29293020 	stmdbcs	r9!, {r5, ip, sp}
    9ce8:	665f5f00 	ldrbvs	r5, [pc], -r0, lsl #30
    9cec:	6178656c 	cmnvs	r8, ip, ror #10
    9cf0:	5b207272 	blpl	8266c0 <_Min_Stack_Size+0x8262c0>
    9cf4:	5f005d30 	svcpl	0x00005d30
    9cf8:	41484357 	cmpmi	r8, r7, asr r3
    9cfc:	5f545f52 	svcpl	0x00545f52
    9d00:	49464544 	stmdbmi	r6, {r2, r6, r8, sl, lr}^
    9d04:	2044454e 	subcs	r4, r4, lr, asr #10
    9d08:	45525f00 	ldrbmi	r5, [r2, #-3840]	; 0xfffff100
    9d0c:	5f544e45 	svcpl	0x00544e45
    9d10:	43454843 	movtmi	r4, #22595	; 0x5843
    9d14:	45565f4b 	ldrbmi	r5, [r6, #-3915]	; 0xfffff0b5
    9d18:	59464952 	stmdbpl	r6, {r1, r4, r6, r8, fp, lr}^
    9d1c:	46003120 	strmi	r3, [r0], -r0, lsr #2
    9d20:	5550435f 	ldrbpl	r4, [r0, #-863]	; 0xfffffca1
    9d24:	30303820 	eorscc	r3, r0, r0, lsr #16
    9d28:	30303030 	eorscc	r3, r0, r0, lsr r0
    9d2c:	5f004c55 	svcpl	0x00004c55
    9d30:	5645445f 			; <UNDEFINED> instruction: 0x5645445f
    9d34:	54414c4f 	strbpl	r4, [r1], #-3151	; 0xfffff3b1
    9d38:	28454c49 	stmdacs	r5, {r0, r3, r6, sl, fp, lr}^
    9d3c:	65707974 	ldrbvs	r7, [r0, #-2420]!	; 0xfffff68c
    9d40:	7261762c 	rsbvc	r7, r1, #44, 12	; 0x2c00000
    9d44:	28282029 	stmdacs	r8!, {r0, r3, r5, sp}
    9d48:	65707974 	ldrbvs	r7, [r0, #-2420]!	; 0xfffff68c
    9d4c:	5f5f2829 	svcpl	0x005f2829
    9d50:	746e6975 	strbtvc	r6, [lr], #-2421	; 0xfffff68b
    9d54:	5f727470 	svcpl	0x00727470
    9d58:	76282974 			; <UNDEFINED> instruction: 0x76282974
    9d5c:	74616c6f 	strbtvc	r6, [r1], #-3183	; 0xfffff391
    9d60:	20656c69 	rsbcs	r6, r5, r9, ror #24
    9d64:	64696f76 	strbtvs	r6, [r9], #-3958	; 0xfffff08a
    9d68:	28292a20 	stmdacs	r9!, {r5, r9, fp, sp}
    9d6c:	29726176 	ldmdbcs	r2!, {r1, r2, r4, r5, r6, r8, sp, lr}^
    9d70:	434c0029 	movtmi	r0, #49193	; 0xc029
    9d74:	4f4d5f44 	svcmi	0x004d5f44
    9d78:	435f4556 	cmpmi	pc, #360710144	; 0x15800000
    9d7c:	4f535255 	svcmi	0x00535255
    9d80:	49525f52 	ldmdbmi	r2, {r1, r4, r6, r8, r9, sl, fp, ip, lr}^
    9d84:	20544847 	subscs	r4, r4, r7, asr #16
    9d88:	31783028 	cmncc	r8, r8, lsr #32
    9d8c:	5f002934 	svcpl	0x00002934
    9d90:	4843575f 	stmdami	r3, {r0, r1, r2, r3, r4, r6, r8, r9, sl, ip, lr}^
    9d94:	545f5241 	ldrbpl	r5, [pc], #-577	; 9d9c <_Min_Stack_Size+0x999c>
    9d98:	00205f5f 	eoreq	r5, r0, pc, asr pc
    9d9c:	4e475f5f 	mcrmi	15, 2, r5, cr7, cr15, {2}
    9da0:	494c4355 	stmdbmi	ip, {r0, r2, r4, r6, r8, r9, lr}^
    9da4:	425f454b 	subsmi	r4, pc, #314572800	; 0x12c00000
    9da8:	544c4955 	strbpl	r4, [ip], #-2389	; 0xfffff6ab
    9dac:	535f4e49 	cmppl	pc, #1168	; 0x490
    9db0:	52414454 	subpl	r4, r1, #84, 8	; 0x54000000
    9db4:	00312047 	eorseq	r2, r1, r7, asr #32
    9db8:	6f6e5f5f 	svcvs	0x006e5f5f
    9dbc:	636f6c5f 	cmnvs	pc, #24320	; 0x5f00
    9dc0:	6e615f6b 	cdpvs	15, 6, cr5, cr1, cr11, {3}
    9dc4:	73796c61 	cmnvc	r9, #24832	; 0x6100
    9dc8:	5f207369 	svcpl	0x00207369
    9dcc:	636f6c5f 	cmnvs	pc, #24320	; 0x5f00
    9dd0:	6e615f6b 	cdpvs	15, 6, cr5, cr1, cr11, {3}
    9dd4:	61746f6e 	cmnvs	r4, lr, ror #30
    9dd8:	6e286574 	mcrvs	5, 1, r6, cr8, cr4, {3}
    9ddc:	68745f6f 	ldmdavs	r4!, {r0, r1, r2, r3, r5, r6, r8, r9, sl, fp, ip, lr}^
    9de0:	64616572 	strbtvs	r6, [r1], #-1394	; 0xfffffa8e
    9de4:	6661735f 			; <UNDEFINED> instruction: 0x6661735f
    9de8:	5f797465 	svcpl	0x00797465
    9dec:	6c616e61 	stclvs	14, cr6, [r1], #-388	; 0xfffffe7c
    9df0:	73697379 	cmnvc	r9, #-469762047	; 0xe4000001
    9df4:	525f0029 	subspl	r0, pc, #41	; 0x29
    9df8:	544e4545 	strbpl	r4, [lr], #-1349	; 0xfffffabb
    9dfc:	5f53495f 	svcpl	0x0053495f
    9e00:	4c4c554e 	cfstr64mi	mvdx5, [ip], {78}	; 0x4e
    9e04:	74705f28 	ldrbtvc	r5, [r0], #-3880	; 0xfffff0d8
    9e08:	28202972 	stmdacs	r0!, {r1, r4, r5, r6, r8, fp, sp}
    9e0c:	74705f28 	ldrbtvc	r5, [r0], #-3880	; 0xfffff0d8
    9e10:	3d202972 			; <UNDEFINED> instruction: 0x3d202972
    9e14:	554e203d 	strbpl	r2, [lr, #-61]	; 0xffffffc3
    9e18:	00294c4c 	eoreq	r4, r9, ip, asr #24
    9e1c:	4545525f 	strbmi	r5, [r5, #-607]	; 0xfffffda1
    9e20:	4d5f544e 	cfldrdmi	mvd5, [pc, #-312]	; 9cf0 <_Min_Stack_Size+0x98f0>
    9e24:	54525342 	ldrbpl	r5, [r2], #-834	; 0xfffffcbe
    9e28:	5343574f 	movtpl	r5, #14159	; 0x374f
    9e2c:	4154535f 	cmpmi	r4, pc, asr r3
    9e30:	70284554 	eorvc	r4, r8, r4, asr r5
    9e34:	20297274 	eorcs	r7, r9, r4, ror r2
    9e38:	74702828 	ldrbtvc	r2, [r0], #-2088	; 0xfffff7d8
    9e3c:	3e2d2972 			; <UNDEFINED> instruction: 0x3e2d2972
    9e40:	73696d5f 	cmnvc	r9, #6080	; 0x17c0
    9e44:	5f3e2d63 	svcpl	0x003e2d63
    9e48:	7273626d 	rsbsvc	r6, r3, #-805306362	; 0xd0000006
    9e4c:	63776f74 	cmnvs	r7, #116, 30	; 0x1d0
    9e50:	74735f73 	ldrbtvc	r5, [r3], #-3955	; 0xfffff08d
    9e54:	29657461 	stmdbcs	r5!, {r0, r5, r6, sl, ip, sp, lr}^
    9e58:	45525f00 	ldrbmi	r5, [r2, #-3840]	; 0xfffff100
    9e5c:	5f544e45 	svcpl	0x00544e45
    9e60:	54494e49 	strbpl	r4, [r9], #-3657	; 0xfffff1b7
    9e64:	5345525f 	movtpl	r5, #21087	; 0x525f
    9e68:	45565245 	ldrbmi	r5, [r6, #-581]	; 0xfffffdbb
    9e6c:	20325f44 	eorscs	r5, r2, r4, asr #30
    9e70:	44434c00 	strbmi	r4, [r3], #-3072	; 0xfffff400
    9e74:	564f4d5f 			; <UNDEFINED> instruction: 0x564f4d5f
    9e78:	49445f45 	stmdbmi	r4, {r0, r2, r6, r8, r9, sl, fp, ip, lr}^
    9e7c:	4c5f5053 	mrrcmi	0, 5, r5, pc, cr3	; <UNPREDICTABLE>
    9e80:	20544645 	subscs	r4, r4, r5, asr #12
    9e84:	31783028 	cmncc	r8, r8, lsr #32
    9e88:	5f002938 	svcpl	0x00002938
    9e8c:	4b434f4c 	blmi	10ddbc4 <_Min_Stack_Size+0x10dd7c4>
    9e90:	4345525f 	movtmi	r5, #21087	; 0x525f
    9e94:	49535255 	ldmdbmi	r3, {r0, r2, r4, r6, r9, ip, lr}^
    9e98:	545f4556 	ldrbpl	r4, [pc], #-1366	; 9ea0 <_Min_Stack_Size+0x9aa0>
    9e9c:	4f4c5f20 	svcmi	0x004c5f20
    9ea0:	545f4b43 	ldrbpl	r4, [pc], #-2883	; 9ea8 <_Min_Stack_Size+0x9aa8>
    9ea4:	735f5f00 	cmpvc	pc, #0, 30
    9ea8:	6e6f7274 	mcrvs	2, 3, r7, cr15, cr4, {3}
    9eac:	65725f67 	ldrbvs	r5, [r2, #-3943]!	; 0xfffff099
    9eb0:	65726566 	ldrbvs	r6, [r2, #-1382]!	; 0xfffffa9a
    9eb4:	2865636e 	stmdacs	r5!, {r1, r2, r3, r5, r6, r8, r9, sp, lr}^
    9eb8:	2c6d7973 			; <UNDEFINED> instruction: 0x2c6d7973
    9ebc:	61696c61 	cmnvs	r9, r1, ror #24
    9ec0:	6d797373 	ldclvs	3, cr7, [r9, #-460]!	; 0xfffffe34
    9ec4:	78652029 	stmdavc	r5!, {r0, r3, r5, sp}^
    9ec8:	6e726574 	mrcvs	5, 3, r6, cr2, cr4, {3}
    9ecc:	745f5f20 	ldrbvc	r5, [pc], #-3872	; 9ed4 <_Min_Stack_Size+0x9ad4>
    9ed0:	6f657079 	svcvs	0x00657079
    9ed4:	73282066 			; <UNDEFINED> instruction: 0x73282066
    9ed8:	20296d79 	eorcs	r6, r9, r9, ror sp
    9edc:	61696c61 	cmnvs	r9, r1, ror #24
    9ee0:	6d797373 	ldclvs	3, cr7, [r9, #-460]!	; 0xfffffe34
    9ee4:	615f5f20 	cmpvs	pc, r0, lsr #30
    9ee8:	69727474 	ldmdbvs	r2!, {r2, r4, r5, r6, sl, ip, sp, lr}^
    9eec:	65747562 	ldrbvs	r7, [r4, #-1378]!	; 0xfffffa9e
    9ef0:	28205f5f 	stmdacs	r0!, {r0, r1, r2, r3, r4, r6, r8, r9, sl, fp, ip, lr}
    9ef4:	615f5f28 	cmpvs	pc, r8, lsr #30
    9ef8:	7361696c 	cmnvc	r1, #108, 18	; 0x1b0000
    9efc:	28205f5f 	stmdacs	r0!, {r0, r1, r2, r3, r4, r6, r8, r9, sl, fp, ip, lr}
    9f00:	6d797323 	ldclvs	3, cr7, [r9, #-140]!	; 0xffffff74
    9f04:	00292929 	eoreq	r2, r9, r9, lsr #18
    9f08:	43414d5f 	movtmi	r4, #7519	; 0x1d5f
    9f0c:	454e4948 	strbmi	r4, [lr, #-2376]	; 0xfffff6b8
    9f10:	45445f5f 	strbmi	r5, [r4, #-3935]	; 0xfffff0a1
    9f14:	4c554146 	ldfmie	f4, [r5], {70}	; 0x46
    9f18:	59545f54 	ldmdbpl	r4, {r2, r4, r6, r8, r9, sl, fp, ip, lr}^
    9f1c:	5f534550 	svcpl	0x00534550
    9f20:	5f002048 	svcpl	0x00002048
    9f24:	6567735f 	strbvs	r7, [r7, #-863]!	; 0xfffffca1
    9f28:	725f6374 	subsvc	r6, pc, #116, 6	; 0xd0000001
    9f2c:	725f7761 	subsvc	r7, pc, #25427968	; 0x1840000
    9f30:	705f5f28 	subsvc	r5, pc, r8, lsr #30
    9f34:	5f2c7274 	svcpl	0x002c7274
    9f38:	2029665f 	eorcs	r6, r9, pc, asr r6
    9f3c:	282d2d28 	stmdacs	sp!, {r3, r5, r8, sl, fp, sp}
    9f40:	29665f5f 	stmdbcs	r6!, {r0, r1, r2, r3, r4, r6, r8, r9, sl, fp, ip, lr}^
    9f44:	725f3e2d 	subsvc	r3, pc, #720	; 0x2d0
    9f48:	30203c20 	eorcc	r3, r0, r0, lsr #24
    9f4c:	5f203f20 	svcpl	0x00203f20
    9f50:	6772735f 			; <UNDEFINED> instruction: 0x6772735f
    9f54:	725f7465 	subsvc	r7, pc, #1694498816	; 0x65000000
    9f58:	705f5f28 	subsvc	r5, pc, r8, lsr #30
    9f5c:	202c7274 	eorcs	r7, ip, r4, ror r2
    9f60:	29665f5f 	stmdbcs	r6!, {r0, r1, r2, r3, r4, r6, r8, r9, sl, fp, ip, lr}^
    9f64:	28203a20 	stmdacs	r0!, {r5, r9, fp, ip, sp}
    9f68:	29746e69 	ldmdbcs	r4!, {r0, r3, r5, r6, r9, sl, fp, sp, lr}^
    9f6c:	5f282a28 	svcpl	0x00282a28
    9f70:	2d29665f 	stccs	6, cr6, [r9, #-380]!	; 0xfffffe84
    9f74:	2b705f3e 	blcs	1c21c74 <_Min_Stack_Size+0x1c21874>
    9f78:	0029292b 	eoreq	r2, r9, fp, lsr #18
    9f7c:	63735f5f 	cmnvs	r3, #380	; 0x17c
    9f80:	6c666e61 	stclvs	14, cr6, [r6], #-388	; 0xfffffe7c
    9f84:	28656b69 	stmdacs	r5!, {r0, r3, r5, r6, r8, r9, fp, sp, lr}^
    9f88:	61746d66 	cmnvs	r4, r6, ror #26
    9f8c:	662c6772 			; <UNDEFINED> instruction: 0x662c6772
    9f90:	74737269 	ldrbtvc	r7, [r3], #-617	; 0xfffffd97
    9f94:	61726176 	cmnvs	r2, r6, ror r1
    9f98:	20296772 	eorcs	r6, r9, r2, ror r7
    9f9c:	74615f5f 	strbtvc	r5, [r1], #-3935	; 0xfffff0a1
    9fa0:	62697274 	rsbvs	r7, r9, #116, 4	; 0x40000007
    9fa4:	5f657475 	svcpl	0x00657475
    9fa8:	5f28285f 	svcpl	0x0028285f
    9fac:	726f665f 	rsbvc	r6, pc, #99614720	; 0x5f00000
    9fb0:	5f74616d 	svcpl	0x0074616d
    9fb4:	5f28205f 	svcpl	0x0028205f
    9fb8:	6163735f 	cmnvs	r3, pc, asr r3
    9fbc:	5f5f666e 	svcpl	0x005f666e
    9fc0:	6d66202c 	stclvs	0, cr2, [r6, #-176]!	; 0xffffff50
    9fc4:	67726174 			; <UNDEFINED> instruction: 0x67726174
    9fc8:	6966202c 	stmdbvs	r6!, {r2, r3, r5, sp}^
    9fcc:	76747372 			; <UNDEFINED> instruction: 0x76747372
    9fd0:	72617261 	rsbvc	r7, r1, #268435462	; 0x10000006
    9fd4:	29292967 	stmdbcs	r9!, {r0, r1, r2, r5, r6, r8, fp, sp}
    9fd8:	59535f00 	ldmdbpl	r3, {r8, r9, sl, fp, ip, lr}^
    9fdc:	545f5f53 	ldrbpl	r5, [pc], #-3923	; 9fe4 <_Min_Stack_Size+0x9be4>
    9fe0:	53455059 	movtpl	r5, #20569	; 0x5059
    9fe4:	0020485f 	eoreq	r4, r0, pc, asr r8
    9fe8:	4e41525f 	mcrmi	2, 2, r5, cr1, cr15, {2}
    9fec:	5f383444 	svcpl	0x00383444
    9ff0:	544c554d 	strbpl	r5, [ip], #-1357	; 0xfffffab3
    9ff4:	2820305f 	stmdacs	r0!, {r0, r1, r2, r3, r4, r6, ip, sp}
    9ff8:	36657830 			; <UNDEFINED> instruction: 0x36657830
    9ffc:	00296436 	eoreq	r6, r9, r6, lsr r4
    a000:	4545525f 	strbmi	r5, [r5, #-607]	; 0xfffffda1
    a004:	435f544e 	cmpmi	pc, #1308622848	; 0x4e000000
    a008:	55425456 	strbpl	r5, [r2, #-1110]	; 0xfffffbaa
    a00c:	705f2846 	subsvc	r2, pc, r6, asr #16
    a010:	20297274 	eorcs	r7, r9, r4, ror r2
    a014:	705f2828 	subsvc	r2, pc, r8, lsr #16
    a018:	2d297274 	sfmcs	f7, 4, [r9, #-464]!	; 0xfffffe30
    a01c:	76635f3e 	uqasxvc	r5, r3, lr
    a020:	66756274 			; <UNDEFINED> instruction: 0x66756274
    a024:	5f5f0029 	svcpl	0x005f0029
    a028:	43554e47 	cmpmi	r5, #1136	; 0x470
    a02c:	454b494c 	strbmi	r4, [fp, #-2380]	; 0xfffff6b4
    a030:	4955425f 	ldmdbmi	r5, {r0, r1, r2, r3, r4, r6, r9, lr}^
    a034:	4e49544c 	cdpmi	4, 4, cr5, cr9, cr12, {2}
    a038:	4141565f 	cmpmi	r1, pc, asr r6
    a03c:	5453494c 	ldrbpl	r4, [r3], #-2380	; 0xfffff6b4
    a040:	5f003120 	svcpl	0x00003120
    a044:	7274705f 	rsbsvc	r7, r4, #95	; 0x5f
    a048:	7620745f 			; <UNDEFINED> instruction: 0x7620745f
    a04c:	2064696f 	rsbcs	r6, r4, pc, ror #18
    a050:	445f002a 	ldrbmi	r0, [pc], #-42	; a058 <_Min_Stack_Size+0x9c58>
    a054:	55414645 	strbpl	r4, [r1, #-1605]	; 0xfffff9bb
    a058:	535f544c 	cmppl	pc, #76, 8	; 0x4c000000
    a05c:	4352554f 	cmpmi	r2, #331350016	; 0x13c00000
    a060:	475f0045 	ldrbmi	r0, [pc, -r5, asr #32]
    a064:	535f4343 	cmppl	pc, #201326593	; 0xc000001
    a068:	5f455a49 	svcpl	0x00455a49
    a06c:	5f002054 	svcpl	0x00002054
    a070:	5f43435f 	svcpl	0x0043435f
    a074:	50505553 	subspl	r5, r0, r3, asr r5
    a078:	5354524f 	cmppl	r4, #-268435452	; 0xf0000004
    a07c:	5241575f 	subpl	r5, r1, #24903680	; 0x17c0000
    a080:	474e494e 	strbmi	r4, [lr, -lr, asr #18]
    a084:	5f003120 	svcpl	0x00003120
    a088:	43575f54 	cmpmi	r7, #84, 30	; 0x150
    a08c:	5f524148 	svcpl	0x00524148
    a090:	425f0020 	subsmi	r0, pc, #32
    a094:	575f4453 			; <UNDEFINED> instruction: 0x575f4453
    a098:	52414843 	subpl	r4, r1, #4390912	; 0x430000
    a09c:	005f545f 	subseq	r5, pc, pc, asr r4	; <UNPREDICTABLE>
    a0a0:	42444c5f 	submi	r4, r4, #24320	; 0x5f00
    a0a4:	51455f4c 	cmppl	r5, ip, asr #30
    a0a8:	4c42445f 	cfstrdmi	mvd4, [r2], {95}	; 0x5f
    a0ac:	4c003120 	stfmis	f3, [r0], {32}
    a0b0:	455f4443 	ldrbmi	r4, [pc, #-1091]	; 9c75 <_Min_Stack_Size+0x9875>
    a0b4:	5952544e 	ldmdbpl	r2, {r1, r2, r3, r6, sl, ip, lr}^
    a0b8:	434e495f 	movtmi	r4, #59743	; 0xe95f
    a0bc:	3028205f 	eorcc	r2, r8, pc, asr r0
    a0c0:	29363078 	ldmdbcs	r6!, {r3, r4, r5, r6, ip, sp}
    a0c4:	735f5f00 	cmpvc	pc, #0, 30
    a0c8:	656c6966 	strbvs	r6, [ip, #-2406]!	; 0xfffff69a
    a0cc:	70286f6e 	eorvc	r6, r8, lr, ror #30
    a0d0:	28282029 	stmdacs	r8!, {r0, r3, r5, sp}
    a0d4:	3e2d2970 			; <UNDEFINED> instruction: 0x3e2d2970
    a0d8:	6c69665f 	stclvs	6, cr6, [r9], #-380	; 0xfffffe84
    a0dc:	5f002965 	svcpl	0x00002965
    a0e0:	4e454552 	mcrmi	5, 2, r4, cr5, cr2, {2}
    a0e4:	504d5f54 	subpl	r5, sp, r4, asr pc
    a0e8:	5345525f 	movtpl	r5, #21087	; 0x525f
    a0ec:	28544c55 	ldmdacs	r4, {r0, r2, r4, r6, sl, fp, lr}^
    a0f0:	29727470 	ldmdbcs	r2!, {r4, r5, r6, sl, ip, sp, lr}^
    a0f4:	70282820 	eorvc	r2, r8, r0, lsr #16
    a0f8:	2d297274 	sfmcs	f7, 4, [r9, #-464]!	; 0xfffffe30
    a0fc:	706d5f3e 	rsbvc	r5, sp, lr, lsr pc
    a100:	725f3e2d 	subsvc	r3, pc, #720	; 0x2d0
    a104:	6c757365 	ldclvs	3, cr7, [r5], #-404	; 0xfffffe6c
    a108:	5f002974 	svcpl	0x00002974
    a10c:	6e6f6c5f 	mcrvs	12, 3, r6, cr15, cr15, {2}
    a110:	6f645f67 	svcvs	0x00645f67
    a114:	656c6275 	strbvs	r6, [ip, #-629]!	; 0xfffffd8b
    a118:	6c20745f 	cfstrsvs	mvf7, [r0], #-380	; 0xfffffe84
    a11c:	20676e6f 	rsbcs	r6, r7, pc, ror #28
    a120:	62756f64 	rsbsvs	r6, r5, #100, 30	; 0x190
    a124:	5f00656c 	svcpl	0x0000656c
    a128:	4e454552 	mcrmi	5, 2, r4, cr5, cr2, {2}
    a12c:	4d535f54 	ldclmi	15, cr5, [r3, #-336]	; 0xfffffeb0
    a130:	204c4c41 	subcs	r4, ip, r1, asr #24
    a134:	44434c00 	strbmi	r4, [r3], #-3072	; 0xfffff400
    a138:	5f53525f 	svcpl	0x0053525f
    a13c:	204e4950 	subcs	r4, lr, r0, asr r9
    a140:	4f495047 	svcmi	0x00495047
    a144:	4e49505f 	mcrmi	0, 2, r5, cr9, cr15, {2}
    a148:	4b00385f 	blmi	182cc <_Min_Stack_Size+0x17ecc>
    a14c:	435f4450 	cmpmi	pc, #80, 8	; 0x50000000
    a150:	4d554c4f 	ldclmi	12, cr4, [r5, #-316]	; 0xfffffec4
    a154:	505f314e 	subspl	r3, pc, lr, asr #2
    a158:	47204e49 	strmi	r4, [r0, -r9, asr #28]!
    a15c:	5f4f4950 	svcpl	0x004f4950
    a160:	5f4e4950 	svcpl	0x004e4950
    a164:	5f5f0036 	svcpl	0x005f0036
    a168:	6d726f66 	ldclvs	15, cr6, [r2, #-408]!	; 0xfffffe68
    a16c:	615f7461 	cmpvs	pc, r1, ror #8
    a170:	66286772 			; <UNDEFINED> instruction: 0x66286772
    a174:	7261746d 	rsbvc	r7, r1, #1828716544	; 0x6d000000
    a178:	5f202967 	svcpl	0x00202967
    a17c:	7474615f 	ldrbtvc	r6, [r4], #-351	; 0xfffffea1
    a180:	75626972 	strbvc	r6, [r2, #-2418]!	; 0xfffff68e
    a184:	5f5f6574 	svcpl	0x005f6574
    a188:	5f5f2828 	svcpl	0x005f2828
    a18c:	6d726f66 	ldclvs	15, cr6, [r2, #-408]!	; 0xfffffe68
    a190:	615f7461 	cmpvs	pc, r1, ror #8
    a194:	5f5f6772 	svcpl	0x005f6772
    a198:	6d662820 	stclvs	8, cr2, [r6, #-128]!	; 0xffffff80
    a19c:	67726174 			; <UNDEFINED> instruction: 0x67726174
    a1a0:	00292929 	eoreq	r2, r9, r9, lsr #18
    a1a4:	6f635f5f 	svcvs	0x00635f5f
    a1a8:	6c69706d 	stclvs	0, cr7, [r9], #-436	; 0xfffffe4c
    a1ac:	6d5f7265 	lfmvs	f7, 2, [pc, #-404]	; a020 <_Min_Stack_Size+0x9c20>
    a1b0:	61626d65 	cmnvs	r2, r5, ror #26
    a1b4:	20292872 	eorcs	r2, r9, r2, ror r8
    a1b8:	73615f5f 	cmnvc	r1, #380	; 0x17c
    a1bc:	5f5f206d 	svcpl	0x005f206d
    a1c0:	616c6f76 	smcvs	50934	; 0xc6f6
    a1c4:	656c6974 	strbvs	r6, [ip, #-2420]!	; 0xfffff68c
    a1c8:	22202228 	eorcs	r2, r0, #40, 4	; 0x80000002
    a1cc:	3a203a20 	bcc	818a54 <_Min_Stack_Size+0x818654>
    a1d0:	22203a20 	eorcs	r3, r0, #32, 20	; 0x20000
    a1d4:	6f6d656d 	svcvs	0x006d656d
    a1d8:	29227972 	stmdbcs	r2!, {r1, r4, r5, r6, r8, fp, ip, sp, lr}
    a1dc:	6c5f5f00 	mrrcvs	15, 0, r5, pc, cr0	; <UNPREDICTABLE>
    a1e0:	5f6b636f 	svcpl	0x006b636f
    a1e4:	736f6c63 	cmnvc	pc, #25344	; 0x6300
    a1e8:	6f6c2865 	svcvs	0x006c2865
    a1ec:	20296b63 	eorcs	r6, r9, r3, ror #22
    a1f0:	65725f5f 	ldrbvs	r5, [r2, #-3935]!	; 0xfffff0a1
    a1f4:	67726174 			; <UNDEFINED> instruction: 0x67726174
    a1f8:	6c5f7465 	cfldrdvs	mvd7, [pc], {101}	; 0x65
    a1fc:	5f6b636f 	svcpl	0x006b636f
    a200:	736f6c63 	cmnvc	pc, #25344	; 0x6300
    a204:	6f6c2865 	svcvs	0x006c2865
    a208:	00296b63 	eoreq	r6, r9, r3, ror #22
    a20c:	5f44434c 	svcpl	0x0044434c
    a210:	45564f4d 	ldrbmi	r4, [r6, #-3917]	; 0xfffff0b3
    a214:	5349445f 	movtpl	r4, #37983	; 0x945f
    a218:	49525f50 	ldmdbmi	r2, {r4, r6, r8, r9, sl, fp, ip, lr}^
    a21c:	20544847 	subscs	r4, r4, r7, asr #16
    a220:	31783028 	cmncc	r8, r8, lsr #32
    a224:	5f002943 	svcpl	0x00002943
    a228:	7461645f 	strbtvc	r6, [r1], #-1119	; 0xfffffba1
    a22c:	70797461 	rsbsvc	r7, r9, r1, ror #8
    a230:	79745f65 	ldmdbvc	r4!, {r0, r2, r5, r6, r8, r9, sl, fp, ip, lr}^
    a234:	745f6570 	ldrbvc	r6, [pc], #-1392	; a23c <_Min_Stack_Size+0x9e3c>
    a238:	6b286761 	blvs	a23fc4 <_Min_Stack_Size+0xa23bc4>
    a23c:	2c646e69 	stclcs	14, cr6, [r4], #-420	; 0xfffffe5c
    a240:	65707974 	ldrbvs	r7, [r0, #-2420]!	; 0xfffff68c
    a244:	5f002029 	svcpl	0x00002029
    a248:	65656e5f 	strbvs	r6, [r5, #-3679]!	; 0xfffff1a1
    a24c:	69775f64 	ldmdbvs	r7!, {r2, r5, r6, r8, r9, sl, fp, ip, lr}^
    a250:	745f746e 	ldrbvc	r7, [pc], #-1134	; a258 <_Min_Stack_Size+0x9e58>
    a254:	5f5f0020 	svcpl	0x005f0020
    a258:	54504f53 	ldrbpl	r4, [r0], #-3923	; 0xfffff0ad
    a25c:	30783020 	rsbscc	r3, r8, r0, lsr #32
    a260:	00303034 	eorseq	r3, r0, r4, lsr r0
    a264:	57535f5f 			; <UNDEFINED> instruction: 0x57535f5f
    a268:	78302052 	ldmdavc	r0!, {r1, r4, r6, sp}
    a26c:	38303030 	ldmdacc	r0!, {r4, r5, ip, sp}
    a270:	59535f00 	ldmdbpl	r3, {r8, r9, sl, fp, ip, lr}^
    a274:	44435f53 	strbmi	r5, [r3], #-3923	; 0xfffff0ad
    a278:	5f534645 	svcpl	0x00534645
    a27c:	00205f48 	eoreq	r5, r0, r8, asr #30
    a280:	695f5f5f 	ldmdbvs	pc, {r0, r1, r2, r3, r4, r6, r8, r9, sl, fp, ip, lr}^	; <UNPREDICTABLE>
    a284:	5f38746e 	svcpl	0x0038746e
    a288:	65645f74 	strbvs	r5, [r4, #-3956]!	; 0xfffff08c
    a28c:	656e6966 	strbvs	r6, [lr, #-2406]!	; 0xfffff69a
    a290:	00312064 	eorseq	r2, r1, r4, rrx
    a294:	6f6e5f5f 	svcvs	0x006e5f5f
    a298:	6c756e6e 	ldclvs	14, cr6, [r5], #-440	; 0xfffffe48
    a29c:	2978286c 	ldmdbcs	r8!, {r2, r3, r5, r6, fp, sp}^
    a2a0:	615f5f20 	cmpvs	pc, r0, lsr #30
    a2a4:	69727474 	ldmdbvs	r2!, {r2, r4, r5, r6, sl, ip, sp, lr}^
    a2a8:	65747562 	ldrbvs	r7, [r4, #-1378]!	; 0xfffffa9e
    a2ac:	28285f5f 	stmdacs	r8!, {r0, r1, r2, r3, r4, r6, r8, r9, sl, fp, ip, lr}
    a2b0:	6f6e5f5f 	svcvs	0x006e5f5f
    a2b4:	6c756e6e 	ldclvs	14, cr6, [r5], #-440	; 0xfffffe48
    a2b8:	205f5f6c 	subscs	r5, pc, ip, ror #30
    a2bc:	00292978 	eoreq	r2, r9, r8, ror r9
    a2c0:	4e41525f 	mcrmi	2, 2, r5, cr1, cr15, {2}
    a2c4:	5f383444 	svcpl	0x00383444
    a2c8:	20444441 	subcs	r4, r4, r1, asr #8
    a2cc:	30783028 	rsbscc	r3, r8, r8, lsr #32
    a2d0:	29623030 	stmdbcs	r2!, {r4, r5, ip, sp}^
    a2d4:	6c5f5f00 	mrrcvs	15, 0, r5, pc, cr0	; <UNPREDICTABLE>
    a2d8:	5f6b636f 	svcpl	0x006b636f
    a2dc:	75716361 	ldrbvc	r6, [r1, #-865]!	; 0xfffffc9f
    a2e0:	5f657269 	svcpl	0x00657269
    a2e4:	75636572 	strbvc	r6, [r3, #-1394]!	; 0xfffffa8e
    a2e8:	76697372 			; <UNDEFINED> instruction: 0x76697372
    a2ec:	6f6c2865 	svcvs	0x006c2865
    a2f0:	20296b63 	eorcs	r6, r9, r3, ror #22
    a2f4:	65725f5f 	ldrbvs	r5, [r2, #-3935]!	; 0xfffff0a1
    a2f8:	67726174 			; <UNDEFINED> instruction: 0x67726174
    a2fc:	6c5f7465 	cfldrdvs	mvd7, [pc], {101}	; 0x65
    a300:	5f6b636f 	svcpl	0x006b636f
    a304:	75716361 	ldrbvc	r6, [r1, #-865]!	; 0xfffffc9f
    a308:	5f657269 	svcpl	0x00657269
    a30c:	75636572 	strbvc	r6, [r3, #-1394]!	; 0xfffffa8e
    a310:	76697372 			; <UNDEFINED> instruction: 0x76697372
    a314:	6f6c2865 	svcvs	0x006c2865
    a318:	00296b63 	eoreq	r6, r9, r3, ror #22
    a31c:	4545525f 	strbmi	r5, [r5, #-607]	; 0xfffffda1
    a320:	415f544e 	cmpmi	pc, lr, asr #8
    a324:	49544353 	ldmdbmi	r4, {r0, r1, r4, r6, r8, r9, lr}^
    a328:	535f454d 	cmppl	pc, #322961408	; 0x13400000
    a32c:	20455a49 	subcs	r5, r5, r9, asr #20
    a330:	66003632 			; <UNDEFINED> instruction: 0x66003632
    a334:	65706f77 	ldrbvs	r6, [r0, #-3959]!	; 0xfffff089
    a338:	5f5f286e 	svcpl	0x005f286e
    a33c:	6b6f6f63 	blvs	1be60d0 <_Min_Stack_Size+0x1be5cd0>
    a340:	5f2c6569 	svcpl	0x002c6569
    a344:	296e665f 	stmdbcs	lr!, {r0, r1, r2, r3, r4, r6, r9, sl, sp, lr}^
    a348:	6e756620 	cdpvs	6, 7, cr6, cr5, cr0, {1}
    a34c:	6e65706f 	cdpvs	0, 6, cr7, cr5, cr15, {3}
    a350:	635f5f28 	cmpvs	pc, #40, 30	; 0xa0
    a354:	696b6f6f 	stmdbvs	fp!, {r0, r1, r2, r3, r5, r6, r8, r9, sl, fp, sp, lr}^
    a358:	28202c65 	stmdacs	r0!, {r0, r2, r5, r6, sl, fp, sp}
    a35c:	20746e69 	rsbscs	r6, r4, r9, ror #28
    a360:	28292a28 	stmdacs	r9!, {r3, r5, r9, fp, sp}
    a364:	2c302929 			; <UNDEFINED> instruction: 0x2c302929
    a368:	665f5f20 	ldrbvs	r5, [pc], -r0, lsr #30
    a36c:	28202c6e 	stmdacs	r0!, {r1, r2, r3, r5, r6, sl, fp, sp}
    a370:	736f7066 	cmnvc	pc, #102	; 0x66
    a374:	2820745f 	stmdacs	r0!, {r0, r1, r2, r3, r4, r6, sl, ip, sp, lr}
    a378:	2928292a 	stmdbcs	r8!, {r1, r3, r5, r8, fp, sp}
    a37c:	202c3029 	eorcs	r3, ip, r9, lsr #32
    a380:	746e6928 	strbtvc	r6, [lr], #-2344	; 0xfffff6d8
    a384:	292a2820 	stmdbcs	sl!, {r5, fp, sp}
    a388:	30292928 	eorcc	r2, r9, r8, lsr #18
    a38c:	5f5f0029 	svcpl	0x005f0029
    a390:	66727473 			; <UNDEFINED> instruction: 0x66727473
    a394:	656d6974 	strbvs	r6, [sp, #-2420]!	; 0xfffff68c
    a398:	656b696c 	strbvs	r6, [fp, #-2412]!	; 0xfffff694
    a39c:	746d6628 	strbtvc	r6, [sp], #-1576	; 0xfffff9d8
    a3a0:	2c677261 	sfmcs	f7, 2, [r7], #-388	; 0xfffffe7c
    a3a4:	73726966 	cmnvc	r2, #1671168	; 0x198000
    a3a8:	72617674 	rsbvc	r7, r1, #116, 12	; 0x7400000
    a3ac:	29677261 	stmdbcs	r7!, {r0, r5, r6, r9, ip, sp, lr}^
    a3b0:	615f5f20 	cmpvs	pc, r0, lsr #30
    a3b4:	69727474 	ldmdbvs	r2!, {r2, r4, r5, r6, sl, ip, sp, lr}^
    a3b8:	65747562 	ldrbvs	r7, [r4, #-1378]!	; 0xfffffa9e
    a3bc:	28285f5f 	stmdacs	r8!, {r0, r1, r2, r3, r4, r6, r8, r9, sl, fp, ip, lr}
    a3c0:	6f665f5f 	svcvs	0x00665f5f
    a3c4:	74616d72 	strbtvc	r6, [r1], #-3442	; 0xfffff28e
    a3c8:	28205f5f 	stmdacs	r0!, {r0, r1, r2, r3, r4, r6, r8, r9, sl, fp, ip, lr}
    a3cc:	74735f5f 	ldrbtvc	r5, [r3], #-3935	; 0xfffff0a1
    a3d0:	69746672 	ldmdbvs	r4!, {r1, r4, r5, r6, r9, sl, sp, lr}^
    a3d4:	5f5f656d 	svcpl	0x005f656d
    a3d8:	6d66202c 	stclvs	0, cr2, [r6, #-176]!	; 0xffffff50
    a3dc:	67726174 			; <UNDEFINED> instruction: 0x67726174
    a3e0:	6966202c 	stmdbvs	r6!, {r2, r3, r5, sp}^
    a3e4:	76747372 			; <UNDEFINED> instruction: 0x76747372
    a3e8:	72617261 	rsbvc	r7, r1, #268435462	; 0x10000006
    a3ec:	29292967 	stmdbcs	r9!, {r0, r1, r2, r5, r6, r8, fp, sp}
    a3f0:	445f5f00 	ldrbmi	r5, [pc], #-3840	; a3f8 <_Min_Stack_Size+0x9ff8>
    a3f4:	41555145 	cmpmi	r5, r5, asr #2
    a3f8:	5946494c 	stmdbpl	r6, {r2, r3, r6, r8, fp, lr}^
    a3fc:	70797428 	rsbsvc	r7, r9, r8, lsr #8
    a400:	61762c65 	cmnvs	r6, r5, ror #24
    a404:	28202972 	stmdacs	r0!, {r1, r4, r5, r6, r8, fp, sp}
    a408:	70797428 	rsbsvc	r7, r9, r8, lsr #8
    a40c:	5f282965 	svcpl	0x00282965
    a410:	6e69755f 	mcrvs	5, 3, r7, cr9, cr15, {2}
    a414:	72747074 	rsbsvc	r7, r4, #116	; 0x74
    a418:	2829745f 	stmdacs	r9!, {r0, r1, r2, r3, r4, r6, sl, ip, sp, lr}
    a41c:	736e6f63 	cmnvc	lr, #396	; 0x18c
    a420:	6f762074 	svcvs	0x00762074
    a424:	6974616c 	ldmdbvs	r4!, {r2, r3, r5, r6, r8, sp, lr}^
    a428:	7620656c 	strtvc	r6, [r0], -ip, ror #10
    a42c:	2064696f 	rsbcs	r6, r4, pc, ror #18
    a430:	7628292a 	strtvc	r2, [r8], -sl, lsr #18
    a434:	29297261 	stmdbcs	r9!, {r0, r5, r6, r9, ip, sp, lr}
    a438:	6c5f5f00 	mrrcvs	15, 0, r5, pc, cr0	; <UNPREDICTABLE>
    a43c:	5f6b636f 	svcpl	0x006b636f
    a440:	74696e69 	strbtvc	r6, [r9], #-3689	; 0xfffff197
    a444:	6365725f 	cmnvs	r5, #-268435451	; 0xf0000005
    a448:	69737275 	ldmdbvs	r3!, {r0, r2, r4, r5, r6, r9, ip, sp, lr}^
    a44c:	6c286576 	cfstr32vs	mvfx6, [r8], #-472	; 0xfffffe28
    a450:	296b636f 	stmdbcs	fp!, {r0, r1, r2, r3, r5, r6, r8, r9, sp, lr}^
    a454:	725f5f20 	subsvc	r5, pc, #32, 30	; 0x80
    a458:	72617465 	rsbvc	r7, r1, #1694498816	; 0x65000000
    a45c:	5f746567 	svcpl	0x00746567
    a460:	6b636f6c 	blvs	18e6218 <_Min_Stack_Size+0x18e5e18>
    a464:	696e695f 	stmdbvs	lr!, {r0, r1, r2, r3, r4, r6, r8, fp, sp, lr}^
    a468:	65725f74 	ldrbvs	r5, [r2, #-3956]!	; 0xfffff08c
    a46c:	73727563 	cmnvc	r2, #415236096	; 0x18c00000
    a470:	28657669 	stmdacs	r5!, {r0, r3, r5, r6, r9, sl, ip, sp, lr}^
    a474:	636f6c26 	cmnvs	pc, #9728	; 0x2600
    a478:	4c00296b 			; <UNDEFINED> instruction: 0x4c00296b
    a47c:	445f4443 	ldrbmi	r4, [pc], #-1091	; a484 <_Min_Stack_Size+0xa084>
    a480:	5f505349 	svcpl	0x00505349
    a484:	435f4e4f 	cmpmi	pc, #1264	; 0x4f0
    a488:	4f535255 	svcmi	0x00535255
    a48c:	4c425f52 	mcrrmi	15, 5, r5, r2, cr2
    a490:	204b4e49 	subcs	r4, fp, r9, asr #28
    a494:	30783028 	rsbscc	r3, r8, r8, lsr #32
    a498:	5f002946 	svcpl	0x00002946
    a49c:	455a4953 	ldrbmi	r4, [sl, #-2387]	; 0xfffff6ad
    a4a0:	445f545f 	ldrbmi	r5, [pc], #-1119	; a4a8 <_Min_Stack_Size+0xa0a8>
    a4a4:	4e494645 	cdpmi	6, 4, cr4, cr9, cr5, {2}
    a4a8:	00204445 	eoreq	r4, r0, r5, asr #8
    a4ac:	61705f5f 	cmnvs	r0, pc, asr pc
    a4b0:	64656b63 	strbtvs	r6, [r5], #-2915	; 0xfffff49d
    a4b4:	615f5f20 	cmpvs	pc, r0, lsr #30
    a4b8:	69727474 	ldmdbvs	r2!, {r2, r4, r5, r6, sl, ip, sp, lr}^
    a4bc:	65747562 	ldrbvs	r7, [r4, #-1378]!	; 0xfffffa9e
    a4c0:	28285f5f 	stmdacs	r8!, {r0, r1, r2, r3, r4, r6, r8, r9, sl, fp, ip, lr}
    a4c4:	61705f5f 	cmnvs	r0, pc, asr pc
    a4c8:	64656b63 	strbtvs	r6, [r5], #-2915	; 0xfffff49d
    a4cc:	29295f5f 	stmdbcs	r9!, {r0, r1, r2, r3, r4, r6, r8, r9, sl, fp, ip, lr}
    a4d0:	64747300 	ldrbtvs	r7, [r4], #-768	; 0xfffffd00
    a4d4:	2074756f 	rsbscs	r7, r4, pc, ror #10
    a4d8:	4545525f 	strbmi	r5, [r5, #-607]	; 0xfffffda1
    a4dc:	535f544e 	cmppl	pc, #1308622848	; 0x4e000000
    a4e0:	554f4454 	strbpl	r4, [pc, #-1108]	; a094 <_Min_Stack_Size+0x9c94>
    a4e4:	525f2854 	subspl	r2, pc, #84, 16	; 0x540000
    a4e8:	544e4545 	strbpl	r4, [lr], #-1349	; 0xfffffabb
    a4ec:	5f5f0029 	svcpl	0x005f0029
    a4f0:	65737361 	ldrbvs	r7, [r3, #-865]!	; 0xfffffc9f
    a4f4:	5f737472 	svcpl	0x00737472
    a4f8:	72616873 	rsbvc	r6, r1, #7536640	; 0x730000
    a4fc:	2e286465 	cdpcs	4, 2, cr6, cr8, cr5, {3}
    a500:	20292e2e 	eorcs	r2, r9, lr, lsr #28
    a504:	6f6c5f5f 	svcvs	0x006c5f5f
    a508:	615f6b63 	cmpvs	pc, r3, ror #22
    a50c:	746f6e6e 	strbtvc	r6, [pc], #-3694	; a514 <_Min_Stack_Size+0xa114>
    a510:	28657461 	stmdacs	r5!, {r0, r5, r6, sl, ip, sp, lr}^
    a514:	65737361 	ldrbvs	r7, [r3, #-865]!	; 0xfffffc9f
    a518:	735f7472 	cmpvc	pc, #1912602624	; 0x72000000
    a51c:	65726168 	ldrbvs	r6, [r2, #-360]!	; 0xfffffe98
    a520:	6f6c5f64 	svcvs	0x006c5f64
    a524:	5f286b63 	svcpl	0x00286b63
    a528:	5f41565f 	svcpl	0x0041565f
    a52c:	53475241 	movtpl	r5, #29249	; 0x7241
    a530:	29295f5f 	stmdbcs	r9!, {r0, r1, r2, r3, r4, r6, r8, r9, sl, fp, ip, lr}
    a534:	535f5f00 	cmppl	pc, #0, 30
    a538:	4c5f5359 	mrrcmi	3, 5, r5, pc, cr9	; <UNPREDICTABLE>
    a53c:	5f4b434f 	svcpl	0x004b434f
    a540:	205f5f48 	subscs	r5, pc, r8, asr #30
    a544:	4f505f00 	svcmi	0x00505f00
    a548:	5f584953 	svcpl	0x00584953
    a54c:	4f535f43 	svcmi	0x00535f43
    a550:	45435255 	strbmi	r5, [r3, #-597]	; 0xfffffdab
    a554:	6f6c6300 	svcvs	0x006c6300
    a558:	695f6b63 	ldmdbvs	pc, {r0, r1, r5, r6, r8, r9, fp, sp, lr}^	; <UNPREDICTABLE>
    a55c:	0074696e 	rsbseq	r6, r4, lr, ror #18
    a560:	6f6e5f5f 	svcvs	0x006e5f5f
    a564:	696e6173 	stmdbvs	lr!, {r0, r1, r4, r5, r6, r8, sp, lr}^
    a568:	657a6974 	ldrbvs	r6, [sl, #-2420]!	; 0xfffff68c
    a56c:	65726874 	ldrbvs	r6, [r2, #-2164]!	; 0xfffff78c
    a570:	00206461 	eoreq	r6, r0, r1, ror #8
    a574:	5f44434c 	svcpl	0x0044434c
    a578:	45564f4d 	ldrbmi	r4, [r6, #-3917]	; 0xfffff0b3
    a57c:	5255435f 	subspl	r4, r5, #2080374785	; 0x7c000001
    a580:	5f524f53 	svcpl	0x00524f53
    a584:	5446454c 	strbpl	r4, [r6], #-1356	; 0xfffffab4
    a588:	78302820 	ldmdavc	r0!, {r5, fp, sp}
    a58c:	00293031 	eoreq	r3, r9, r1, lsr r0
    a590:	532f2e2e 			; <UNDEFINED> instruction: 0x532f2e2e
    a594:	74726174 	ldrbtvc	r6, [r2], #-372	; 0xfffffe8c
    a598:	732f7075 			; <UNDEFINED> instruction: 0x732f7075
    a59c:	74726174 	ldrbtvc	r6, [r2], #-372	; 0xfffffe8c
    a5a0:	735f7075 	cmpvc	pc, #117	; 0x75
    a5a4:	32336d74 	eorscc	r6, r3, #116, 26	; 0x1d00
    a5a8:	33303166 	teqcc	r0, #-2147483623	; 0x80000019
    a5ac:	78743663 	ldmdavc	r4!, {r0, r1, r5, r6, r9, sl, ip, sp}^
    a5b0:	4700732e 	strmi	r7, [r0, -lr, lsr #6]
    a5b4:	4120554e 			; <UNDEFINED> instruction: 0x4120554e
    a5b8:	2e322053 	mrccs	0, 1, r2, cr2, cr3, {2}
    a5bc:	Address 0x000000000000a5bc is out of bounds.


Disassembly of section .debug_frame:

00000000 <.debug_frame>:
   0:	0000000c 	andeq	r0, r0, ip
   4:	ffffffff 			; <UNDEFINED> instruction: 0xffffffff
   8:	7c020001 	stcvc	0, cr0, [r2], {1}
   c:	000d0c0e 	andeq	r0, sp, lr, lsl #24
  10:	00000024 	andeq	r0, r0, r4, lsr #32
  14:	00000000 	andeq	r0, r0, r0
  18:	08000170 	stmdaeq	r0, {r4, r5, r6, r8}
  1c:	000000cc 	andeq	r0, r0, ip, asr #1
  20:	87040e41 	strhi	r0, [r4, -r1, asr #28]
  24:	100e4101 	andne	r4, lr, r1, lsl #2
  28:	02070d41 	andeq	r0, r7, #4160	; 0x1040
  2c:	41040e5c 	tstmi	r4, ip, asr lr
  30:	c7410d0d 	strbgt	r0, [r1, -sp, lsl #26]
  34:	0000000e 	andeq	r0, r0, lr
  38:	00000024 	andeq	r0, r0, r4, lsr #32
  3c:	00000000 	andeq	r0, r0, r0
  40:	0800023c 	stmdaeq	r0, {r2, r3, r4, r5, r9}
  44:	000000cc 	andeq	r0, r0, ip, asr #1
  48:	87040e41 	strhi	r0, [r4, -r1, asr #28]
  4c:	100e4101 	andne	r4, lr, r1, lsl #2
  50:	02070d41 	andeq	r0, r7, #4160	; 0x1040
  54:	41040e5c 	tstmi	r4, ip, asr lr
  58:	c7410d0d 	strbgt	r0, [r1, -sp, lsl #26]
  5c:	0000000e 	andeq	r0, r0, lr
  60:	00000020 	andeq	r0, r0, r0, lsr #32
  64:	00000000 	andeq	r0, r0, r0
  68:	08000308 	stmdaeq	r0, {r3, r8, r9}
  6c:	000001d0 	ldrdeq	r0, [r0], -r0	; <UNPREDICTABLE>
  70:	87080e41 	strhi	r0, [r8, -r1, asr #28]
  74:	41018e02 	tstmi	r1, r2, lsl #28
  78:	0d41180e 	stcleq	8, cr1, [r1, #-56]	; 0xffffffc8
  7c:	0ed50207 	cdpeq	2, 13, cr0, cr5, cr7, {0}
  80:	0d0d4108 	stfeqs	f4, [sp, #-32]	; 0xffffffe0
  84:	00000020 	andeq	r0, r0, r0, lsr #32
  88:	00000000 	andeq	r0, r0, r0
  8c:	080004d8 	stmdaeq	r0, {r3, r4, r6, r7, sl}
  90:	00000016 	andeq	r0, r0, r6, lsl r0
  94:	87080e41 	strhi	r0, [r8, -r1, asr #28]
  98:	41018e02 	tstmi	r1, r2, lsl #28
  9c:	0d41100e 	stcleq	0, cr1, [r1, #-56]	; 0xffffffc8
  a0:	080e4607 	stmdaeq	lr, {r0, r1, r2, r9, sl, lr}
  a4:	000d0d41 	andeq	r0, sp, r1, asr #26
  a8:	0000001c 	andeq	r0, r0, ip, lsl r0
	...
  b4:	00000094 	muleq	r0, r4, r0
  b8:	87040e41 	strhi	r0, [r4, -r1, asr #28]
  bc:	070d4101 	streq	r4, [sp, -r1, lsl #2]
  c0:	410d0d7f 	tstmi	sp, pc, ror sp
  c4:	00000ec7 	andeq	r0, r0, r7, asr #29
  c8:	00000020 	andeq	r0, r0, r0, lsr #32
	...
  d4:	00000016 	andeq	r0, r0, r6, lsl r0
  d8:	87080e41 	strhi	r0, [r8, -r1, asr #28]
  dc:	41018e02 	tstmi	r1, r2, lsl #28
  e0:	0d41100e 	stcleq	0, cr1, [r1, #-56]	; 0xffffffc8
  e4:	080e4607 	stmdaeq	lr, {r0, r1, r2, r9, sl, lr}
  e8:	000d0d41 	andeq	r0, sp, r1, asr #26
  ec:	00000018 	andeq	r0, r0, r8, lsl r0
  f0:	00000000 	andeq	r0, r0, r0
  f4:	080004f0 	stmdaeq	r0, {r4, r5, r6, r7, sl}
  f8:	0000002c 	andeq	r0, r0, ip, lsr #32
  fc:	87080e41 	strhi	r0, [r8, -r1, asr #28]
 100:	41018e02 	tstmi	r1, r2, lsl #28
 104:	0000070d 	andeq	r0, r0, sp, lsl #14
 108:	00000018 	andeq	r0, r0, r8, lsl r0
 10c:	00000000 	andeq	r0, r0, r0
 110:	0800051c 	stmdaeq	r0, {r2, r3, r4, r8, sl}
 114:	0000002c 	andeq	r0, r0, ip, lsr #32
 118:	87080e41 	strhi	r0, [r8, -r1, asr #28]
 11c:	41018e02 	tstmi	r1, r2, lsl #28
 120:	0000070d 	andeq	r0, r0, sp, lsl #14
 124:	00000018 	andeq	r0, r0, r8, lsl r0
 128:	00000000 	andeq	r0, r0, r0
 12c:	08000548 	stmdaeq	r0, {r3, r6, r8, sl}
 130:	0000002c 	andeq	r0, r0, ip, lsr #32
 134:	87080e41 	strhi	r0, [r8, -r1, asr #28]
 138:	41018e02 	tstmi	r1, r2, lsl #28
 13c:	0000070d 	andeq	r0, r0, sp, lsl #14
 140:	00000018 	andeq	r0, r0, r8, lsl r0
 144:	00000000 	andeq	r0, r0, r0
 148:	08000574 	stmdaeq	r0, {r2, r4, r5, r6, r8, sl}
 14c:	0000002c 	andeq	r0, r0, ip, lsr #32
 150:	87080e41 	strhi	r0, [r8, -r1, asr #28]
 154:	41018e02 	tstmi	r1, r2, lsl #28
 158:	0000070d 	andeq	r0, r0, sp, lsl #14
 15c:	00000018 	andeq	r0, r0, r8, lsl r0
 160:	00000000 	andeq	r0, r0, r0
 164:	080005a0 	stmdaeq	r0, {r5, r7, r8, sl}
 168:	0000002c 	andeq	r0, r0, ip, lsr #32
 16c:	87080e41 	strhi	r0, [r8, -r1, asr #28]
 170:	41018e02 	tstmi	r1, r2, lsl #28
 174:	0000070d 	andeq	r0, r0, sp, lsl #14
 178:	00000018 	andeq	r0, r0, r8, lsl r0
 17c:	00000000 	andeq	r0, r0, r0
 180:	080005cc 	stmdaeq	r0, {r2, r3, r6, r7, r8, sl}
 184:	000000d0 	ldrdeq	r0, [r0], -r0	; <UNPREDICTABLE>
 188:	87080e41 	strhi	r0, [r8, -r1, asr #28]
 18c:	41018e02 	tstmi	r1, r2, lsl #28
 190:	0000070d 	andeq	r0, r0, sp, lsl #14
 194:	00000018 	andeq	r0, r0, r8, lsl r0
 198:	00000000 	andeq	r0, r0, r0
 19c:	0800069c 	stmdaeq	r0, {r2, r3, r4, r7, r9, sl}
 1a0:	000000f4 	strdeq	r0, [r0], -r4
 1a4:	87080e41 	strhi	r0, [r8, -r1, asr #28]
 1a8:	41018e02 	tstmi	r1, r2, lsl #28
 1ac:	0000070d 	andeq	r0, r0, sp, lsl #14
 1b0:	0000000c 	andeq	r0, r0, ip
 1b4:	ffffffff 			; <UNDEFINED> instruction: 0xffffffff
 1b8:	7c020001 	stcvc	0, cr0, [r2], {1}
 1bc:	000d0c0e 	andeq	r0, sp, lr, lsl #24
 1c0:	00000024 	andeq	r0, r0, r4, lsr #32
 1c4:	000001b0 			; <UNDEFINED> instruction: 0x000001b0
 1c8:	08000790 	stmdaeq	r0, {r4, r7, r8, r9, sl}
 1cc:	000000a4 	andeq	r0, r0, r4, lsr #1
 1d0:	87040e41 	strhi	r0, [r4, -r1, asr #28]
 1d4:	100e4101 	andne	r4, lr, r1, lsl #2
 1d8:	02070d41 	andeq	r0, r7, #4160	; 0x1040
 1dc:	41040e4c 	tstmi	r4, ip, asr #28
 1e0:	c7410d0d 	strbgt	r0, [r1, -sp, lsl #26]
 1e4:	0000000e 	andeq	r0, r0, lr
 1e8:	00000024 	andeq	r0, r0, r4, lsr #32
 1ec:	000001b0 			; <UNDEFINED> instruction: 0x000001b0
 1f0:	08000834 	stmdaeq	r0, {r2, r4, r5, fp}
 1f4:	0000007a 	andeq	r0, r0, sl, ror r0
 1f8:	840c0e41 	strhi	r0, [ip], #-3649	; 0xfffff1bf
 1fc:	8e028703 	cdphi	7, 0, cr8, cr2, cr3, {0}
 200:	200e4101 	andcs	r4, lr, r1, lsl #2
 204:	78070d41 	stmdavc	r7, {r0, r6, r8, sl, fp}
 208:	0d410c0e 	stcleq	12, cr0, [r1, #-56]	; 0xffffffc8
 20c:	0000000d 	andeq	r0, r0, sp
 210:	00000024 	andeq	r0, r0, r4, lsr #32
 214:	000001b0 			; <UNDEFINED> instruction: 0x000001b0
 218:	00000000 	andeq	r0, r0, r0
 21c:	00000030 	andeq	r0, r0, r0, lsr r0
 220:	87040e41 	strhi	r0, [r4, -r1, asr #28]
 224:	100e4101 	andne	r4, lr, r1, lsl #2
 228:	52070d41 	andpl	r0, r7, #4160	; 0x1040
 22c:	0d41040e 	cfstrdeq	mvd0, [r1, #-56]	; 0xffffffc8
 230:	0ec7410d 	poleqs	f4, f7, #5.0
 234:	00000000 	andeq	r0, r0, r0
 238:	00000024 	andeq	r0, r0, r4, lsr #32
 23c:	000001b0 			; <UNDEFINED> instruction: 0x000001b0
 240:	00000000 	andeq	r0, r0, r0
 244:	00000048 	andeq	r0, r0, r8, asr #32
 248:	87040e41 	strhi	r0, [r4, -r1, asr #28]
 24c:	100e4101 	andne	r4, lr, r1, lsl #2
 250:	5e070d41 	cdppl	13, 0, cr0, cr7, cr1, {2}
 254:	0d41040e 	cfstrdeq	mvd0, [r1, #-56]	; 0xffffffc8
 258:	0ec7410d 	poleqs	f4, f7, #5.0
 25c:	00000000 	andeq	r0, r0, r0
 260:	00000024 	andeq	r0, r0, r4, lsr #32
 264:	000001b0 			; <UNDEFINED> instruction: 0x000001b0
 268:	00000000 	andeq	r0, r0, r0
 26c:	0000001c 	andeq	r0, r0, ip, lsl r0
 270:	87040e41 	strhi	r0, [r4, -r1, asr #28]
 274:	100e4101 	andne	r4, lr, r1, lsl #2
 278:	48070d41 	stmdami	r7, {r0, r6, r8, sl, fp}
 27c:	0d41040e 	cfstrdeq	mvd0, [r1, #-56]	; 0xffffffc8
 280:	0ec7410d 	poleqs	f4, f7, #5.0
 284:	00000000 	andeq	r0, r0, r0
 288:	00000024 	andeq	r0, r0, r4, lsr #32
 28c:	000001b0 			; <UNDEFINED> instruction: 0x000001b0
 290:	00000000 	andeq	r0, r0, r0
 294:	00000028 	andeq	r0, r0, r8, lsr #32
 298:	87040e41 	strhi	r0, [r4, -r1, asr #28]
 29c:	100e4101 	andne	r4, lr, r1, lsl #2
 2a0:	4e070d41 	cdpmi	13, 0, cr0, cr7, cr1, {2}
 2a4:	0d41040e 	cfstrdeq	mvd0, [r1, #-56]	; 0xffffffc8
 2a8:	0ec7410d 	poleqs	f4, f7, #5.0
 2ac:	00000000 	andeq	r0, r0, r0
 2b0:	00000024 	andeq	r0, r0, r4, lsr #32
 2b4:	000001b0 			; <UNDEFINED> instruction: 0x000001b0
 2b8:	00000000 	andeq	r0, r0, r0
 2bc:	00000022 	andeq	r0, r0, r2, lsr #32
 2c0:	87040e41 	strhi	r0, [r4, -r1, asr #28]
 2c4:	100e4101 	andne	r4, lr, r1, lsl #2
 2c8:	4b070d41 	blmi	1c37d4 <_Min_Stack_Size+0x1c33d4>
 2cc:	0d41040e 	cfstrdeq	mvd0, [r1, #-56]	; 0xffffffc8
 2d0:	0ec7410d 	poleqs	f4, f7, #5.0
 2d4:	00000000 	andeq	r0, r0, r0
 2d8:	00000024 	andeq	r0, r0, r4, lsr #32
 2dc:	000001b0 			; <UNDEFINED> instruction: 0x000001b0
 2e0:	00000000 	andeq	r0, r0, r0
 2e4:	0000002e 	andeq	r0, r0, lr, lsr #32
 2e8:	87040e41 	strhi	r0, [r4, -r1, asr #28]
 2ec:	180e4101 	stmdane	lr, {r0, r8, lr}
 2f0:	51070d41 	tstpl	r7, r1, asr #26
 2f4:	0d41040e 	cfstrdeq	mvd0, [r1, #-56]	; 0xffffffc8
 2f8:	0ec7410d 	poleqs	f4, f7, #5.0
 2fc:	00000000 	andeq	r0, r0, r0
 300:	00000024 	andeq	r0, r0, r4, lsr #32
 304:	000001b0 			; <UNDEFINED> instruction: 0x000001b0
 308:	00000000 	andeq	r0, r0, r0
 30c:	0000001e 	andeq	r0, r0, lr, lsl r0
 310:	87040e41 	strhi	r0, [r4, -r1, asr #28]
 314:	180e4101 	stmdane	lr, {r0, r8, lr}
 318:	49070d41 	stmdbmi	r7, {r0, r6, r8, sl, fp}
 31c:	0d41040e 	cfstrdeq	mvd0, [r1, #-56]	; 0xffffffc8
 320:	0ec7410d 	poleqs	f4, f7, #5.0
 324:	00000000 	andeq	r0, r0, r0
 328:	00000024 	andeq	r0, r0, r4, lsr #32
 32c:	000001b0 			; <UNDEFINED> instruction: 0x000001b0
 330:	00000000 	andeq	r0, r0, r0
 334:	00000066 	andeq	r0, r0, r6, rrx
 338:	87040e41 	strhi	r0, [r4, -r1, asr #28]
 33c:	180e4101 	stmdane	lr, {r0, r8, lr}
 340:	6d070d41 	stcvs	13, cr0, [r7, #-260]	; 0xfffffefc
 344:	0d41040e 	cfstrdeq	mvd0, [r1, #-56]	; 0xffffffc8
 348:	0ec7410d 	poleqs	f4, f7, #5.0
 34c:	00000000 	andeq	r0, r0, r0
 350:	0000000c 	andeq	r0, r0, ip
 354:	ffffffff 			; <UNDEFINED> instruction: 0xffffffff
 358:	7c020001 	stcvc	0, cr0, [r2], {1}
 35c:	000d0c0e 	andeq	r0, sp, lr, lsl #24
 360:	00000024 	andeq	r0, r0, r4, lsr #32
 364:	00000350 	andeq	r0, r0, r0, asr r3
 368:	00000000 	andeq	r0, r0, r0
 36c:	00000044 	andeq	r0, r0, r4, asr #32
 370:	87040e41 	strhi	r0, [r4, -r1, asr #28]
 374:	100e4101 	andne	r4, lr, r1, lsl #2
 378:	56070d41 	strpl	r0, [r7], -r1, asr #26
 37c:	0d41040e 	cfstrdeq	mvd0, [r1, #-56]	; 0xffffffc8
 380:	0ec7410d 	poleqs	f4, f7, #5.0
 384:	00000000 	andeq	r0, r0, r0
 388:	00000020 	andeq	r0, r0, r0, lsr #32
 38c:	00000350 	andeq	r0, r0, r0, asr r3
 390:	00000000 	andeq	r0, r0, r0
 394:	000001a8 	andeq	r0, r0, r8, lsr #3
 398:	87080e41 	strhi	r0, [r8, -r1, asr #28]
 39c:	41018e02 	tstmi	r1, r2, lsl #28
 3a0:	0d41180e 	stcleq	8, cr1, [r1, #-56]	; 0xffffffc8
 3a4:	0ec00207 	cdpeq	2, 12, cr0, cr0, cr7, {0}
 3a8:	0d0d4108 	stfeqs	f4, [sp, #-32]	; 0xffffffe0
 3ac:	00000024 	andeq	r0, r0, r4, lsr #32
 3b0:	00000350 	andeq	r0, r0, r0, asr r3
 3b4:	00000000 	andeq	r0, r0, r0
 3b8:	0000008c 	andeq	r0, r0, ip, lsl #1
 3bc:	87040e41 	strhi	r0, [r4, -r1, asr #28]
 3c0:	100e4101 	andne	r4, lr, r1, lsl #2
 3c4:	75070d41 	strvc	r0, [r7, #-3393]	; 0xfffff2bf
 3c8:	0d41040e 	cfstrdeq	mvd0, [r1, #-56]	; 0xffffffc8
 3cc:	0ec7410d 	poleqs	f4, f7, #5.0
 3d0:	00000000 	andeq	r0, r0, r0
 3d4:	00000020 	andeq	r0, r0, r0, lsr #32
 3d8:	00000350 	andeq	r0, r0, r0, asr r3
 3dc:	00000000 	andeq	r0, r0, r0
 3e0:	00000058 	andeq	r0, r0, r8, asr r0
 3e4:	87080e41 	strhi	r0, [r8, -r1, asr #28]
 3e8:	41018e02 	tstmi	r1, r2, lsl #28
 3ec:	0d41100e 	stcleq	0, cr1, [r1, #-56]	; 0xffffffc8
 3f0:	080e6407 	stmdaeq	lr, {r0, r1, r2, sl, sp, lr}
 3f4:	000d0d41 	andeq	r0, sp, r1, asr #26
 3f8:	00000020 	andeq	r0, r0, r0, lsr #32
 3fc:	00000350 	andeq	r0, r0, r0, asr r3
 400:	00000000 	andeq	r0, r0, r0
 404:	000000a0 	andeq	r0, r0, r0, lsr #1
 408:	87080e41 	strhi	r0, [r8, -r1, asr #28]
 40c:	41018e02 	tstmi	r1, r2, lsl #28
 410:	0d41180e 	stcleq	8, cr1, [r1, #-56]	; 0xffffffc8
 414:	0e490207 	cdpeq	2, 4, cr0, cr9, cr7, {0}
 418:	0d0d4108 	stfeqs	f4, [sp, #-32]	; 0xffffffe0
 41c:	00000020 	andeq	r0, r0, r0, lsr #32
 420:	00000350 	andeq	r0, r0, r0, asr r3
 424:	00000000 	andeq	r0, r0, r0
 428:	0000007c 	andeq	r0, r0, ip, ror r0
 42c:	87080e41 	strhi	r0, [r8, -r1, asr #28]
 430:	41018e02 	tstmi	r1, r2, lsl #28
 434:	0d41100e 	stcleq	0, cr1, [r1, #-56]	; 0xffffffc8
 438:	080e6f07 	stmdaeq	lr, {r0, r1, r2, r8, r9, sl, fp, sp, lr}
 43c:	000d0d41 	andeq	r0, sp, r1, asr #26
 440:	00000018 	andeq	r0, r0, r8, lsl r0
 444:	00000350 	andeq	r0, r0, r0, asr r3
 448:	080008b0 	stmdaeq	r0, {r4, r5, r7, fp}
 44c:	00000014 	andeq	r0, r0, r4, lsl r0
 450:	87080e41 	strhi	r0, [r8, -r1, asr #28]
 454:	41018e02 	tstmi	r1, r2, lsl #28
 458:	0000070d 	andeq	r0, r0, sp, lsl #14
 45c:	00000018 	andeq	r0, r0, r8, lsl r0
 460:	00000350 	andeq	r0, r0, r0, asr r3
 464:	080008c4 	stmdaeq	r0, {r2, r6, r7, fp}
 468:	00000014 	andeq	r0, r0, r4, lsl r0
 46c:	87080e41 	strhi	r0, [r8, -r1, asr #28]
 470:	41018e02 	tstmi	r1, r2, lsl #28
 474:	0000070d 	andeq	r0, r0, sp, lsl #14
 478:	00000018 	andeq	r0, r0, r8, lsl r0
 47c:	00000350 	andeq	r0, r0, r0, asr r3
 480:	080008d8 	stmdaeq	r0, {r3, r4, r6, r7, fp}
 484:	00000014 	andeq	r0, r0, r4, lsl r0
 488:	87080e41 	strhi	r0, [r8, -r1, asr #28]
 48c:	41018e02 	tstmi	r1, r2, lsl #28
 490:	0000070d 	andeq	r0, r0, sp, lsl #14
 494:	0000000c 	andeq	r0, r0, ip
 498:	ffffffff 			; <UNDEFINED> instruction: 0xffffffff
 49c:	7c020001 	stcvc	0, cr0, [r2], {1}
 4a0:	000d0c0e 	andeq	r0, sp, lr, lsl #24
 4a4:	00000024 	andeq	r0, r0, r4, lsr #32
 4a8:	00000494 	muleq	r0, r4, r4
 4ac:	00000000 	andeq	r0, r0, r0
 4b0:	0000003a 	andeq	r0, r0, sl, lsr r0
 4b4:	87040e41 	strhi	r0, [r4, -r1, asr #28]
 4b8:	180e4101 	stmdane	lr, {r0, r8, lr}
 4bc:	57070d41 	strpl	r0, [r7, -r1, asr #26]
 4c0:	0d41040e 	cfstrdeq	mvd0, [r1, #-56]	; 0xffffffc8
 4c4:	0ec7410d 	poleqs	f4, f7, #5.0
 4c8:	00000000 	andeq	r0, r0, r0
 4cc:	0000001c 	andeq	r0, r0, ip, lsl r0
 4d0:	00000494 	muleq	r0, r4, r4
 4d4:	080008ec 	stmdaeq	r0, {r2, r3, r5, r6, r7, fp}
 4d8:	00000034 	andeq	r0, r0, r4, lsr r0
 4dc:	87040e41 	strhi	r0, [r4, -r1, asr #28]
 4e0:	070d4101 	streq	r4, [sp, -r1, lsl #2]
 4e4:	410d0d54 	tstmi	sp, r4, asr sp
 4e8:	00000ec7 	andeq	r0, r0, r7, asr #29
 4ec:	0000001c 	andeq	r0, r0, ip, lsl r0
 4f0:	00000494 	muleq	r0, r4, r4
 4f4:	08000920 	stmdaeq	r0, {r5, r8, fp}
 4f8:	00000030 	andeq	r0, r0, r0, lsr r0
 4fc:	87040e41 	strhi	r0, [r4, -r1, asr #28]
 500:	070d4101 	streq	r4, [sp, -r1, lsl #2]
 504:	410d0d4f 	tstmi	sp, pc, asr #26
 508:	00000ec7 	andeq	r0, r0, r7, asr #29
 50c:	0000001c 	andeq	r0, r0, ip, lsl r0
 510:	00000494 	muleq	r0, r4, r4
 514:	08000950 	stmdaeq	r0, {r4, r6, r8, fp}
 518:	00000068 	andeq	r0, r0, r8, rrx
 51c:	87080e41 	strhi	r0, [r8, -r1, asr #28]
 520:	41018e02 	tstmi	r1, r2, lsl #28
 524:	0d41280e 	stcleq	8, cr2, [r1, #-56]	; 0xffffffc8
 528:	00000007 	andeq	r0, r0, r7
 52c:	0000000c 	andeq	r0, r0, ip
 530:	ffffffff 			; <UNDEFINED> instruction: 0xffffffff
 534:	7c020001 	stcvc	0, cr0, [r2], {1}
 538:	000d0c0e 	andeq	r0, sp, lr, lsl #24
 53c:	00000018 	andeq	r0, r0, r8, lsl r0
 540:	0000052c 	andeq	r0, r0, ip, lsr #10
 544:	08000a0c 	stmdaeq	r0, {r2, r3, r9, fp}
 548:	00000048 	andeq	r0, r0, r8, asr #32
 54c:	84100e41 	ldrhi	r0, [r0], #-3649	; 0xfffff1bf
 550:	86038504 	strhi	r8, [r3], -r4, lsl #10
 554:	00018e02 	andeq	r8, r1, r2, lsl #28
